
GreenPAKWriter.elf:     file format elf32-littlenios2
GreenPAKWriter.elf
architecture: nios2:r1, flags 0x00000112:
EXEC_P, HAS_SYMS, D_PAGED
start address 0x00020224

Program Header:
    LOAD off    0x00001000 vaddr 0x00020000 paddr 0x00020000 align 2**12
         filesz 0x00000020 memsz 0x00000020 flags r-x
    LOAD off    0x00001020 vaddr 0x00020020 paddr 0x00020020 align 2**12
         filesz 0x00007154 memsz 0x00007154 flags r-x
    LOAD off    0x00008174 vaddr 0x00027174 paddr 0x0002750c align 2**12
         filesz 0x00000398 memsz 0x00000398 flags rw-
    LOAD off    0x000008a4 vaddr 0x000278a4 paddr 0x000278a4 align 2**12
         filesz 0x00000000 memsz 0x0000011c flags rw-

Sections:
Idx Name          Size      VMA       LMA       File off  Algn
  0 .entry        00000020  00020000  00020000  00001000  2**5
                  CONTENTS, ALLOC, LOAD, READONLY, CODE
  1 .exceptions   00000204  00020020  00020020  00001020  2**2
                  CONTENTS, ALLOC, LOAD, READONLY, CODE
  2 .text         00006b70  00020224  00020224  00001224  2**2
                  CONTENTS, ALLOC, LOAD, READONLY, CODE
  3 .rodata       000003e0  00026d94  00026d94  00007d94  2**2
                  CONTENTS, ALLOC, LOAD, READONLY, DATA
  4 .rwdata       00000398  00027174  0002750c  00008174  2**2
                  CONTENTS, ALLOC, LOAD, DATA, SMALL_DATA
  5 .bss          0000011c  000278a4  000278a4  000088a4  2**2
                  ALLOC, SMALL_DATA
  6 .onchip_memory 00000000  000279c0  000279c0  0000850c  2**0
                  CONTENTS
  7 .slave_mem    00000000  00048000  00048000  0000850c  2**0
                  CONTENTS
  8 .comment      0000002d  00000000  00000000  0000850c  2**0
                  CONTENTS, READONLY
  9 .debug_aranges 00000768  00000000  00000000  00008540  2**3
                  CONTENTS, READONLY, DEBUGGING, OCTETS
 10 .debug_info   0000d101  00000000  00000000  00008ca8  2**0
                  CONTENTS, READONLY, DEBUGGING, OCTETS
 11 .debug_abbrev 00003e96  00000000  00000000  00015da9  2**0
                  CONTENTS, READONLY, DEBUGGING, OCTETS
 12 .debug_line   00005d9d  00000000  00000000  00019c3f  2**0
                  CONTENTS, READONLY, DEBUGGING, OCTETS
 13 .debug_frame  00001ae0  00000000  00000000  0001f9dc  2**2
                  CONTENTS, READONLY, DEBUGGING, OCTETS
 14 .debug_str    000037ba  00000000  00000000  000214bc  2**0
                  CONTENTS, READONLY, DEBUGGING, OCTETS
 15 .debug_loc    00001bbc  00000000  00000000  00024c76  2**0
                  CONTENTS, READONLY, DEBUGGING, OCTETS
 16 .debug_alt_sim_info 00000040  00000000  00000000  00026834  2**2
                  CONTENTS, READONLY, DEBUGGING, OCTETS
 17 .debug_ranges 00000328  00000000  00000000  00026878  2**3
                  CONTENTS, READONLY, DEBUGGING, OCTETS
 18 .thread_model 00000003  00000000  00000000  00029aca  2**0
                  CONTENTS, READONLY
 19 .cpu          00000009  00000000  00000000  00029acd  2**0
                  CONTENTS, READONLY
 20 .qsys         00000001  00000000  00000000  00029ad6  2**0
                  CONTENTS, READONLY
 21 .simulation_enabled 00000001  00000000  00000000  00029ad7  2**0
                  CONTENTS, READONLY
 22 .stderr_dev   00000009  00000000  00000000  00029ad8  2**0
                  CONTENTS, READONLY
 23 .stdin_dev    00000009  00000000  00000000  00029ae1  2**0
                  CONTENTS, READONLY
 24 .stdout_dev   00000009  00000000  00000000  00029aea  2**0
                  CONTENTS, READONLY
 25 .sopc_system_name 0000000c  00000000  00000000  00029af3  2**0
                  CONTENTS, READONLY
SYMBOL TABLE:
00020000 l    d  .entry	00000000 .entry
00020020 l    d  .exceptions	00000000 .exceptions
00020224 l    d  .text	00000000 .text
00026d94 l    d  .rodata	00000000 .rodata
00027174 l    d  .rwdata	00000000 .rwdata
000278a4 l    d  .bss	00000000 .bss
000279c0 l    d  .onchip_memory	00000000 .onchip_memory
00048000 l    d  .slave_mem	00000000 .slave_mem
00000000 l    d  .comment	00000000 .comment
00000000 l    d  .debug_aranges	00000000 .debug_aranges
00000000 l    d  .debug_info	00000000 .debug_info
00000000 l    d  .debug_abbrev	00000000 .debug_abbrev
00000000 l    d  .debug_line	00000000 .debug_line
00000000 l    d  .debug_frame	00000000 .debug_frame
00000000 l    d  .debug_str	00000000 .debug_str
00000000 l    d  .debug_loc	00000000 .debug_loc
00000000 l    d  .debug_alt_sim_info	00000000 .debug_alt_sim_info
00000000 l    d  .debug_ranges	00000000 .debug_ranges
00000000 l    df *ABS*	00000000 c:/Users/ohnaka/work/github/X68k-KeplerX-RTL/GreenPAK/fpga-writer/Eclipse/GreenPAKWriter_BSP//obj/HAL/src/crt0.o
0002025c l       .text	00000000 alt_after_alt_main
00000000 l    df *ABS*	00000000 alt_irq_handler.c
00000000 l    df *ABS*	00000000 alt_instruction_exception_entry.c
00000000 l    df *ABS*	00000000 main.c
00020260 l     F .text	0000009c fifo_callback
000202fc l     F .text	000000ac i2c_callback
00000000 l    df *ABS*	00000000 memset.c
00000000 l    df *ABS*	00000000 printf.c
00000000 l    df *ABS*	00000000 putchar.c
00000000 l    df *ABS*	00000000 puts.c
00000000 l    df *ABS*	00000000 strlen.c
00000000 l    df *ABS*	00000000 vfprintf.c
00020a04 l     F .text	0000006c print_repeat
00000000 l    df *ABS*	00000000 fvwrite_small_dev.c
00000000 l    df *ABS*	00000000 impure.c
00027174 l     O .rwdata	000000e4 impure_data
00000000 l    df *ABS*	00000000 putc.c
00000000 l    df *ABS*	00000000 writer.c
00000000 l    df *ABS*	00000000 int_errno.c
00000000 l    df *ABS*	00000000 lib2-divmod.c
00000000 l    df *ABS*	00000000 lib2-mul.c
00000000 l    df *ABS*	00000000 alt_dcache_flush_all.c
00000000 l    df *ABS*	00000000 alt_iic.c
00000000 l    df *ABS*	00000000 alt_iic_isr_register.c
00000000 l    df *ABS*	00000000 alt_irq_vars.c
00000000 l    df *ABS*	00000000 alt_load.c
000215c4 l     F .text	00000068 alt_load_section
00000000 l    df *ABS*	00000000 alt_main.c
00000000 l    df *ABS*	00000000 alt_printf.c
00000000 l    df *ABS*	00000000 alt_putchar.c
00000000 l    df *ABS*	00000000 alt_write.c
00021988 l     F .text	0000003c alt_get_errno
00000000 l    df *ABS*	00000000 alt_sys_init.c
00021ac8 l     F .text	00000034 alt_dev_reg
00027260 l     O .rwdata	00000038 i2c_0
00027298 l     O .rwdata	0000002c jtag_uart
000272d0 l     O .rwdata	00000060 msgdma_tx
00000000 l    df *ABS*	00000000 altera_avalon_fifo_util.c
00000000 l    df *ABS*	00000000 altera_avalon_i2c.c
00022098 l     F .text	00000110 optional_irq_callback
000221f8 l     F .text	000000a0 alt_avalon_i2c_irq
00000000 l    df *ABS*	00000000 altera_avalon_jtag_uart_fd.c
00000000 l    df *ABS*	00000000 altera_avalon_jtag_uart_read.c
00000000 l    df *ABS*	00000000 altera_avalon_jtag_uart_write.c
00000000 l    df *ABS*	00000000 altera_msgdma.c
00023f04 l     F .text	0000003c alt_get_errno
00023f40 l     F .text	00000094 alt_msgdma_write_standard_descriptor
00023fd4 l     F .text	0000012c alt_msgdma_write_extended_descriptor
00024100 l     F .text	00000188 alt_msgdma_irq
00024288 l     F .text	0000008c alt_msgdma_construct_standard_descriptor
00024314 l     F .text	00000154 alt_msgdma_construct_extended_descriptor
00024468 l     F .text	000002dc alt_msgdma_descriptor_async_transfer
00024744 l     F .text	00000388 alt_msgdma_descriptor_sync_transfer
00024d9c l     F .text	000000a4 alt_msgdma_construct_prefetcher_standard_descriptor
00024e40 l     F .text	00000194 alt_msgdma_construct_prefetcher_extended_descriptor
00000000 l    df *ABS*	00000000 alt_busy_sleep.c
00000000 l    df *ABS*	00000000 alt_close.c
00026034 l     F .text	0000003c alt_get_errno
00000000 l    df *ABS*	00000000 alt_dcache_flush.c
00000000 l    df *ABS*	00000000 alt_dev.c
00026174 l     F .text	0000002c alt_dev_null_write
00000000 l    df *ABS*	00000000 alt_dev_llist_insert.c
000261a0 l     F .text	0000003c alt_get_errno
00000000 l    df *ABS*	00000000 alt_do_ctors.c
00000000 l    df *ABS*	00000000 alt_do_dtors.c
00000000 l    df *ABS*	00000000 alt_errno.c
00000000 l    df *ABS*	00000000 alt_find_dev.c
00000000 l    df *ABS*	00000000 alt_icache_flush_all.c
00000000 l    df *ABS*	00000000 alt_io_redirect.c
00026494 l     F .text	000000d4 alt_open_fd
00000000 l    df *ABS*	00000000 alt_open.c
000265e4 l     F .text	0000003c alt_get_errno
00026620 l     F .text	000000dc alt_file_locked
00000000 l    df *ABS*	00000000 alt_release_fd.c
00000000 l    df *ABS*	00000000 altera_nios2_gen2_irq.c
00000000 l    df *ABS*	00000000 alt_find_file.c
00000000 l    df *ABS*	00000000 alt_get_fd.c
00000000 l    df *ABS*	00000000 atexit.c
00000000 l    df *ABS*	00000000 exit.c
00000000 l    df *ABS*	00000000 memcmp.c
00000000 l    df *ABS*	00000000 __atexit.c
00000000 l    df *ABS*	00000000 __call_atexit.c
00000000 l    df *ABS*	00000000 alt_exit.c
000278bc g     O .bss	00000004 alt_instruction_exception_handler
00025dec g     F .text	0000003c alt_msgdma_standard_descriptor_async_transfer
00020940 g     F .text	00000018 putchar
000216b0 g     F .text	0000007c alt_main
00020958 g     F .text	00000080 _puts_r
000278c0 g     O .bss	00000100 alt_irq
00021e24 g     F .text	00000058 altera_avalon_fifo_write_almostfull
0002750c g       *ABS*	00000000 __flash_rwdata_start
000207a4 g     F .text	000000f0 dump
00024b7c g     F .text	00000058 alt_msgdma_construct_standard_mm_to_mm_descriptor
000208f0 g     F .text	00000048 printf
000228f8 g     F .text	000000a8 alt_avalon_i2c_rx_read
00023b20 g     F .text	00000044 alt_avalon_i2c_enabled_ints_get
00022678 g     F .text	00000094 alt_avalon_i2c_master_config_speed_get
00021ba0 g     F .text	00000098 altera_avalon_fifo_init
00023368 g     F .text	0000020c alt_avalon_i2c_master_transmit_using_interrupts
00021ed4 g     F .text	00000058 altera_avalon_fifo_write_fifo
00024acc g     F .text	00000058 alt_msgdma_construct_standard_st_to_mm_descriptor
000268cc g     F .text	00000024 altera_nios2_gen2_irq_init
00020000 g     F .entry	0000000c __reset
00022070 g     F .text	00000028 altera_avalon_fifo_read_backpressure
00020020 g       *ABS*	00000000 __flash_exceptions_start
000278a8 g     O .bss	00000004 errno
000278b4 g     O .bss	00000004 alt_argv
0002f4d8 g       *ABS*	00000000 _gp
00023b64 g     F .text	0000004c alt_avalon_i2c_rx_fifo_threshold_get
00021d6c g     F .text	00000060 altera_avalon_fifo_clear_event
00022808 g     F .text	00000044 alt_avalon_i2c_is_busy
00025664 g     F .text	0000014c alt_msgdma_prefetcher_set_extd_list_own_by_hw_bits
00027358 g     O .rwdata	00000180 alt_fd_list
00020938 g     F .text	00000008 _putchar_r
000225ac g     F .text	000000cc alt_avalon_i2c_master_config_set
0002634c g     F .text	00000090 alt_find_dev
00026568 g     F .text	0000007c alt_io_redirect
00026d94 g       *ABS*	00000000 __DTOR_END__
00025b28 g     F .text	000000b0 alt_msgdma_start_prefetcher_with_extd_desc_list
00025e28 g     F .text	0000003c alt_msgdma_extended_descriptor_async_transfer
00025d98 g     F .text	00000054 alt_msgdma_register_callback
000231a8 g     F .text	000001c0 alt_avalon_i2c_master_transmit
000209d8 g     F .text	00000010 puts
000263fc g     F .text	00000098 alt_exception_cause_generated_bad_addr
00023d84 g     F .text	000000ec altera_avalon_jtag_uart_read
000252cc g     F .text	000000f0 alt_msgdma_prefetcher_add_standard_desc_to_list
000208b4 g     F .text	0000003c _printf_r
00021224 g     F .text	00000064 .hidden __udivsi3
00022418 g     F .text	00000098 alt_avalon_i2c_enable
00023a4c g     F .text	0000006c alt_avalon_i2c_int_disable
0002614c g     F .text	00000028 alt_dcache_flush
00027504 g     O .rwdata	00000004 alt_max_fd
00023574 g     F .text	00000210 alt_avalon_i2c_master_receive
0002502c g     F .text	00000058 alt_msgdma_construct_prefetcher_standard_st_to_mm_descriptor
00023ab8 g     F .text	00000068 alt_avalon_i2c_int_enable
000274d8 g     O .rwdata	00000004 _global_impure_ptr
000279c0 g       *ABS*	00000000 __bss_end
000214dc g     F .text	000000e8 alt_iic_isr_register
00025c30 g     F .text	00000168 alt_msgdma_init
00023974 g     F .text	00000058 alt_avalon_i2c_int_status_get
00025ea0 g     F .text	0000003c alt_msgdma_extended_descriptor_sync_transfer
00021490 g     F .text	0000004c alt_ic_irq_enabled
00022298 g     F .text	00000054 alt_avalon_i2c_register_callback
000278ac g     O .bss	00000004 alt_irq_active
000222ec g     F .text	000000ec alt_avalon_i2c_init
000200fc g     F .exceptions	000000c8 alt_irq_handler
00027330 g     O .rwdata	00000028 alt_dev_null
00024c64 g     F .text	00000090 alt_msgdma_construct_extended_mm_to_st_descriptor
00025a78 g     F .text	000000b0 alt_msgdma_start_prefetcher_with_std_desc_list
0002130c g     F .text	00000020 alt_dcache_flush_all
00021dcc g     F .text	00000058 altera_avalon_fifo_write_ienable
0002750c g       *ABS*	00000000 __ram_rwdata_end
00020000 g       *ABS*	00000000 __alt_mem_onchip_memory
00021cdc g     F .text	0000002c altera_avalon_fifo_read_almostempty
000274fc g     O .rwdata	00000008 alt_dev_list
000219c4 g     F .text	00000104 write
0002108c g     F .text	00000054 _putc_r
00022c34 g     F .text	0000004c alt_avalon_i2c_check_arblost
00023a10 g     F .text	0000003c alt_avalon_i2c_int_clear
00027174 g       *ABS*	00000000 __ram_rodata_end
000274e4 g     O .rwdata	00000008 alt_avalon_i2c_list
00021288 g     F .text	0000005c .hidden __umodsi3
00048000 g       *ABS*	00000000 __alt_mem_slave_mem
00025084 g     F .text	00000058 alt_msgdma_construct_prefetcher_standard_mm_to_st_descriptor
000279c0 g       *ABS*	00000000 end
000201c4 g     F .exceptions	00000060 alt_instruction_exception_entry
000223d8 g     F .text	00000040 alt_avalon_i2c_open
00021d08 g     F .text	0000003c altera_avalon_fifo_read_event
00026d94 g       *ABS*	00000000 __CTOR_LIST__
00028000 g       *ABS*	00000000 __alt_stack_pointer
00022dbc g     F .text	000000e8 alt_avalon_i2c_master_tx
00023e70 g     F .text	00000094 altera_avalon_jtag_uart_write
00021f98 g     F .text	0000004c altera_avalon_fifo_read_fifo
00020a70 g     F .text	0000050c ___vfprintf_internal_r
0002172c g     F .text	0000022c alt_printf
00026c30 g     F .text	0000012c __call_exitprocs
000221a8 g     F .text	00000050 alt_avalon_i2c_register_optional_irq_handler
00020224 g     F .text	0000003c _start
00023784 g     F .text	000001f0 alt_avalon_i2c_master_receive_using_interrupts
00023bb0 g     F .text	00000064 alt_avalon_i2c_rx_fifo_threshold_set
00024b24 g     F .text	00000058 alt_msgdma_construct_standard_mm_to_st_descriptor
00021b38 g     F .text	00000068 alt_sys_init
00026b14 g     F .text	0000011c __register_exitproc
00022fe0 g     F .text	000001c8 alt_avalon_i2c_master_tx_rx
000212e4 g     F .text	00000028 .hidden __mulsi3
00027174 g       *ABS*	00000000 __ram_rwdata_start
00026d94 g       *ABS*	00000000 __ram_rodata_start
00023cc4 g     F .text	00000060 altera_avalon_jtag_uart_read_fd
000269f8 g     F .text	000000b8 alt_get_fd
00025edc g     F .text	00000158 alt_busy_sleep
00024fd4 g     F .text	00000058 alt_msgdma_construct_prefetcher_standard_mm_to_mm_descriptor
00026ae4 g     F .text	00000030 memcmp
0002284c g     F .text	000000ac alt_avalon_i2c_rx_read_available
000279c0 g       *ABS*	00000000 __alt_stack_base
000250dc g     F .text	000000a0 alt_msgdma_construct_prefetcher_extended_st_to_mm_descriptor
00021c38 g     F .text	0000003c altera_avalon_fifo_read_status
00022044 g     F .text	0000002c altera_avalon_fifo_read_other_info
000268f0 g     F .text	00000108 alt_find_file
000261dc g     F .text	000000a8 alt_dev_llist_insert
00022c80 g     F .text	0000013c alt_avalon_i2c_interrupt_transaction_status
00022be8 g     F .text	0000004c alt_avalon_i2c_check_nack
00020f94 g     F .text	000000a8 __sfvwrite_small_dev
000278a4 g       *ABS*	00000000 __bss_start
00020894 g     F .text	00000020 memset
00025bd8 g     F .text	00000058 alt_msgdma_open
000203a8 g     F .text	000003fc main
00022bb4 g     F .text	00000034 alt_avalon_i2c_master_target_set
000278b8 g     O .bss	00000004 alt_envp
000253bc g     F .text	00000198 alt_msgdma_prefetcher_add_extended_desc_to_list
00023d24 g     F .text	00000060 altera_avalon_jtag_uart_write_fd
00021d44 g     F .text	00000028 altera_avalon_fifo_read_level
000239cc g     F .text	00000044 alt_avalon_i2c_int_raw_status_get
000257b0 g     F .text	000002c8 alt_msgdma_start_prefetcher_with_list_addr
00027508 g     O .rwdata	00000004 alt_errno
00025214 g     F .text	000000b8 alt_msgdma_construct_prefetcher_extended_mm_to_mm_descriptor
0002103c g     F .text	00000050 putc
00021130 g     F .text	00000080 .hidden __divsi3
00026d94 g       *ABS*	00000000 __CTOR_END__
00026d94 g       *ABS*	00000000 __flash_rodata_start
00026d94 g       *ABS*	00000000 __DTOR_LIST__
00021afc g     F .text	0000003c alt_irq_init
0002685c g     F .text	00000070 alt_release_fd
00025e64 g     F .text	0000003c alt_msgdma_standard_descriptor_sync_transfer
00026ab0 g     F .text	00000014 atexit
000210e0 g     F .text	00000050 _write_r
0002517c g     F .text	00000098 alt_msgdma_construct_prefetcher_extended_mm_to_st_descriptor
000274dc g     O .rwdata	00000004 _impure_ptr
000278b0 g     O .bss	00000004 alt_argc
000262e8 g     F .text	00000064 _do_dtors
00022b7c g     F .text	00000038 alt_avalon_i2c_master_target_get
00022a8c g     F .text	000000f0 alt_avalon_i2c_send_address
00020020 g       .exceptions	00000000 alt_irq_entry
000274f4 g     O .rwdata	00000008 alt_fs_list
00020020 g       *ABS*	00000000 __ram_exceptions_start
00023c60 g     F .text	00000064 alt_avalon_i2c_tfr_cmd_fifo_threshold_set
00021fe4 g     F .text	00000060 altera_avalon_fifo_write_other_info
000224b0 g     F .text	0000004c alt_avalon_i2c_disable
0002132c g     F .text	00000050 alt_ic_isr_register
0002750c g       *ABS*	00000000 _edata
000279c0 g       *ABS*	00000000 _end
00020224 g       *ABS*	00000000 __ram_exceptions_end
000224fc g     F .text	000000b0 alt_avalon_i2c_master_config_get
00021404 g     F .text	0000008c alt_ic_irq_disable
00026ac4 g     F .text	00000020 exit
00025554 g     F .text	00000110 alt_msgdma_prefetcher_set_std_list_own_by_hw_bits
000211b0 g     F .text	00000074 .hidden __modsi3
00021c74 g     F .text	0000003c altera_avalon_fifo_read_ienable
00028000 g       *ABS*	00000000 __alt_data_end
00020020 g     F .exceptions	00000000 alt_exception
00024cf4 g     F .text	000000a8 alt_msgdma_construct_extended_mm_to_mm_descriptor
0002270c g     F .text	000000fc alt_avalon_i2c_master_config_speed_set
000229a0 g     F .text	000000ec alt_avalon_i2c_cmd_write
00024bd4 g     F .text	00000090 alt_msgdma_construct_extended_st_to_mm_descriptor
00026d5c g     F .text	00000038 _exit
00021cb0 g     F .text	0000002c altera_avalon_fifo_read_almostfull
000274ec g     O .rwdata	00000008 alt_msgdma_list
000209e8 g     F .text	0000001c strlen
000266fc g     F .text	00000160 open
00021f2c g     F .text	0000006c altera_avalon_read_fifo
00021958 g     F .text	00000030 alt_putchar
000278a4 g     O .bss	00000004 stop
000263dc g     F .text	00000020 alt_icache_flush_all
000274e0 g     O .rwdata	00000004 alt_priority_mask
0002137c g     F .text	00000088 alt_ic_irq_enable
00020f7c g     F .text	00000018 __vfprintf_internal
00021e7c g     F .text	00000058 altera_avalon_fifo_write_almostempty
00026284 g     F .text	00000064 _do_ctors
00026070 g     F .text	000000dc close
00023c14 g     F .text	0000004c alt_avalon_i2c_tfr_cmd_fifo_threshold_get
0002162c g     F .text	00000084 alt_load
00022ea4 g     F .text	0000013c alt_avalon_i2c_master_rx



Disassembly of section .entry:

00020000 <__reset>:
   20000:	004000b4 	movhi	at,2
   20004:	08408914 	ori	at,at,548
   20008:	0800683a 	jmp	at
	...

Disassembly of section .exceptions:

00020020 <alt_exception>:
   20020:	deffed04 	addi	sp,sp,-76
   20024:	dfc00015 	stw	ra,0(sp)
   20028:	d8400215 	stw	at,8(sp)
   2002c:	d8800315 	stw	r2,12(sp)
   20030:	d8c00415 	stw	r3,16(sp)
   20034:	d9000515 	stw	r4,20(sp)
   20038:	d9400615 	stw	r5,24(sp)
   2003c:	d9800715 	stw	r6,28(sp)
   20040:	d9c00815 	stw	r7,32(sp)
   20044:	000b307a 	rdctl	r5,estatus
   20048:	da000915 	stw	r8,36(sp)
   2004c:	da400a15 	stw	r9,40(sp)
   20050:	da800b15 	stw	r10,44(sp)
   20054:	dac00c15 	stw	r11,48(sp)
   20058:	db000d15 	stw	r12,52(sp)
   2005c:	db400e15 	stw	r13,56(sp)
   20060:	db800f15 	stw	r14,60(sp)
   20064:	dbc01015 	stw	r15,64(sp)
   20068:	d9401115 	stw	r5,68(sp)
   2006c:	ebffff04 	addi	r15,ea,-4
   20070:	dbc01215 	stw	r15,72(sp)
   20074:	0009313a 	rdctl	r4,ipending
   20078:	2880004c 	andi	r2,r5,1
   2007c:	10000326 	beq	r2,zero,2008c <alt_exception+0x6c>
   20080:	20000226 	beq	r4,zero,2008c <alt_exception+0x6c>
   20084:	00200fc0 	call	200fc <alt_irq_handler>
   20088:	00000706 	br	200a8 <alt_exception+0x88>
   2008c:	df401215 	stw	ea,72(sp)
   20090:	e8bfff17 	ldw	r2,-4(ea)
   20094:	e93fff04 	addi	r4,ea,-4
   20098:	00201c40 	call	201c4 <alt_instruction_exception_entry>
   2009c:	1000021e 	bne	r2,zero,200a8 <alt_exception+0x88>
   200a0:	ebffff04 	addi	r15,ea,-4
   200a4:	dbc01215 	stw	r15,72(sp)
   200a8:	d9401117 	ldw	r5,68(sp)
   200ac:	df401217 	ldw	ea,72(sp)
   200b0:	dfc00017 	ldw	ra,0(sp)
   200b4:	2801707a 	wrctl	estatus,r5
   200b8:	d8400217 	ldw	at,8(sp)
   200bc:	d8800317 	ldw	r2,12(sp)
   200c0:	d8c00417 	ldw	r3,16(sp)
   200c4:	d9000517 	ldw	r4,20(sp)
   200c8:	d9400617 	ldw	r5,24(sp)
   200cc:	d9800717 	ldw	r6,28(sp)
   200d0:	d9c00817 	ldw	r7,32(sp)
   200d4:	da000917 	ldw	r8,36(sp)
   200d8:	da400a17 	ldw	r9,40(sp)
   200dc:	da800b17 	ldw	r10,44(sp)
   200e0:	dac00c17 	ldw	r11,48(sp)
   200e4:	db000d17 	ldw	r12,52(sp)
   200e8:	db400e17 	ldw	r13,56(sp)
   200ec:	db800f17 	ldw	r14,60(sp)
   200f0:	dbc01017 	ldw	r15,64(sp)
   200f4:	dec01304 	addi	sp,sp,76
   200f8:	ef80083a 	eret

000200fc <alt_irq_handler>:
   200fc:	defff904 	addi	sp,sp,-28
   20100:	dfc00615 	stw	ra,24(sp)
   20104:	df000515 	stw	fp,20(sp)
   20108:	df000504 	addi	fp,sp,20
   2010c:	0001883a 	nop
   20110:	0005313a 	rdctl	r2,ipending
   20114:	e0bffc15 	stw	r2,-16(fp)
   20118:	e0bffc17 	ldw	r2,-16(fp)
   2011c:	e0bfff15 	stw	r2,-4(fp)
   20120:	e03ffd15 	stw	zero,-12(fp)
   20124:	00800044 	movi	r2,1
   20128:	e0bffe15 	stw	r2,-8(fp)
   2012c:	e0ffff17 	ldw	r3,-4(fp)
   20130:	e0bffe17 	ldw	r2,-8(fp)
   20134:	1884703a 	and	r2,r3,r2
   20138:	10001126 	beq	r2,zero,20180 <alt_irq_handler+0x84>
   2013c:	e0bffd17 	ldw	r2,-12(fp)
   20140:	100690fa 	slli	r3,r2,3
   20144:	008000b4 	movhi	r2,2
   20148:	1885883a 	add	r2,r3,r2
   2014c:	10de3017 	ldw	r3,30912(r2)
   20150:	e0bffd17 	ldw	r2,-12(fp)
   20154:	100890fa 	slli	r4,r2,3
   20158:	008000b4 	movhi	r2,2
   2015c:	2085883a 	add	r2,r4,r2
   20160:	109e3117 	ldw	r2,30916(r2)
   20164:	1009883a 	mov	r4,r2
   20168:	183ee83a 	callr	r3
   2016c:	0001883a 	nop
   20170:	0005313a 	rdctl	r2,ipending
   20174:	e0bffb15 	stw	r2,-20(fp)
   20178:	e0bffb17 	ldw	r2,-20(fp)
   2017c:	00000706 	br	2019c <alt_irq_handler+0xa0>
   20180:	e0bffe17 	ldw	r2,-8(fp)
   20184:	1085883a 	add	r2,r2,r2
   20188:	e0bffe15 	stw	r2,-8(fp)
   2018c:	e0bffd17 	ldw	r2,-12(fp)
   20190:	10800044 	addi	r2,r2,1
   20194:	e0bffd15 	stw	r2,-12(fp)
   20198:	003fe406 	br	2012c <alt_irq_handler+0x30>
   2019c:	e0bfff15 	stw	r2,-4(fp)
   201a0:	e0bfff17 	ldw	r2,-4(fp)
   201a4:	103fde1e 	bne	r2,zero,20120 <alt_irq_handler+0x24>
   201a8:	0001883a 	nop
   201ac:	0001883a 	nop
   201b0:	e037883a 	mov	sp,fp
   201b4:	dfc00117 	ldw	ra,4(sp)
   201b8:	df000017 	ldw	fp,0(sp)
   201bc:	dec00204 	addi	sp,sp,8
   201c0:	f800283a 	ret

000201c4 <alt_instruction_exception_entry>:
   201c4:	defffb04 	addi	sp,sp,-20
   201c8:	dfc00415 	stw	ra,16(sp)
   201cc:	df000315 	stw	fp,12(sp)
   201d0:	df000304 	addi	fp,sp,12
   201d4:	e13ffd15 	stw	r4,-12(fp)
   201d8:	00bfffc4 	movi	r2,-1
   201dc:	e0bfff15 	stw	r2,-4(fp)
   201e0:	e03ffe15 	stw	zero,-8(fp)
   201e4:	d0a0f917 	ldw	r2,-31772(gp)
   201e8:	10000726 	beq	r2,zero,20208 <alt_instruction_exception_entry+0x44>
   201ec:	d0a0f917 	ldw	r2,-31772(gp)
   201f0:	e0ffff17 	ldw	r3,-4(fp)
   201f4:	e1bffe17 	ldw	r6,-8(fp)
   201f8:	e17ffd17 	ldw	r5,-12(fp)
   201fc:	1809883a 	mov	r4,r3
   20200:	103ee83a 	callr	r2
   20204:	00000206 	br	20210 <alt_instruction_exception_entry+0x4c>
   20208:	003da03a 	break	0
   2020c:	0005883a 	mov	r2,zero
   20210:	e037883a 	mov	sp,fp
   20214:	dfc00117 	ldw	ra,4(sp)
   20218:	df000017 	ldw	fp,0(sp)
   2021c:	dec00204 	addi	sp,sp,8
   20220:	f800283a 	ret

Disassembly of section .text:

00020224 <_start>:
   20224:	06c000b4 	movhi	sp,2
   20228:	dee00014 	ori	sp,sp,32768
   2022c:	068000b4 	movhi	gp,2
   20230:	d6bd3614 	ori	gp,gp,62680
   20234:	008000b4 	movhi	r2,2
   20238:	109e2914 	ori	r2,r2,30884
   2023c:	00c000b4 	movhi	r3,2
   20240:	18de7014 	ori	r3,r3,31168
   20244:	10c00326 	beq	r2,r3,20254 <_start+0x30>
   20248:	10000015 	stw	zero,0(r2)
   2024c:	10800104 	addi	r2,r2,4
   20250:	10fffd36 	bltu	r2,r3,20248 <_start+0x24>
   20254:	002162c0 	call	2162c <alt_load>
   20258:	00216b00 	call	216b0 <alt_main>

0002025c <alt_after_alt_main>:
   2025c:	003fff06 	br	2025c <alt_after_alt_main>

00020260 <fifo_callback>:
   20260:	defff804 	addi	sp,sp,-32
   20264:	dfc00715 	stw	ra,28(sp)
   20268:	df000615 	stw	fp,24(sp)
   2026c:	df000604 	addi	fp,sp,24
   20270:	e13ffa15 	stw	r4,-24(fp)
   20274:	e0bffa17 	ldw	r2,-24(fp)
   20278:	e0bfff15 	stw	r2,-4(fp)
   2027c:	0005303a 	rdctl	r2,status
   20280:	e0bffc15 	stw	r2,-16(fp)
   20284:	e0fffc17 	ldw	r3,-16(fp)
   20288:	00bfff84 	movi	r2,-2
   2028c:	1884703a 	and	r2,r3,r2
   20290:	1001703a 	wrctl	status,r2
   20294:	e0bffc17 	ldw	r2,-16(fp)
   20298:	e0bffe15 	stw	r2,-8(fp)
   2029c:	01400fc4 	movi	r5,63
   202a0:	e13fff17 	ldw	r4,-4(fp)
   202a4:	0021c380 	call	21c38 <altera_avalon_fifo_read_status>
   202a8:	e0bffd15 	stw	r2,-12(fp)
   202ac:	e0bffd17 	ldw	r2,-12(fp)
   202b0:	1080014c 	andi	r2,r2,5
   202b4:	10000226 	beq	r2,zero,202c0 <fifo_callback+0x60>
   202b8:	00bfffc4 	movi	r2,-1
   202bc:	d0a0f315 	stw	r2,-31796(gp)
   202c0:	e0bffd17 	ldw	r2,-12(fp)
   202c4:	100b883a 	mov	r5,r2
   202c8:	e13fff17 	ldw	r4,-4(fp)
   202cc:	0021d6c0 	call	21d6c <altera_avalon_fifo_clear_event>
   202d0:	e0bffe17 	ldw	r2,-8(fp)
   202d4:	e0bffb15 	stw	r2,-20(fp)
   202d8:	e0bffb17 	ldw	r2,-20(fp)
   202dc:	1001703a 	wrctl	status,r2
   202e0:	0001883a 	nop
   202e4:	0001883a 	nop
   202e8:	e037883a 	mov	sp,fp
   202ec:	dfc00117 	ldw	ra,4(sp)
   202f0:	df000017 	ldw	fp,0(sp)
   202f4:	dec00204 	addi	sp,sp,8
   202f8:	f800283a 	ret

000202fc <i2c_callback>:
   202fc:	defff804 	addi	sp,sp,-32
   20300:	dfc00715 	stw	ra,28(sp)
   20304:	df000615 	stw	fp,24(sp)
   20308:	df000604 	addi	fp,sp,24
   2030c:	e13ffa15 	stw	r4,-24(fp)
   20310:	e0bffa17 	ldw	r2,-24(fp)
   20314:	e0bfff15 	stw	r2,-4(fp)
   20318:	0005303a 	rdctl	r2,status
   2031c:	e0bffc15 	stw	r2,-16(fp)
   20320:	e0fffc17 	ldw	r3,-16(fp)
   20324:	00bfff84 	movi	r2,-2
   20328:	1884703a 	and	r2,r3,r2
   2032c:	1001703a 	wrctl	status,r2
   20330:	e0bffc17 	ldw	r2,-16(fp)
   20334:	e0bffe15 	stw	r2,-8(fp)
   20338:	e0bffb04 	addi	r2,fp,-20
   2033c:	100b883a 	mov	r5,r2
   20340:	e13fff17 	ldw	r4,-4(fp)
   20344:	00239740 	call	23974 <alt_avalon_i2c_int_status_get>
   20348:	e0bffb17 	ldw	r2,-20(fp)
   2034c:	100b883a 	mov	r5,r2
   20350:	010000b4 	movhi	r4,2
   20354:	211b6504 	addi	r4,r4,28052
   20358:	00208f00 	call	208f0 <printf>
   2035c:	014007c4 	movi	r5,31
   20360:	e13fff17 	ldw	r4,-4(fp)
   20364:	0023a4c0 	call	23a4c <alt_avalon_i2c_int_disable>
   20368:	01400704 	movi	r5,28
   2036c:	e13fff17 	ldw	r4,-4(fp)
   20370:	0023a100 	call	23a10 <alt_avalon_i2c_int_clear>
   20374:	e13fff17 	ldw	r4,-4(fp)
   20378:	00224180 	call	22418 <alt_avalon_i2c_enable>
   2037c:	e0bffe17 	ldw	r2,-8(fp)
   20380:	e0bffd15 	stw	r2,-12(fp)
   20384:	e0bffd17 	ldw	r2,-12(fp)
   20388:	1001703a 	wrctl	status,r2
   2038c:	0001883a 	nop
   20390:	0001883a 	nop
   20394:	e037883a 	mov	sp,fp
   20398:	dfc00117 	ldw	ra,4(sp)
   2039c:	df000017 	ldw	fp,0(sp)
   203a0:	dec00204 	addi	sp,sp,8
   203a4:	f800283a 	ret

000203a8 <main>:
   203a8:	deffe004 	addi	sp,sp,-128
   203ac:	dfc01f15 	stw	ra,124(sp)
   203b0:	df001e15 	stw	fp,120(sp)
   203b4:	dc001d15 	stw	r16,116(sp)
   203b8:	df001e04 	addi	fp,sp,120
   203bc:	e0bfff04 	addi	r2,fp,-4
   203c0:	10bfe404 	addi	r2,r2,-112
   203c4:	108003c4 	addi	r2,r2,15
   203c8:	1004d13a 	srli	r2,r2,4
   203cc:	1020913a 	slli	r16,r2,4
   203d0:	010000b4 	movhi	r4,2
   203d4:	211b6d04 	addi	r4,r4,28084
   203d8:	002172c0 	call	2172c <alt_printf>
   203dc:	00a00174 	movhi	r2,32773
   203e0:	10a00004 	addi	r2,r2,-32768
   203e4:	e0bffd15 	stw	r2,-12(fp)
   203e8:	00aa8084 	movi	r2,-22014
   203ec:	e0bff30d 	sth	r2,-52(fp)
   203f0:	e03ff38d 	sth	zero,-50(fp)
   203f4:	00aac004 	movi	r2,-21760
   203f8:	e0bff40d 	sth	r2,-48(fp)
   203fc:	00af0004 	movi	r2,-17408
   20400:	e0bff48d 	sth	r2,-46(fp)
   20404:	00b34004 	movi	r2,-13056
   20408:	e0bff50d 	sth	r2,-44(fp)
   2040c:	00b78044 	movi	r2,-8703
   20410:	e0bff58d 	sth	r2,-42(fp)
   20414:	00aa8084 	movi	r2,-22014
   20418:	e0bfef8d 	sth	r2,-66(fp)
   2041c:	00800044 	movi	r2,1
   20420:	e0bff00d 	sth	r2,-64(fp)
   20424:	00aac084 	movi	r2,-21758
   20428:	e0bff08d 	sth	r2,-62(fp)
   2042c:	e03ff10d 	sth	zero,-60(fp)
   20430:	e03ff18d 	sth	zero,-58(fp)
   20434:	e03ff20d 	sth	zero,-56(fp)
   20438:	00800044 	movi	r2,1
   2043c:	e0bff28d 	sth	r2,-54(fp)
   20440:	01804004 	movi	r6,256
   20444:	01403fc4 	movi	r5,255
   20448:	e13ffd17 	ldw	r4,-12(fp)
   2044c:	00208940 	call	20894 <memset>
   20450:	010000b4 	movhi	r4,2
   20454:	211b7304 	addi	r4,r4,28108
   20458:	00223d80 	call	223d8 <alt_avalon_i2c_open>
   2045c:	e0bffc15 	stw	r2,-16(fp)
   20460:	e0bffc17 	ldw	r2,-16(fp)
   20464:	1000051e 	bne	r2,zero,2047c <main+0xd4>
   20468:	010000b4 	movhi	r4,2
   2046c:	211b7604 	addi	r4,r4,28120
   20470:	00209d80 	call	209d8 <puts>
   20474:	0005883a 	mov	r2,zero
   20478:	0000c406 	br	2078c <main+0x3e4>
   2047c:	e13ffc17 	ldw	r4,-16(fp)
   20480:	00222ec0 	call	222ec <alt_avalon_i2c_init>
   20484:	e0bffc17 	ldw	r2,-16(fp)
   20488:	10c00417 	ldw	r3,16(r2)
   2048c:	e0bffc17 	ldw	r2,-16(fp)
   20490:	10800517 	ldw	r2,20(r2)
   20494:	d8000015 	stw	zero,0(sp)
   20498:	e1fffc17 	ldw	r7,-16(fp)
   2049c:	018000b4 	movhi	r6,2
   204a0:	3180bf04 	addi	r6,r6,764
   204a4:	100b883a 	mov	r5,r2
   204a8:	1809883a 	mov	r4,r3
   204ac:	002132c0 	call	2132c <alt_ic_isr_register>
   204b0:	01400704 	movi	r5,28
   204b4:	e13ffc17 	ldw	r4,-16(fp)
   204b8:	0023ab80 	call	23ab8 <alt_avalon_i2c_int_enable>
   204bc:	e13ffc17 	ldw	r4,-16(fp)
   204c0:	00224180 	call	22418 <alt_avalon_i2c_enable>
   204c4:	e0bffb15 	stw	r2,-20(fp)
   204c8:	e0bffb17 	ldw	r2,-20(fp)
   204cc:	10000526 	beq	r2,zero,204e4 <main+0x13c>
   204d0:	010000b4 	movhi	r4,2
   204d4:	211b7d04 	addi	r4,r4,28148
   204d8:	00209d80 	call	209d8 <puts>
   204dc:	0005883a 	mov	r2,zero
   204e0:	0000aa06 	br	2078c <main+0x3e4>
   204e4:	01c00284 	movi	r7,10
   204e8:	01800044 	movi	r6,1
   204ec:	01400144 	movi	r5,5
   204f0:	01000134 	movhi	r4,4
   204f4:	211c0004 	addi	r4,r4,28672
   204f8:	0021ba00 	call	21ba0 <altera_avalon_fifo_init>
   204fc:	e0bffa15 	stw	r2,-24(fp)
   20500:	e0bffa17 	ldw	r2,-24(fp)
   20504:	10000626 	beq	r2,zero,20520 <main+0x178>
   20508:	e17ffa17 	ldw	r5,-24(fp)
   2050c:	010000b4 	movhi	r4,2
   20510:	211b8404 	addi	r4,r4,28176
   20514:	00208f00 	call	208f0 <printf>
   20518:	0005883a 	mov	r2,zero
   2051c:	00009b06 	br	2078c <main+0x3e4>
   20520:	d8000015 	stw	zero,0(sp)
   20524:	01c00134 	movhi	r7,4
   20528:	39dc0004 	addi	r7,r7,28672
   2052c:	018000b4 	movhi	r6,2
   20530:	31809804 	addi	r6,r6,608
   20534:	000b883a 	mov	r5,zero
   20538:	0009883a 	mov	r4,zero
   2053c:	002132c0 	call	2132c <alt_ic_isr_register>
   20540:	010000b4 	movhi	r4,2
   20544:	211b8b04 	addi	r4,r4,28204
   20548:	0025bd80 	call	25bd8 <alt_msgdma_open>
   2054c:	e0bff915 	stw	r2,-28(fp)
   20550:	e0bff917 	ldw	r2,-28(fp)
   20554:	1000051e 	bne	r2,zero,2056c <main+0x1c4>
   20558:	010000b4 	movhi	r4,2
   2055c:	211b9004 	addi	r4,r4,28224
   20560:	00209d80 	call	209d8 <puts>
   20564:	0005883a 	mov	r2,zero
   20568:	00008806 	br	2078c <main+0x3e4>
   2056c:	00800044 	movi	r2,1
   20570:	e0bffe15 	stw	r2,-8(fp)
   20574:	002130c0 	call	2130c <alt_dcache_flush_all>
   20578:	e13ff304 	addi	r4,fp,-52
   2057c:	80c00404 	addi	r3,r16,16
   20580:	00900004 	movi	r2,16384
   20584:	d8800015 	stw	r2,0(sp)
   20588:	01c00304 	movi	r7,12
   2058c:	200d883a 	mov	r6,r4
   20590:	180b883a 	mov	r5,r3
   20594:	e13ff917 	ldw	r4,-28(fp)
   20598:	0024b240 	call	24b24 <alt_msgdma_construct_standard_mm_to_st_descriptor>
   2059c:	e0bff815 	stw	r2,-32(fp)
   205a0:	e0bff817 	ldw	r2,-32(fp)
   205a4:	10000626 	beq	r2,zero,205c0 <main+0x218>
   205a8:	e17ff817 	ldw	r5,-32(fp)
   205ac:	010000b4 	movhi	r4,2
   205b0:	211b9704 	addi	r4,r4,28252
   205b4:	00208f00 	call	208f0 <printf>
   205b8:	0005883a 	mov	r2,zero
   205bc:	00007306 	br	2078c <main+0x3e4>
   205c0:	80800404 	addi	r2,r16,16
   205c4:	100b883a 	mov	r5,r2
   205c8:	e13ff917 	ldw	r4,-28(fp)
   205cc:	0025e640 	call	25e64 <alt_msgdma_standard_descriptor_sync_transfer>
   205d0:	e0bff815 	stw	r2,-32(fp)
   205d4:	e0bff817 	ldw	r2,-32(fp)
   205d8:	10000626 	beq	r2,zero,205f4 <main+0x24c>
   205dc:	e17ff817 	ldw	r5,-32(fp)
   205e0:	010000b4 	movhi	r4,2
   205e4:	211b9f04 	addi	r4,r4,28284
   205e8:	00208f00 	call	208f0 <printf>
   205ec:	0005883a 	mov	r2,zero
   205f0:	00006606 	br	2078c <main+0x3e4>
   205f4:	e0ffef84 	addi	r3,fp,-66
   205f8:	00900004 	movi	r2,16384
   205fc:	d8800015 	stw	r2,0(sp)
   20600:	01c00384 	movi	r7,14
   20604:	180d883a 	mov	r6,r3
   20608:	800b883a 	mov	r5,r16
   2060c:	e13ff917 	ldw	r4,-28(fp)
   20610:	0024b240 	call	24b24 <alt_msgdma_construct_standard_mm_to_st_descriptor>
   20614:	e0bff815 	stw	r2,-32(fp)
   20618:	e0bff817 	ldw	r2,-32(fp)
   2061c:	10000626 	beq	r2,zero,20638 <main+0x290>
   20620:	e17ff817 	ldw	r5,-32(fp)
   20624:	010000b4 	movhi	r4,2
   20628:	211b9704 	addi	r4,r4,28252
   2062c:	00208f00 	call	208f0 <printf>
   20630:	0005883a 	mov	r2,zero
   20634:	00005506 	br	2078c <main+0x3e4>
   20638:	800b883a 	mov	r5,r16
   2063c:	e13ff917 	ldw	r4,-28(fp)
   20640:	0025e640 	call	25e64 <alt_msgdma_standard_descriptor_sync_transfer>
   20644:	e0bff815 	stw	r2,-32(fp)
   20648:	e0bff817 	ldw	r2,-32(fp)
   2064c:	10000626 	beq	r2,zero,20668 <main+0x2c0>
   20650:	e17ff817 	ldw	r5,-32(fp)
   20654:	010000b4 	movhi	r4,2
   20658:	211b9f04 	addi	r4,r4,28284
   2065c:	00208f00 	call	208f0 <printf>
   20660:	0005883a 	mov	r2,zero
   20664:	00004906 	br	2078c <main+0x3e4>
   20668:	e0bffe17 	ldw	r2,-8(fp)
   2066c:	1004913a 	slli	r2,r2,4
   20670:	e0bff3c5 	stb	r2,-49(fp)
   20674:	e0bffe17 	ldw	r2,-8(fp)
   20678:	10800044 	addi	r2,r2,1
   2067c:	e0bff445 	stb	r2,-47(fp)
   20680:	e0bffe17 	ldw	r2,-8(fp)
   20684:	10800084 	addi	r2,r2,2
   20688:	e0bff4c5 	stb	r2,-45(fp)
   2068c:	e0bffe17 	ldw	r2,-8(fp)
   20690:	108000c4 	addi	r2,r2,3
   20694:	e0bff545 	stb	r2,-43(fp)
   20698:	e0bffe17 	ldw	r2,-8(fp)
   2069c:	10800104 	addi	r2,r2,4
   206a0:	e0bff5c5 	stb	r2,-41(fp)
   206a4:	e0bffe17 	ldw	r2,-8(fp)
   206a8:	1004913a 	slli	r2,r2,4
   206ac:	e0bff045 	stb	r2,-63(fp)
   206b0:	d0a0f317 	ldw	r2,-31796(gp)
   206b4:	10bfffd8 	cmpnei	r2,r2,-1
   206b8:	10000426 	beq	r2,zero,206cc <main+0x324>
   206bc:	e0bffe17 	ldw	r2,-8(fp)
   206c0:	10800044 	addi	r2,r2,1
   206c4:	e0bffe15 	stw	r2,-8(fp)
   206c8:	003faa06 	br	20574 <main+0x1cc>
   206cc:	0001883a 	nop
   206d0:	01000134 	movhi	r4,4
   206d4:	211c0004 	addi	r4,r4,28672
   206d8:	0021d440 	call	21d44 <altera_avalon_fifo_read_level>
   206dc:	e0bff715 	stw	r2,-36(fp)
   206e0:	e17ff717 	ldw	r5,-36(fp)
   206e4:	010000b4 	movhi	r4,2
   206e8:	211ba704 	addi	r4,r4,28316
   206ec:	00208f00 	call	208f0 <printf>
   206f0:	010000b4 	movhi	r4,2
   206f4:	211bab04 	addi	r4,r4,28332
   206f8:	00208f00 	call	208f0 <printf>
   206fc:	e03ffe15 	stw	zero,-8(fp)
   20700:	00000f06 	br	20740 <main+0x398>
   20704:	e0bfee04 	addi	r2,fp,-72
   20708:	100d883a 	mov	r6,r2
   2070c:	01400134 	movhi	r5,4
   20710:	295c0004 	addi	r5,r5,28672
   20714:	01000134 	movhi	r4,4
   20718:	21180004 	addi	r4,r4,24576
   2071c:	0021f2c0 	call	21f2c <altera_avalon_read_fifo>
   20720:	e0bfee17 	ldw	r2,-72(fp)
   20724:	100b883a 	mov	r5,r2
   20728:	010000b4 	movhi	r4,2
   2072c:	211bae04 	addi	r4,r4,28344
   20730:	00208f00 	call	208f0 <printf>
   20734:	e0bffe17 	ldw	r2,-8(fp)
   20738:	10800044 	addi	r2,r2,1
   2073c:	e0bffe15 	stw	r2,-8(fp)
   20740:	e0fffe17 	ldw	r3,-8(fp)
   20744:	e0bff717 	ldw	r2,-36(fp)
   20748:	18bfee16 	blt	r3,r2,20704 <main+0x35c>
   2074c:	010000b4 	movhi	r4,2
   20750:	211bb004 	addi	r4,r4,28352
   20754:	00208f00 	call	208f0 <printf>
   20758:	01404004 	movi	r5,256
   2075c:	e13ffd17 	ldw	r4,-12(fp)
   20760:	00207a40 	call	207a4 <dump>
   20764:	00800134 	movhi	r2,4
   20768:	10840004 	addi	r2,r2,4096
   2076c:	10800003 	ldbu	r2,0(r2)
   20770:	10803fcc 	andi	r2,r2,255
   20774:	e0bff615 	stw	r2,-40(fp)
   20778:	00800134 	movhi	r2,4
   2077c:	10840404 	addi	r2,r2,4112
   20780:	e0fff617 	ldw	r3,-40(fp)
   20784:	10c00005 	stb	r3,0(r2)
   20788:	003ff606 	br	20764 <main+0x3bc>
   2078c:	e6ffff04 	addi	sp,fp,-4
   20790:	dfc00217 	ldw	ra,8(sp)
   20794:	df000117 	ldw	fp,4(sp)
   20798:	dc000017 	ldw	r16,0(sp)
   2079c:	dec00304 	addi	sp,sp,12
   207a0:	f800283a 	ret

000207a4 <dump>:
   207a4:	defffa04 	addi	sp,sp,-24
   207a8:	dfc00515 	stw	ra,20(sp)
   207ac:	df000415 	stw	fp,16(sp)
   207b0:	df000404 	addi	fp,sp,16
   207b4:	e13ffd15 	stw	r4,-12(fp)
   207b8:	e17ffc15 	stw	r5,-16(fp)
   207bc:	002130c0 	call	2130c <alt_dcache_flush_all>
   207c0:	010000b4 	movhi	r4,2
   207c4:	211bb704 	addi	r4,r4,28380
   207c8:	00208f00 	call	208f0 <printf>
   207cc:	e03fff15 	stw	zero,-4(fp)
   207d0:	00002506 	br	20868 <dump+0xc4>
   207d4:	e0bfff17 	ldw	r2,-4(fp)
   207d8:	e0fffd17 	ldw	r3,-12(fp)
   207dc:	1885883a 	add	r2,r3,r2
   207e0:	10800003 	ldbu	r2,0(r2)
   207e4:	e0bffec5 	stb	r2,-5(fp)
   207e8:	e0ffff17 	ldw	r3,-4(fp)
   207ec:	00a00034 	movhi	r2,32768
   207f0:	108003c4 	addi	r2,r2,15
   207f4:	1884703a 	and	r2,r3,r2
   207f8:	1000040e 	bge	r2,zero,2080c <dump+0x68>
   207fc:	10bfffc4 	addi	r2,r2,-1
   20800:	00fffc04 	movi	r3,-16
   20804:	10c4b03a 	or	r2,r2,r3
   20808:	10800044 	addi	r2,r2,1
   2080c:	108003d8 	cmpnei	r2,r2,15
   20810:	10000d1e 	bne	r2,zero,20848 <dump+0xa4>
   20814:	e0bffc17 	ldw	r2,-16(fp)
   20818:	10bfffc4 	addi	r2,r2,-1
   2081c:	e0ffff17 	ldw	r3,-4(fp)
   20820:	1880090e 	bge	r3,r2,20848 <dump+0xa4>
   20824:	e0fffec3 	ldbu	r3,-5(fp)
   20828:	e0bfff17 	ldw	r2,-4(fp)
   2082c:	10800044 	addi	r2,r2,1
   20830:	100d883a 	mov	r6,r2
   20834:	180b883a 	mov	r5,r3
   20838:	010000b4 	movhi	r4,2
   2083c:	211bb904 	addi	r4,r4,28388
   20840:	00208f00 	call	208f0 <printf>
   20844:	00000506 	br	2085c <dump+0xb8>
   20848:	e0bffec3 	ldbu	r2,-5(fp)
   2084c:	100b883a 	mov	r5,r2
   20850:	010000b4 	movhi	r4,2
   20854:	211bbd04 	addi	r4,r4,28404
   20858:	00208f00 	call	208f0 <printf>
   2085c:	e0bfff17 	ldw	r2,-4(fp)
   20860:	10800044 	addi	r2,r2,1
   20864:	e0bfff15 	stw	r2,-4(fp)
   20868:	e0ffff17 	ldw	r3,-4(fp)
   2086c:	e0bffc17 	ldw	r2,-16(fp)
   20870:	18bfd816 	blt	r3,r2,207d4 <dump+0x30>
   20874:	01000284 	movi	r4,10
   20878:	00209400 	call	20940 <putchar>
   2087c:	0001883a 	nop
   20880:	e037883a 	mov	sp,fp
   20884:	dfc00117 	ldw	ra,4(sp)
   20888:	df000017 	ldw	fp,0(sp)
   2088c:	dec00204 	addi	sp,sp,8
   20890:	f800283a 	ret

00020894 <memset>:
   20894:	2005883a 	mov	r2,r4
   20898:	218d883a 	add	r6,r4,r6
   2089c:	2007883a 	mov	r3,r4
   208a0:	1980011e 	bne	r3,r6,208a8 <memset+0x14>
   208a4:	f800283a 	ret
   208a8:	18c00044 	addi	r3,r3,1
   208ac:	197fffc5 	stb	r5,-1(r3)
   208b0:	003ffb06 	br	208a0 <memset+0xc>

000208b4 <_printf_r>:
   208b4:	defffd04 	addi	sp,sp,-12
   208b8:	dfc00015 	stw	ra,0(sp)
   208bc:	d9800115 	stw	r6,4(sp)
   208c0:	d9c00215 	stw	r7,8(sp)
   208c4:	21800217 	ldw	r6,8(r4)
   208c8:	00c000b4 	movhi	r3,2
   208cc:	18c3e504 	addi	r3,r3,3988
   208d0:	30c00115 	stw	r3,4(r6)
   208d4:	280d883a 	mov	r6,r5
   208d8:	21400217 	ldw	r5,8(r4)
   208dc:	d9c00104 	addi	r7,sp,4
   208e0:	0020a700 	call	20a70 <___vfprintf_internal_r>
   208e4:	dfc00017 	ldw	ra,0(sp)
   208e8:	dec00304 	addi	sp,sp,12
   208ec:	f800283a 	ret

000208f0 <printf>:
   208f0:	defffc04 	addi	sp,sp,-16
   208f4:	dfc00015 	stw	ra,0(sp)
   208f8:	d9400115 	stw	r5,4(sp)
   208fc:	d9800215 	stw	r6,8(sp)
   20900:	d9c00315 	stw	r7,12(sp)
   20904:	008000b4 	movhi	r2,2
   20908:	10dd3717 	ldw	r3,29916(r2)
   2090c:	008000b4 	movhi	r2,2
   20910:	1083e504 	addi	r2,r2,3988
   20914:	19400217 	ldw	r5,8(r3)
   20918:	d9800104 	addi	r6,sp,4
   2091c:	28800115 	stw	r2,4(r5)
   20920:	200b883a 	mov	r5,r4
   20924:	19000217 	ldw	r4,8(r3)
   20928:	0020f7c0 	call	20f7c <__vfprintf_internal>
   2092c:	dfc00017 	ldw	ra,0(sp)
   20930:	dec00404 	addi	sp,sp,16
   20934:	f800283a 	ret

00020938 <_putchar_r>:
   20938:	21800217 	ldw	r6,8(r4)
   2093c:	002108c1 	jmpi	2108c <_putc_r>

00020940 <putchar>:
   20940:	008000b4 	movhi	r2,2
   20944:	109d3717 	ldw	r2,29916(r2)
   20948:	200b883a 	mov	r5,r4
   2094c:	11800217 	ldw	r6,8(r2)
   20950:	1009883a 	mov	r4,r2
   20954:	002108c1 	jmpi	2108c <_putc_r>

00020958 <_puts_r>:
   20958:	defffd04 	addi	sp,sp,-12
   2095c:	dc000015 	stw	r16,0(sp)
   20960:	2021883a 	mov	r16,r4
   20964:	2809883a 	mov	r4,r5
   20968:	dfc00215 	stw	ra,8(sp)
   2096c:	dc400115 	stw	r17,4(sp)
   20970:	2823883a 	mov	r17,r5
   20974:	00209e80 	call	209e8 <strlen>
   20978:	81400217 	ldw	r5,8(r16)
   2097c:	00c000b4 	movhi	r3,2
   20980:	18c3e504 	addi	r3,r3,3988
   20984:	28c00115 	stw	r3,4(r5)
   20988:	100f883a 	mov	r7,r2
   2098c:	880d883a 	mov	r6,r17
   20990:	8009883a 	mov	r4,r16
   20994:	0020f940 	call	20f94 <__sfvwrite_small_dev>
   20998:	10ffffe0 	cmpeqi	r3,r2,-1
   2099c:	1800091e 	bne	r3,zero,209c4 <_puts_r+0x6c>
   209a0:	81400217 	ldw	r5,8(r16)
   209a4:	018000b4 	movhi	r6,2
   209a8:	01c00044 	movi	r7,1
   209ac:	28800117 	ldw	r2,4(r5)
   209b0:	319bbf04 	addi	r6,r6,28412
   209b4:	8009883a 	mov	r4,r16
   209b8:	103ee83a 	callr	r2
   209bc:	10bfffe0 	cmpeqi	r2,r2,-1
   209c0:	0085c83a 	sub	r2,zero,r2
   209c4:	dfc00217 	ldw	ra,8(sp)
   209c8:	dc400117 	ldw	r17,4(sp)
   209cc:	dc000017 	ldw	r16,0(sp)
   209d0:	dec00304 	addi	sp,sp,12
   209d4:	f800283a 	ret

000209d8 <puts>:
   209d8:	008000b4 	movhi	r2,2
   209dc:	200b883a 	mov	r5,r4
   209e0:	111d3717 	ldw	r4,29916(r2)
   209e4:	00209581 	jmpi	20958 <_puts_r>

000209e8 <strlen>:
   209e8:	2005883a 	mov	r2,r4
   209ec:	10c00007 	ldb	r3,0(r2)
   209f0:	1800021e 	bne	r3,zero,209fc <strlen+0x14>
   209f4:	1105c83a 	sub	r2,r2,r4
   209f8:	f800283a 	ret
   209fc:	10800044 	addi	r2,r2,1
   20a00:	003ffa06 	br	209ec <strlen+0x4>

00020a04 <print_repeat>:
   20a04:	defffb04 	addi	sp,sp,-20
   20a08:	dc800315 	stw	r18,12(sp)
   20a0c:	dc400215 	stw	r17,8(sp)
   20a10:	dc000115 	stw	r16,4(sp)
   20a14:	dfc00415 	stw	ra,16(sp)
   20a18:	2025883a 	mov	r18,r4
   20a1c:	2823883a 	mov	r17,r5
   20a20:	d9800005 	stb	r6,0(sp)
   20a24:	3821883a 	mov	r16,r7
   20a28:	04000716 	blt	zero,r16,20a48 <print_repeat+0x44>
   20a2c:	0005883a 	mov	r2,zero
   20a30:	dfc00417 	ldw	ra,16(sp)
   20a34:	dc800317 	ldw	r18,12(sp)
   20a38:	dc400217 	ldw	r17,8(sp)
   20a3c:	dc000117 	ldw	r16,4(sp)
   20a40:	dec00504 	addi	sp,sp,20
   20a44:	f800283a 	ret
   20a48:	88800117 	ldw	r2,4(r17)
   20a4c:	01c00044 	movi	r7,1
   20a50:	d80d883a 	mov	r6,sp
   20a54:	880b883a 	mov	r5,r17
   20a58:	9009883a 	mov	r4,r18
   20a5c:	103ee83a 	callr	r2
   20a60:	843fffc4 	addi	r16,r16,-1
   20a64:	103ff026 	beq	r2,zero,20a28 <print_repeat+0x24>
   20a68:	00bfffc4 	movi	r2,-1
   20a6c:	003ff006 	br	20a30 <print_repeat+0x2c>

00020a70 <___vfprintf_internal_r>:
   20a70:	deffe604 	addi	sp,sp,-104
   20a74:	df001815 	stw	fp,96(sp)
   20a78:	ddc01715 	stw	r23,92(sp)
   20a7c:	dd801615 	stw	r22,88(sp)
   20a80:	dd001415 	stw	r20,80(sp)
   20a84:	dcc01315 	stw	r19,76(sp)
   20a88:	dc801215 	stw	r18,72(sp)
   20a8c:	dc401115 	stw	r17,68(sp)
   20a90:	dc001015 	stw	r16,64(sp)
   20a94:	dfc01915 	stw	ra,100(sp)
   20a98:	dd401515 	stw	r21,84(sp)
   20a9c:	2021883a 	mov	r16,r4
   20aa0:	282f883a 	mov	r23,r5
   20aa4:	d9800515 	stw	r6,20(sp)
   20aa8:	3839883a 	mov	fp,r7
   20aac:	002d883a 	mov	r22,zero
   20ab0:	d8000215 	stw	zero,8(sp)
   20ab4:	0027883a 	mov	r19,zero
   20ab8:	0029883a 	mov	r20,zero
   20abc:	0025883a 	mov	r18,zero
   20ac0:	0023883a 	mov	r17,zero
   20ac4:	d8000115 	stw	zero,4(sp)
   20ac8:	d8000015 	stw	zero,0(sp)
   20acc:	0005883a 	mov	r2,zero
   20ad0:	00000206 	br	20adc <___vfprintf_internal_r+0x6c>
   20ad4:	114000e0 	cmpeqi	r5,r2,3
   20ad8:	28003f1e 	bne	r5,zero,20bd8 <___vfprintf_internal_r+0x168>
   20adc:	d8c00517 	ldw	r3,20(sp)
   20ae0:	19000003 	ldbu	r4,0(r3)
   20ae4:	18c00044 	addi	r3,r3,1
   20ae8:	d8c00515 	stw	r3,20(sp)
   20aec:	21803fcc 	andi	r6,r4,255
   20af0:	3180201c 	xori	r6,r6,128
   20af4:	31bfe004 	addi	r6,r6,-128
   20af8:	30001426 	beq	r6,zero,20b4c <___vfprintf_internal_r+0xdc>
   20afc:	114000a0 	cmpeqi	r5,r2,2
   20b00:	2800231e 	bne	r5,zero,20b90 <___vfprintf_internal_r+0x120>
   20b04:	114000c8 	cmpgei	r5,r2,3
   20b08:	283ff21e 	bne	r5,zero,20ad4 <___vfprintf_internal_r+0x64>
   20b0c:	10000426 	beq	r2,zero,20b20 <___vfprintf_internal_r+0xb0>
   20b10:	10800060 	cmpeqi	r2,r2,1
   20b14:	10001a1e 	bne	r2,zero,20b80 <___vfprintf_internal_r+0x110>
   20b18:	00800084 	movi	r2,2
   20b1c:	003fef06 	br	20adc <___vfprintf_internal_r+0x6c>
   20b20:	31800960 	cmpeqi	r6,r6,37
   20b24:	3000fe1e 	bne	r6,zero,20f20 <___vfprintf_internal_r+0x4b0>
   20b28:	b8800117 	ldw	r2,4(r23)
   20b2c:	d9000805 	stb	r4,32(sp)
   20b30:	01c00044 	movi	r7,1
   20b34:	d9800804 	addi	r6,sp,32
   20b38:	b80b883a 	mov	r5,r23
   20b3c:	8009883a 	mov	r4,r16
   20b40:	103ee83a 	callr	r2
   20b44:	10001d26 	beq	r2,zero,20bbc <___vfprintf_internal_r+0x14c>
   20b48:	05bfffc4 	movi	r22,-1
   20b4c:	b005883a 	mov	r2,r22
   20b50:	dfc01917 	ldw	ra,100(sp)
   20b54:	df001817 	ldw	fp,96(sp)
   20b58:	ddc01717 	ldw	r23,92(sp)
   20b5c:	dd801617 	ldw	r22,88(sp)
   20b60:	dd401517 	ldw	r21,84(sp)
   20b64:	dd001417 	ldw	r20,80(sp)
   20b68:	dcc01317 	ldw	r19,76(sp)
   20b6c:	dc801217 	ldw	r18,72(sp)
   20b70:	dc401117 	ldw	r17,68(sp)
   20b74:	dc001017 	ldw	r16,64(sp)
   20b78:	dec01a04 	addi	sp,sp,104
   20b7c:	f800283a 	ret
   20b80:	30800c20 	cmpeqi	r2,r6,48
   20b84:	1000ef1e 	bne	r2,zero,20f44 <___vfprintf_internal_r+0x4d4>
   20b88:	30800958 	cmpnei	r2,r6,37
   20b8c:	103fe626 	beq	r2,zero,20b28 <___vfprintf_internal_r+0xb8>
   20b90:	217ff404 	addi	r5,r4,-48
   20b94:	29403fcc 	andi	r5,r5,255
   20b98:	288002a8 	cmpgeui	r2,r5,10
   20b9c:	10000b1e 	bne	r2,zero,20bcc <___vfprintf_internal_r+0x15c>
   20ba0:	88bfffe0 	cmpeqi	r2,r17,-1
   20ba4:	1000071e 	bne	r2,zero,20bc4 <___vfprintf_internal_r+0x154>
   20ba8:	880490ba 	slli	r2,r17,2
   20bac:	1463883a 	add	r17,r2,r17
   20bb0:	8822907a 	slli	r17,r17,1
   20bb4:	2c63883a 	add	r17,r5,r17
   20bb8:	003fd706 	br	20b18 <___vfprintf_internal_r+0xa8>
   20bbc:	b5800044 	addi	r22,r22,1
   20bc0:	003fc606 	br	20adc <___vfprintf_internal_r+0x6c>
   20bc4:	0023883a 	mov	r17,zero
   20bc8:	003ffa06 	br	20bb4 <___vfprintf_internal_r+0x144>
   20bcc:	30800ba0 	cmpeqi	r2,r6,46
   20bd0:	1000e11e 	bne	r2,zero,20f58 <___vfprintf_internal_r+0x4e8>
   20bd4:	00800084 	movi	r2,2
   20bd8:	213ff404 	addi	r4,r4,-48
   20bdc:	21003fcc 	andi	r4,r4,255
   20be0:	214002a8 	cmpgeui	r5,r4,10
   20be4:	2800091e 	bne	r5,zero,20c0c <___vfprintf_internal_r+0x19c>
   20be8:	917fffe0 	cmpeqi	r5,r18,-1
   20bec:	2800051e 	bne	r5,zero,20c04 <___vfprintf_internal_r+0x194>
   20bf0:	900a90ba 	slli	r5,r18,2
   20bf4:	2ca5883a 	add	r18,r5,r18
   20bf8:	9024907a 	slli	r18,r18,1
   20bfc:	24a5883a 	add	r18,r4,r18
   20c00:	003fb606 	br	20adc <___vfprintf_internal_r+0x6c>
   20c04:	0025883a 	mov	r18,zero
   20c08:	003ffc06 	br	20bfc <___vfprintf_internal_r+0x18c>
   20c0c:	30801b20 	cmpeqi	r2,r6,108
   20c10:	1000cf1e 	bne	r2,zero,20f50 <___vfprintf_internal_r+0x4e0>
   20c14:	90bfffe0 	cmpeqi	r2,r18,-1
   20c18:	10000f1e 	bne	r2,zero,20c58 <___vfprintf_internal_r+0x1e8>
   20c1c:	d8000015 	stw	zero,0(sp)
   20c20:	30801be0 	cmpeqi	r2,r6,111
   20c24:	1000ce1e 	bne	r2,zero,20f60 <___vfprintf_internal_r+0x4f0>
   20c28:	30801c08 	cmpgei	r2,r6,112
   20c2c:	1000171e 	bne	r2,zero,20c8c <___vfprintf_internal_r+0x21c>
   20c30:	308018e0 	cmpeqi	r2,r6,99
   20c34:	1000a31e 	bne	r2,zero,20ec4 <___vfprintf_internal_r+0x454>
   20c38:	30801908 	cmpgei	r2,r6,100
   20c3c:	1000081e 	bne	r2,zero,20c60 <___vfprintf_internal_r+0x1f0>
   20c40:	31801620 	cmpeqi	r6,r6,88
   20c44:	303fa126 	beq	r6,zero,20acc <___vfprintf_internal_r+0x5c>
   20c48:	00800044 	movi	r2,1
   20c4c:	d8800215 	stw	r2,8(sp)
   20c50:	05000404 	movi	r20,16
   20c54:	0000c306 	br	20f64 <___vfprintf_internal_r+0x4f4>
   20c58:	04800044 	movi	r18,1
   20c5c:	003ff006 	br	20c20 <___vfprintf_internal_r+0x1b0>
   20c60:	30801920 	cmpeqi	r2,r6,100
   20c64:	1000021e 	bne	r2,zero,20c70 <___vfprintf_internal_r+0x200>
   20c68:	31801a60 	cmpeqi	r6,r6,105
   20c6c:	303f9726 	beq	r6,zero,20acc <___vfprintf_internal_r+0x5c>
   20c70:	e0800104 	addi	r2,fp,4
   20c74:	d8800415 	stw	r2,16(sp)
   20c78:	9800ba26 	beq	r19,zero,20f64 <___vfprintf_internal_r+0x4f4>
   20c7c:	e5400017 	ldw	r21,0(fp)
   20c80:	a8002216 	blt	r21,zero,20d0c <___vfprintf_internal_r+0x29c>
   20c84:	04c00044 	movi	r19,1
   20c88:	0000ba06 	br	20f74 <___vfprintf_internal_r+0x504>
   20c8c:	30801d60 	cmpeqi	r2,r6,117
   20c90:	1000b41e 	bne	r2,zero,20f64 <___vfprintf_internal_r+0x4f4>
   20c94:	30801e20 	cmpeqi	r2,r6,120
   20c98:	103fed1e 	bne	r2,zero,20c50 <___vfprintf_internal_r+0x1e0>
   20c9c:	31801ce0 	cmpeqi	r6,r6,115
   20ca0:	303f8a26 	beq	r6,zero,20acc <___vfprintf_internal_r+0x5c>
   20ca4:	e5400017 	ldw	r21,0(fp)
   20ca8:	e0800104 	addi	r2,fp,4
   20cac:	d8800315 	stw	r2,12(sp)
   20cb0:	a809883a 	mov	r4,r21
   20cb4:	00209e80 	call	209e8 <strlen>
   20cb8:	888fc83a 	sub	r7,r17,r2
   20cbc:	1039883a 	mov	fp,r2
   20cc0:	01c0080e 	bge	zero,r7,20ce4 <___vfprintf_internal_r+0x274>
   20cc4:	01800804 	movi	r6,32
   20cc8:	b80b883a 	mov	r5,r23
   20ccc:	8009883a 	mov	r4,r16
   20cd0:	d9c00415 	stw	r7,16(sp)
   20cd4:	0020a040 	call	20a04 <print_repeat>
   20cd8:	103f9b1e 	bne	r2,zero,20b48 <___vfprintf_internal_r+0xd8>
   20cdc:	d9c00417 	ldw	r7,16(sp)
   20ce0:	b1ed883a 	add	r22,r22,r7
   20ce4:	b8800117 	ldw	r2,4(r23)
   20ce8:	e00f883a 	mov	r7,fp
   20cec:	a80d883a 	mov	r6,r21
   20cf0:	b80b883a 	mov	r5,r23
   20cf4:	8009883a 	mov	r4,r16
   20cf8:	103ee83a 	callr	r2
   20cfc:	103f921e 	bne	r2,zero,20b48 <___vfprintf_internal_r+0xd8>
   20d00:	b72d883a 	add	r22,r22,fp
   20d04:	df000317 	ldw	fp,12(sp)
   20d08:	003f7406 	br	20adc <___vfprintf_internal_r+0x6c>
   20d0c:	056bc83a 	sub	r21,zero,r21
   20d10:	04c00044 	movi	r19,1
   20d14:	00c00044 	movi	r3,1
   20d18:	df000804 	addi	fp,sp,32
   20d1c:	e00d883a 	mov	r6,fp
   20d20:	a8002e1e 	bne	r21,zero,20ddc <___vfprintf_internal_r+0x36c>
   20d24:	e185c83a 	sub	r2,fp,r6
   20d28:	d8800315 	stw	r2,12(sp)
   20d2c:	9085c83a 	sub	r2,r18,r2
   20d30:	0080090e 	bge	zero,r2,20d58 <___vfprintf_internal_r+0x2e8>
   20d34:	e085883a 	add	r2,fp,r2
   20d38:	d9001004 	addi	r4,sp,64
   20d3c:	e100042e 	bgeu	fp,r4,20d50 <___vfprintf_internal_r+0x2e0>
   20d40:	e7000044 	addi	fp,fp,1
   20d44:	01000c04 	movi	r4,48
   20d48:	e13fffc5 	stb	r4,-1(fp)
   20d4c:	e0bffa1e 	bne	fp,r2,20d38 <___vfprintf_internal_r+0x2c8>
   20d50:	e185c83a 	sub	r2,fp,r6
   20d54:	d8800315 	stw	r2,12(sp)
   20d58:	d8800317 	ldw	r2,12(sp)
   20d5c:	1897883a 	add	r11,r3,r2
   20d60:	d8800017 	ldw	r2,0(sp)
   20d64:	8aebc83a 	sub	r21,r17,r11
   20d68:	10003526 	beq	r2,zero,20e40 <___vfprintf_internal_r+0x3d0>
   20d6c:	18000a26 	beq	r3,zero,20d98 <___vfprintf_internal_r+0x328>
   20d70:	00800b44 	movi	r2,45
   20d74:	d88007c5 	stb	r2,31(sp)
   20d78:	b8800117 	ldw	r2,4(r23)
   20d7c:	01c00044 	movi	r7,1
   20d80:	d98007c4 	addi	r6,sp,31
   20d84:	b80b883a 	mov	r5,r23
   20d88:	8009883a 	mov	r4,r16
   20d8c:	103ee83a 	callr	r2
   20d90:	103f6d1e 	bne	r2,zero,20b48 <___vfprintf_internal_r+0xd8>
   20d94:	b5800044 	addi	r22,r22,1
   20d98:	0540070e 	bge	zero,r21,20db8 <___vfprintf_internal_r+0x348>
   20d9c:	a80f883a 	mov	r7,r21
   20da0:	01800c04 	movi	r6,48
   20da4:	b80b883a 	mov	r5,r23
   20da8:	8009883a 	mov	r4,r16
   20dac:	0020a040 	call	20a04 <print_repeat>
   20db0:	103f651e 	bne	r2,zero,20b48 <___vfprintf_internal_r+0xd8>
   20db4:	b56d883a 	add	r22,r22,r21
   20db8:	d8800317 	ldw	r2,12(sp)
   20dbc:	b72d883a 	add	r22,r22,fp
   20dc0:	172bc83a 	sub	r21,r2,fp
   20dc4:	af05883a 	add	r2,r21,fp
   20dc8:	b707c83a 	sub	r3,r22,fp
   20dcc:	00803216 	blt	zero,r2,20e98 <___vfprintf_internal_r+0x428>
   20dd0:	df000417 	ldw	fp,16(sp)
   20dd4:	182d883a 	mov	r22,r3
   20dd8:	003f3c06 	br	20acc <___vfprintf_internal_r+0x5c>
   20ddc:	a809883a 	mov	r4,r21
   20de0:	a00b883a 	mov	r5,r20
   20de4:	d8c00615 	stw	r3,24(sp)
   20de8:	00212240 	call	21224 <__udivsi3>
   20dec:	1009883a 	mov	r4,r2
   20df0:	a00b883a 	mov	r5,r20
   20df4:	d8800315 	stw	r2,12(sp)
   20df8:	00212e40 	call	212e4 <__mulsi3>
   20dfc:	a8abc83a 	sub	r21,r21,r2
   20e00:	a8800288 	cmpgei	r2,r21,10
   20e04:	d9000317 	ldw	r4,12(sp)
   20e08:	d8c00617 	ldw	r3,24(sp)
   20e0c:	d9800804 	addi	r6,sp,32
   20e10:	1000051e 	bne	r2,zero,20e28 <___vfprintf_internal_r+0x3b8>
   20e14:	ad400c04 	addi	r21,r21,48
   20e18:	e7000044 	addi	fp,fp,1
   20e1c:	e57fffc5 	stb	r21,-1(fp)
   20e20:	202b883a 	mov	r21,r4
   20e24:	003fbe06 	br	20d20 <___vfprintf_internal_r+0x2b0>
   20e28:	d8800217 	ldw	r2,8(sp)
   20e2c:	10000226 	beq	r2,zero,20e38 <___vfprintf_internal_r+0x3c8>
   20e30:	ad400dc4 	addi	r21,r21,55
   20e34:	003ff806 	br	20e18 <___vfprintf_internal_r+0x3a8>
   20e38:	ad4015c4 	addi	r21,r21,87
   20e3c:	003ff606 	br	20e18 <___vfprintf_internal_r+0x3a8>
   20e40:	0540090e 	bge	zero,r21,20e68 <___vfprintf_internal_r+0x3f8>
   20e44:	a80f883a 	mov	r7,r21
   20e48:	01800804 	movi	r6,32
   20e4c:	b80b883a 	mov	r5,r23
   20e50:	8009883a 	mov	r4,r16
   20e54:	d8c00615 	stw	r3,24(sp)
   20e58:	0020a040 	call	20a04 <print_repeat>
   20e5c:	103f3a1e 	bne	r2,zero,20b48 <___vfprintf_internal_r+0xd8>
   20e60:	d8c00617 	ldw	r3,24(sp)
   20e64:	b56d883a 	add	r22,r22,r21
   20e68:	183fd326 	beq	r3,zero,20db8 <___vfprintf_internal_r+0x348>
   20e6c:	00800b44 	movi	r2,45
   20e70:	d88007c5 	stb	r2,31(sp)
   20e74:	b8800117 	ldw	r2,4(r23)
   20e78:	01c00044 	movi	r7,1
   20e7c:	d98007c4 	addi	r6,sp,31
   20e80:	b80b883a 	mov	r5,r23
   20e84:	8009883a 	mov	r4,r16
   20e88:	103ee83a 	callr	r2
   20e8c:	103f2e1e 	bne	r2,zero,20b48 <___vfprintf_internal_r+0xd8>
   20e90:	b5800044 	addi	r22,r22,1
   20e94:	003fc806 	br	20db8 <___vfprintf_internal_r+0x348>
   20e98:	e0bfffc3 	ldbu	r2,-1(fp)
   20e9c:	01c00044 	movi	r7,1
   20ea0:	d98007c4 	addi	r6,sp,31
   20ea4:	d88007c5 	stb	r2,31(sp)
   20ea8:	b8800117 	ldw	r2,4(r23)
   20eac:	b80b883a 	mov	r5,r23
   20eb0:	8009883a 	mov	r4,r16
   20eb4:	e73fffc4 	addi	fp,fp,-1
   20eb8:	103ee83a 	callr	r2
   20ebc:	103fc126 	beq	r2,zero,20dc4 <___vfprintf_internal_r+0x354>
   20ec0:	003f2106 	br	20b48 <___vfprintf_internal_r+0xd8>
   20ec4:	88800090 	cmplti	r2,r17,2
   20ec8:	1000081e 	bne	r2,zero,20eec <___vfprintf_internal_r+0x47c>
   20ecc:	8d7fffc4 	addi	r21,r17,-1
   20ed0:	a80f883a 	mov	r7,r21
   20ed4:	01800804 	movi	r6,32
   20ed8:	b80b883a 	mov	r5,r23
   20edc:	8009883a 	mov	r4,r16
   20ee0:	0020a040 	call	20a04 <print_repeat>
   20ee4:	103f181e 	bne	r2,zero,20b48 <___vfprintf_internal_r+0xd8>
   20ee8:	b56d883a 	add	r22,r22,r21
   20eec:	e0800017 	ldw	r2,0(fp)
   20ef0:	01c00044 	movi	r7,1
   20ef4:	d9800804 	addi	r6,sp,32
   20ef8:	d8800805 	stb	r2,32(sp)
   20efc:	b8800117 	ldw	r2,4(r23)
   20f00:	b80b883a 	mov	r5,r23
   20f04:	8009883a 	mov	r4,r16
   20f08:	e5400104 	addi	r21,fp,4
   20f0c:	103ee83a 	callr	r2
   20f10:	103f0d1e 	bne	r2,zero,20b48 <___vfprintf_internal_r+0xd8>
   20f14:	b5800044 	addi	r22,r22,1
   20f18:	a839883a 	mov	fp,r21
   20f1c:	003eef06 	br	20adc <___vfprintf_internal_r+0x6c>
   20f20:	d8000215 	stw	zero,8(sp)
   20f24:	d8000115 	stw	zero,4(sp)
   20f28:	d8000015 	stw	zero,0(sp)
   20f2c:	04c00044 	movi	r19,1
   20f30:	05000284 	movi	r20,10
   20f34:	04bfffc4 	movi	r18,-1
   20f38:	047fffc4 	movi	r17,-1
   20f3c:	00800044 	movi	r2,1
   20f40:	003ee606 	br	20adc <___vfprintf_internal_r+0x6c>
   20f44:	00800044 	movi	r2,1
   20f48:	d8800015 	stw	r2,0(sp)
   20f4c:	003ef206 	br	20b18 <___vfprintf_internal_r+0xa8>
   20f50:	00800044 	movi	r2,1
   20f54:	d8800115 	stw	r2,4(sp)
   20f58:	008000c4 	movi	r2,3
   20f5c:	003edf06 	br	20adc <___vfprintf_internal_r+0x6c>
   20f60:	05000204 	movi	r20,8
   20f64:	e0800104 	addi	r2,fp,4
   20f68:	d8800415 	stw	r2,16(sp)
   20f6c:	e5400017 	ldw	r21,0(fp)
   20f70:	0027883a 	mov	r19,zero
   20f74:	0007883a 	mov	r3,zero
   20f78:	003f6706 	br	20d18 <___vfprintf_internal_r+0x2a8>

00020f7c <__vfprintf_internal>:
   20f7c:	008000b4 	movhi	r2,2
   20f80:	300f883a 	mov	r7,r6
   20f84:	280d883a 	mov	r6,r5
   20f88:	200b883a 	mov	r5,r4
   20f8c:	111d3717 	ldw	r4,29916(r2)
   20f90:	0020a701 	jmpi	20a70 <___vfprintf_internal_r>

00020f94 <__sfvwrite_small_dev>:
   20f94:	2880000b 	ldhu	r2,0(r5)
   20f98:	1080020c 	andi	r2,r2,8
   20f9c:	10002526 	beq	r2,zero,21034 <__sfvwrite_small_dev+0xa0>
   20fa0:	2880008f 	ldh	r2,2(r5)
   20fa4:	defffb04 	addi	sp,sp,-20
   20fa8:	dcc00315 	stw	r19,12(sp)
   20fac:	dc800215 	stw	r18,8(sp)
   20fb0:	dc400115 	stw	r17,4(sp)
   20fb4:	dc000015 	stw	r16,0(sp)
   20fb8:	dfc00415 	stw	ra,16(sp)
   20fbc:	2027883a 	mov	r19,r4
   20fc0:	2821883a 	mov	r16,r5
   20fc4:	3025883a 	mov	r18,r6
   20fc8:	3823883a 	mov	r17,r7
   20fcc:	1000100e 	bge	r2,zero,21010 <__sfvwrite_small_dev+0x7c>
   20fd0:	8080000b 	ldhu	r2,0(r16)
   20fd4:	10801014 	ori	r2,r2,64
   20fd8:	8080000d 	sth	r2,0(r16)
   20fdc:	00bfffc4 	movi	r2,-1
   20fe0:	00000d06 	br	21018 <__sfvwrite_small_dev+0x84>
   20fe4:	88810050 	cmplti	r2,r17,1025
   20fe8:	880f883a 	mov	r7,r17
   20fec:	1000011e 	bne	r2,zero,20ff4 <__sfvwrite_small_dev+0x60>
   20ff0:	01c10004 	movi	r7,1024
   20ff4:	8140008f 	ldh	r5,2(r16)
   20ff8:	900d883a 	mov	r6,r18
   20ffc:	9809883a 	mov	r4,r19
   21000:	00210e00 	call	210e0 <_write_r>
   21004:	00bff20e 	bge	zero,r2,20fd0 <__sfvwrite_small_dev+0x3c>
   21008:	88a3c83a 	sub	r17,r17,r2
   2100c:	90a5883a 	add	r18,r18,r2
   21010:	047ff416 	blt	zero,r17,20fe4 <__sfvwrite_small_dev+0x50>
   21014:	0005883a 	mov	r2,zero
   21018:	dfc00417 	ldw	ra,16(sp)
   2101c:	dcc00317 	ldw	r19,12(sp)
   21020:	dc800217 	ldw	r18,8(sp)
   21024:	dc400117 	ldw	r17,4(sp)
   21028:	dc000017 	ldw	r16,0(sp)
   2102c:	dec00504 	addi	sp,sp,20
   21030:	f800283a 	ret
   21034:	00bfffc4 	movi	r2,-1
   21038:	f800283a 	ret

0002103c <putc>:
   2103c:	defffd04 	addi	sp,sp,-12
   21040:	008000b4 	movhi	r2,2
   21044:	dc000115 	stw	r16,4(sp)
   21048:	dfc00215 	stw	ra,8(sp)
   2104c:	1083e504 	addi	r2,r2,3988
   21050:	28800115 	stw	r2,4(r5)
   21054:	008000b4 	movhi	r2,2
   21058:	d90000c5 	stb	r4,3(sp)
   2105c:	2021883a 	mov	r16,r4
   21060:	111d3717 	ldw	r4,29916(r2)
   21064:	01c00044 	movi	r7,1
   21068:	d98000c4 	addi	r6,sp,3
   2106c:	0020f940 	call	20f94 <__sfvwrite_small_dev>
   21070:	10ffffe0 	cmpeqi	r3,r2,-1
   21074:	1800011e 	bne	r3,zero,2107c <putc+0x40>
   21078:	8005883a 	mov	r2,r16
   2107c:	dfc00217 	ldw	ra,8(sp)
   21080:	dc000117 	ldw	r16,4(sp)
   21084:	dec00304 	addi	sp,sp,12
   21088:	f800283a 	ret

0002108c <_putc_r>:
   2108c:	defffd04 	addi	sp,sp,-12
   21090:	008000b4 	movhi	r2,2
   21094:	dc000115 	stw	r16,4(sp)
   21098:	dfc00215 	stw	ra,8(sp)
   2109c:	1083e504 	addi	r2,r2,3988
   210a0:	30800115 	stw	r2,4(r6)
   210a4:	008000b4 	movhi	r2,2
   210a8:	111d3717 	ldw	r4,29916(r2)
   210ac:	2821883a 	mov	r16,r5
   210b0:	01c00044 	movi	r7,1
   210b4:	300b883a 	mov	r5,r6
   210b8:	d98000c4 	addi	r6,sp,3
   210bc:	dc0000c5 	stb	r16,3(sp)
   210c0:	0020f940 	call	20f94 <__sfvwrite_small_dev>
   210c4:	10ffffe0 	cmpeqi	r3,r2,-1
   210c8:	1800011e 	bne	r3,zero,210d0 <_putc_r+0x44>
   210cc:	8005883a 	mov	r2,r16
   210d0:	dfc00217 	ldw	ra,8(sp)
   210d4:	dc000117 	ldw	r16,4(sp)
   210d8:	dec00304 	addi	sp,sp,12
   210dc:	f800283a 	ret

000210e0 <_write_r>:
   210e0:	defffe04 	addi	sp,sp,-8
   210e4:	dc000015 	stw	r16,0(sp)
   210e8:	008000b4 	movhi	r2,2
   210ec:	2021883a 	mov	r16,r4
   210f0:	2809883a 	mov	r4,r5
   210f4:	300b883a 	mov	r5,r6
   210f8:	380d883a 	mov	r6,r7
   210fc:	dfc00115 	stw	ra,4(sp)
   21100:	101e2a15 	stw	zero,30888(r2)
   21104:	00219c40 	call	219c4 <write>
   21108:	10ffffd8 	cmpnei	r3,r2,-1
   2110c:	1800041e 	bne	r3,zero,21120 <_write_r+0x40>
   21110:	00c000b4 	movhi	r3,2
   21114:	18de2a17 	ldw	r3,30888(r3)
   21118:	18000126 	beq	r3,zero,21120 <_write_r+0x40>
   2111c:	80c00015 	stw	r3,0(r16)
   21120:	dfc00117 	ldw	ra,4(sp)
   21124:	dc000017 	ldw	r16,0(sp)
   21128:	dec00204 	addi	sp,sp,8
   2112c:	f800283a 	ret

00021130 <__divsi3>:
   21130:	20001a16 	blt	r4,zero,2119c <__divsi3+0x6c>
   21134:	000f883a 	mov	r7,zero
   21138:	2800020e 	bge	r5,zero,21144 <__divsi3+0x14>
   2113c:	014bc83a 	sub	r5,zero,r5
   21140:	39c0005c 	xori	r7,r7,1
   21144:	200d883a 	mov	r6,r4
   21148:	00c00044 	movi	r3,1
   2114c:	2900092e 	bgeu	r5,r4,21174 <__divsi3+0x44>
   21150:	00800804 	movi	r2,32
   21154:	00c00044 	movi	r3,1
   21158:	00000106 	br	21160 <__divsi3+0x30>
   2115c:	10001226 	beq	r2,zero,211a8 <__divsi3+0x78>
   21160:	294b883a 	add	r5,r5,r5
   21164:	10bfffc4 	addi	r2,r2,-1
   21168:	18c7883a 	add	r3,r3,r3
   2116c:	293ffb36 	bltu	r5,r4,2115c <__divsi3+0x2c>
   21170:	18000d26 	beq	r3,zero,211a8 <__divsi3+0x78>
   21174:	0005883a 	mov	r2,zero
   21178:	31400236 	bltu	r6,r5,21184 <__divsi3+0x54>
   2117c:	314dc83a 	sub	r6,r6,r5
   21180:	10c4b03a 	or	r2,r2,r3
   21184:	1806d07a 	srli	r3,r3,1
   21188:	280ad07a 	srli	r5,r5,1
   2118c:	183ffa1e 	bne	r3,zero,21178 <__divsi3+0x48>
   21190:	38000126 	beq	r7,zero,21198 <__divsi3+0x68>
   21194:	0085c83a 	sub	r2,zero,r2
   21198:	f800283a 	ret
   2119c:	0109c83a 	sub	r4,zero,r4
   211a0:	01c00044 	movi	r7,1
   211a4:	003fe406 	br	21138 <__divsi3+0x8>
   211a8:	0005883a 	mov	r2,zero
   211ac:	003ff806 	br	21190 <__divsi3+0x60>

000211b0 <__modsi3>:
   211b0:	20001916 	blt	r4,zero,21218 <__modsi3+0x68>
   211b4:	000f883a 	mov	r7,zero
   211b8:	2005883a 	mov	r2,r4
   211bc:	2800010e 	bge	r5,zero,211c4 <__modsi3+0x14>
   211c0:	014bc83a 	sub	r5,zero,r5
   211c4:	00c00044 	movi	r3,1
   211c8:	2900092e 	bgeu	r5,r4,211f0 <__modsi3+0x40>
   211cc:	01800804 	movi	r6,32
   211d0:	00c00044 	movi	r3,1
   211d4:	00000106 	br	211dc <__modsi3+0x2c>
   211d8:	30000d26 	beq	r6,zero,21210 <__modsi3+0x60>
   211dc:	294b883a 	add	r5,r5,r5
   211e0:	31bfffc4 	addi	r6,r6,-1
   211e4:	18c7883a 	add	r3,r3,r3
   211e8:	293ffb36 	bltu	r5,r4,211d8 <__modsi3+0x28>
   211ec:	18000826 	beq	r3,zero,21210 <__modsi3+0x60>
   211f0:	1806d07a 	srli	r3,r3,1
   211f4:	11400136 	bltu	r2,r5,211fc <__modsi3+0x4c>
   211f8:	1145c83a 	sub	r2,r2,r5
   211fc:	280ad07a 	srli	r5,r5,1
   21200:	183ffb1e 	bne	r3,zero,211f0 <__modsi3+0x40>
   21204:	38000126 	beq	r7,zero,2120c <__modsi3+0x5c>
   21208:	0085c83a 	sub	r2,zero,r2
   2120c:	f800283a 	ret
   21210:	2005883a 	mov	r2,r4
   21214:	003ffb06 	br	21204 <__modsi3+0x54>
   21218:	0109c83a 	sub	r4,zero,r4
   2121c:	01c00044 	movi	r7,1
   21220:	003fe506 	br	211b8 <__modsi3+0x8>

00021224 <__udivsi3>:
   21224:	200d883a 	mov	r6,r4
   21228:	2900152e 	bgeu	r5,r4,21280 <__udivsi3+0x5c>
   2122c:	28001416 	blt	r5,zero,21280 <__udivsi3+0x5c>
   21230:	00800804 	movi	r2,32
   21234:	00c00044 	movi	r3,1
   21238:	00000206 	br	21244 <__udivsi3+0x20>
   2123c:	10000e26 	beq	r2,zero,21278 <__udivsi3+0x54>
   21240:	28000516 	blt	r5,zero,21258 <__udivsi3+0x34>
   21244:	294b883a 	add	r5,r5,r5
   21248:	10bfffc4 	addi	r2,r2,-1
   2124c:	18c7883a 	add	r3,r3,r3
   21250:	293ffa36 	bltu	r5,r4,2123c <__udivsi3+0x18>
   21254:	18000826 	beq	r3,zero,21278 <__udivsi3+0x54>
   21258:	0005883a 	mov	r2,zero
   2125c:	31400236 	bltu	r6,r5,21268 <__udivsi3+0x44>
   21260:	314dc83a 	sub	r6,r6,r5
   21264:	10c4b03a 	or	r2,r2,r3
   21268:	1806d07a 	srli	r3,r3,1
   2126c:	280ad07a 	srli	r5,r5,1
   21270:	183ffa1e 	bne	r3,zero,2125c <__udivsi3+0x38>
   21274:	f800283a 	ret
   21278:	0005883a 	mov	r2,zero
   2127c:	f800283a 	ret
   21280:	00c00044 	movi	r3,1
   21284:	003ff406 	br	21258 <__udivsi3+0x34>

00021288 <__umodsi3>:
   21288:	2005883a 	mov	r2,r4
   2128c:	2900132e 	bgeu	r5,r4,212dc <__umodsi3+0x54>
   21290:	28001216 	blt	r5,zero,212dc <__umodsi3+0x54>
   21294:	01800804 	movi	r6,32
   21298:	00c00044 	movi	r3,1
   2129c:	00000206 	br	212a8 <__umodsi3+0x20>
   212a0:	30000c26 	beq	r6,zero,212d4 <__umodsi3+0x4c>
   212a4:	28000516 	blt	r5,zero,212bc <__umodsi3+0x34>
   212a8:	294b883a 	add	r5,r5,r5
   212ac:	31bfffc4 	addi	r6,r6,-1
   212b0:	18c7883a 	add	r3,r3,r3
   212b4:	293ffa36 	bltu	r5,r4,212a0 <__umodsi3+0x18>
   212b8:	18000626 	beq	r3,zero,212d4 <__umodsi3+0x4c>
   212bc:	1806d07a 	srli	r3,r3,1
   212c0:	11400136 	bltu	r2,r5,212c8 <__umodsi3+0x40>
   212c4:	1145c83a 	sub	r2,r2,r5
   212c8:	280ad07a 	srli	r5,r5,1
   212cc:	183ffb1e 	bne	r3,zero,212bc <__umodsi3+0x34>
   212d0:	f800283a 	ret
   212d4:	2005883a 	mov	r2,r4
   212d8:	f800283a 	ret
   212dc:	00c00044 	movi	r3,1
   212e0:	003ff606 	br	212bc <__umodsi3+0x34>

000212e4 <__mulsi3>:
   212e4:	0005883a 	mov	r2,zero
   212e8:	20000726 	beq	r4,zero,21308 <__mulsi3+0x24>
   212ec:	20c0004c 	andi	r3,r4,1
   212f0:	2008d07a 	srli	r4,r4,1
   212f4:	18000126 	beq	r3,zero,212fc <__mulsi3+0x18>
   212f8:	1145883a 	add	r2,r2,r5
   212fc:	294b883a 	add	r5,r5,r5
   21300:	203ffa1e 	bne	r4,zero,212ec <__mulsi3+0x8>
   21304:	f800283a 	ret
   21308:	f800283a 	ret

0002130c <alt_dcache_flush_all>:
   2130c:	deffff04 	addi	sp,sp,-4
   21310:	df000015 	stw	fp,0(sp)
   21314:	d839883a 	mov	fp,sp
   21318:	0001883a 	nop
   2131c:	e037883a 	mov	sp,fp
   21320:	df000017 	ldw	fp,0(sp)
   21324:	dec00104 	addi	sp,sp,4
   21328:	f800283a 	ret

0002132c <alt_ic_isr_register>:
   2132c:	defff904 	addi	sp,sp,-28
   21330:	dfc00615 	stw	ra,24(sp)
   21334:	df000515 	stw	fp,20(sp)
   21338:	df000504 	addi	fp,sp,20
   2133c:	e13fff15 	stw	r4,-4(fp)
   21340:	e17ffe15 	stw	r5,-8(fp)
   21344:	e1bffd15 	stw	r6,-12(fp)
   21348:	e1fffc15 	stw	r7,-16(fp)
   2134c:	e0800217 	ldw	r2,8(fp)
   21350:	d8800015 	stw	r2,0(sp)
   21354:	e1fffc17 	ldw	r7,-16(fp)
   21358:	e1bffd17 	ldw	r6,-12(fp)
   2135c:	e17ffe17 	ldw	r5,-8(fp)
   21360:	e13fff17 	ldw	r4,-4(fp)
   21364:	00214dc0 	call	214dc <alt_iic_isr_register>
   21368:	e037883a 	mov	sp,fp
   2136c:	dfc00117 	ldw	ra,4(sp)
   21370:	df000017 	ldw	fp,0(sp)
   21374:	dec00204 	addi	sp,sp,8
   21378:	f800283a 	ret

0002137c <alt_ic_irq_enable>:
   2137c:	defff904 	addi	sp,sp,-28
   21380:	df000615 	stw	fp,24(sp)
   21384:	df000604 	addi	fp,sp,24
   21388:	e13ffb15 	stw	r4,-20(fp)
   2138c:	e17ffa15 	stw	r5,-24(fp)
   21390:	e0bffa17 	ldw	r2,-24(fp)
   21394:	e0bfff15 	stw	r2,-4(fp)
   21398:	0005303a 	rdctl	r2,status
   2139c:	e0bffe15 	stw	r2,-8(fp)
   213a0:	e0fffe17 	ldw	r3,-8(fp)
   213a4:	00bfff84 	movi	r2,-2
   213a8:	1884703a 	and	r2,r3,r2
   213ac:	1001703a 	wrctl	status,r2
   213b0:	e0bffe17 	ldw	r2,-8(fp)
   213b4:	e0bffd15 	stw	r2,-12(fp)
   213b8:	00c00044 	movi	r3,1
   213bc:	e0bfff17 	ldw	r2,-4(fp)
   213c0:	1884983a 	sll	r2,r3,r2
   213c4:	1007883a 	mov	r3,r2
   213c8:	d0a0f517 	ldw	r2,-31788(gp)
   213cc:	1884b03a 	or	r2,r3,r2
   213d0:	d0a0f515 	stw	r2,-31788(gp)
   213d4:	d0a0f517 	ldw	r2,-31788(gp)
   213d8:	100170fa 	wrctl	ienable,r2
   213dc:	e0bffd17 	ldw	r2,-12(fp)
   213e0:	e0bffc15 	stw	r2,-16(fp)
   213e4:	e0bffc17 	ldw	r2,-16(fp)
   213e8:	1001703a 	wrctl	status,r2
   213ec:	0001883a 	nop
   213f0:	0005883a 	mov	r2,zero
   213f4:	e037883a 	mov	sp,fp
   213f8:	df000017 	ldw	fp,0(sp)
   213fc:	dec00104 	addi	sp,sp,4
   21400:	f800283a 	ret

00021404 <alt_ic_irq_disable>:
   21404:	defff904 	addi	sp,sp,-28
   21408:	df000615 	stw	fp,24(sp)
   2140c:	df000604 	addi	fp,sp,24
   21410:	e13ffb15 	stw	r4,-20(fp)
   21414:	e17ffa15 	stw	r5,-24(fp)
   21418:	e0bffa17 	ldw	r2,-24(fp)
   2141c:	e0bfff15 	stw	r2,-4(fp)
   21420:	0005303a 	rdctl	r2,status
   21424:	e0bffe15 	stw	r2,-8(fp)
   21428:	e0fffe17 	ldw	r3,-8(fp)
   2142c:	00bfff84 	movi	r2,-2
   21430:	1884703a 	and	r2,r3,r2
   21434:	1001703a 	wrctl	status,r2
   21438:	e0bffe17 	ldw	r2,-8(fp)
   2143c:	e0bffd15 	stw	r2,-12(fp)
   21440:	00c00044 	movi	r3,1
   21444:	e0bfff17 	ldw	r2,-4(fp)
   21448:	1884983a 	sll	r2,r3,r2
   2144c:	0084303a 	nor	r2,zero,r2
   21450:	1007883a 	mov	r3,r2
   21454:	d0a0f517 	ldw	r2,-31788(gp)
   21458:	1884703a 	and	r2,r3,r2
   2145c:	d0a0f515 	stw	r2,-31788(gp)
   21460:	d0a0f517 	ldw	r2,-31788(gp)
   21464:	100170fa 	wrctl	ienable,r2
   21468:	e0bffd17 	ldw	r2,-12(fp)
   2146c:	e0bffc15 	stw	r2,-16(fp)
   21470:	e0bffc17 	ldw	r2,-16(fp)
   21474:	1001703a 	wrctl	status,r2
   21478:	0001883a 	nop
   2147c:	0005883a 	mov	r2,zero
   21480:	e037883a 	mov	sp,fp
   21484:	df000017 	ldw	fp,0(sp)
   21488:	dec00104 	addi	sp,sp,4
   2148c:	f800283a 	ret

00021490 <alt_ic_irq_enabled>:
   21490:	defffc04 	addi	sp,sp,-16
   21494:	df000315 	stw	fp,12(sp)
   21498:	df000304 	addi	fp,sp,12
   2149c:	e13ffe15 	stw	r4,-8(fp)
   214a0:	e17ffd15 	stw	r5,-12(fp)
   214a4:	000530fa 	rdctl	r2,ienable
   214a8:	e0bfff15 	stw	r2,-4(fp)
   214ac:	00c00044 	movi	r3,1
   214b0:	e0bffd17 	ldw	r2,-12(fp)
   214b4:	1884983a 	sll	r2,r3,r2
   214b8:	1007883a 	mov	r3,r2
   214bc:	e0bfff17 	ldw	r2,-4(fp)
   214c0:	1884703a 	and	r2,r3,r2
   214c4:	1004c03a 	cmpne	r2,r2,zero
   214c8:	10803fcc 	andi	r2,r2,255
   214cc:	e037883a 	mov	sp,fp
   214d0:	df000017 	ldw	fp,0(sp)
   214d4:	dec00104 	addi	sp,sp,4
   214d8:	f800283a 	ret

000214dc <alt_iic_isr_register>:
   214dc:	defff504 	addi	sp,sp,-44
   214e0:	dfc00a15 	stw	ra,40(sp)
   214e4:	df000915 	stw	fp,36(sp)
   214e8:	df000904 	addi	fp,sp,36
   214ec:	e13ffa15 	stw	r4,-24(fp)
   214f0:	e17ff915 	stw	r5,-28(fp)
   214f4:	e1bff815 	stw	r6,-32(fp)
   214f8:	e1fff715 	stw	r7,-36(fp)
   214fc:	00bffa84 	movi	r2,-22
   21500:	e0bfff15 	stw	r2,-4(fp)
   21504:	e0bff917 	ldw	r2,-28(fp)
   21508:	e0bffe15 	stw	r2,-8(fp)
   2150c:	e0bffe17 	ldw	r2,-8(fp)
   21510:	10800808 	cmpgei	r2,r2,32
   21514:	1000251e 	bne	r2,zero,215ac <alt_iic_isr_register+0xd0>
   21518:	0005303a 	rdctl	r2,status
   2151c:	e0bffc15 	stw	r2,-16(fp)
   21520:	e0fffc17 	ldw	r3,-16(fp)
   21524:	00bfff84 	movi	r2,-2
   21528:	1884703a 	and	r2,r3,r2
   2152c:	1001703a 	wrctl	status,r2
   21530:	e0bffc17 	ldw	r2,-16(fp)
   21534:	e0bffd15 	stw	r2,-12(fp)
   21538:	e0bffe17 	ldw	r2,-8(fp)
   2153c:	100890fa 	slli	r4,r2,3
   21540:	e0fff817 	ldw	r3,-32(fp)
   21544:	008000b4 	movhi	r2,2
   21548:	2085883a 	add	r2,r4,r2
   2154c:	10de3015 	stw	r3,30912(r2)
   21550:	e0bffe17 	ldw	r2,-8(fp)
   21554:	100890fa 	slli	r4,r2,3
   21558:	e0fff717 	ldw	r3,-36(fp)
   2155c:	008000b4 	movhi	r2,2
   21560:	2085883a 	add	r2,r4,r2
   21564:	10de3115 	stw	r3,30916(r2)
   21568:	e0bff817 	ldw	r2,-32(fp)
   2156c:	10000526 	beq	r2,zero,21584 <alt_iic_isr_register+0xa8>
   21570:	e0bffe17 	ldw	r2,-8(fp)
   21574:	100b883a 	mov	r5,r2
   21578:	e13ffa17 	ldw	r4,-24(fp)
   2157c:	002137c0 	call	2137c <alt_ic_irq_enable>
   21580:	00000406 	br	21594 <alt_iic_isr_register+0xb8>
   21584:	e0bffe17 	ldw	r2,-8(fp)
   21588:	100b883a 	mov	r5,r2
   2158c:	e13ffa17 	ldw	r4,-24(fp)
   21590:	00214040 	call	21404 <alt_ic_irq_disable>
   21594:	e0bfff15 	stw	r2,-4(fp)
   21598:	e0bffd17 	ldw	r2,-12(fp)
   2159c:	e0bffb15 	stw	r2,-20(fp)
   215a0:	e0bffb17 	ldw	r2,-20(fp)
   215a4:	1001703a 	wrctl	status,r2
   215a8:	0001883a 	nop
   215ac:	e0bfff17 	ldw	r2,-4(fp)
   215b0:	e037883a 	mov	sp,fp
   215b4:	dfc00117 	ldw	ra,4(sp)
   215b8:	df000017 	ldw	fp,0(sp)
   215bc:	dec00204 	addi	sp,sp,8
   215c0:	f800283a 	ret

000215c4 <alt_load_section>:
   215c4:	defffc04 	addi	sp,sp,-16
   215c8:	df000315 	stw	fp,12(sp)
   215cc:	df000304 	addi	fp,sp,12
   215d0:	e13fff15 	stw	r4,-4(fp)
   215d4:	e17ffe15 	stw	r5,-8(fp)
   215d8:	e1bffd15 	stw	r6,-12(fp)
   215dc:	e0fffe17 	ldw	r3,-8(fp)
   215e0:	e0bfff17 	ldw	r2,-4(fp)
   215e4:	18800c26 	beq	r3,r2,21618 <alt_load_section+0x54>
   215e8:	00000806 	br	2160c <alt_load_section+0x48>
   215ec:	e0ffff17 	ldw	r3,-4(fp)
   215f0:	18800104 	addi	r2,r3,4
   215f4:	e0bfff15 	stw	r2,-4(fp)
   215f8:	e0bffe17 	ldw	r2,-8(fp)
   215fc:	11000104 	addi	r4,r2,4
   21600:	e13ffe15 	stw	r4,-8(fp)
   21604:	18c00017 	ldw	r3,0(r3)
   21608:	10c00015 	stw	r3,0(r2)
   2160c:	e0fffe17 	ldw	r3,-8(fp)
   21610:	e0bffd17 	ldw	r2,-12(fp)
   21614:	18bff51e 	bne	r3,r2,215ec <alt_load_section+0x28>
   21618:	0001883a 	nop
   2161c:	e037883a 	mov	sp,fp
   21620:	df000017 	ldw	fp,0(sp)
   21624:	dec00104 	addi	sp,sp,4
   21628:	f800283a 	ret

0002162c <alt_load>:
   2162c:	defffe04 	addi	sp,sp,-8
   21630:	dfc00115 	stw	ra,4(sp)
   21634:	df000015 	stw	fp,0(sp)
   21638:	d839883a 	mov	fp,sp
   2163c:	018000b4 	movhi	r6,2
   21640:	319d4304 	addi	r6,r6,29964
   21644:	014000b4 	movhi	r5,2
   21648:	295c5d04 	addi	r5,r5,29044
   2164c:	010000b4 	movhi	r4,2
   21650:	211d4304 	addi	r4,r4,29964
   21654:	00215c40 	call	215c4 <alt_load_section>
   21658:	018000b4 	movhi	r6,2
   2165c:	31808904 	addi	r6,r6,548
   21660:	014000b4 	movhi	r5,2
   21664:	29400804 	addi	r5,r5,32
   21668:	010000b4 	movhi	r4,2
   2166c:	21000804 	addi	r4,r4,32
   21670:	00215c40 	call	215c4 <alt_load_section>
   21674:	018000b4 	movhi	r6,2
   21678:	319c5d04 	addi	r6,r6,29044
   2167c:	014000b4 	movhi	r5,2
   21680:	295b6504 	addi	r5,r5,28052
   21684:	010000b4 	movhi	r4,2
   21688:	211b6504 	addi	r4,r4,28052
   2168c:	00215c40 	call	215c4 <alt_load_section>
   21690:	002130c0 	call	2130c <alt_dcache_flush_all>
   21694:	00263dc0 	call	263dc <alt_icache_flush_all>
   21698:	0001883a 	nop
   2169c:	e037883a 	mov	sp,fp
   216a0:	dfc00117 	ldw	ra,4(sp)
   216a4:	df000017 	ldw	fp,0(sp)
   216a8:	dec00204 	addi	sp,sp,8
   216ac:	f800283a 	ret

000216b0 <alt_main>:
   216b0:	defffd04 	addi	sp,sp,-12
   216b4:	dfc00215 	stw	ra,8(sp)
   216b8:	df000115 	stw	fp,4(sp)
   216bc:	df000104 	addi	fp,sp,4
   216c0:	0009883a 	mov	r4,zero
   216c4:	0021afc0 	call	21afc <alt_irq_init>
   216c8:	0001883a 	nop
   216cc:	0021b380 	call	21b38 <alt_sys_init>
   216d0:	018000b4 	movhi	r6,2
   216d4:	319bc004 	addi	r6,r6,28416
   216d8:	014000b4 	movhi	r5,2
   216dc:	295bc004 	addi	r5,r5,28416
   216e0:	010000b4 	movhi	r4,2
   216e4:	211bc004 	addi	r4,r4,28416
   216e8:	00265680 	call	26568 <alt_io_redirect>
   216ec:	00262840 	call	26284 <_do_ctors>
   216f0:	010000b4 	movhi	r4,2
   216f4:	2118ba04 	addi	r4,r4,25320
   216f8:	0026ab00 	call	26ab0 <atexit>
   216fc:	d0a0f617 	ldw	r2,-31784(gp)
   21700:	d0e0f717 	ldw	r3,-31780(gp)
   21704:	d120f817 	ldw	r4,-31776(gp)
   21708:	200d883a 	mov	r6,r4
   2170c:	180b883a 	mov	r5,r3
   21710:	1009883a 	mov	r4,r2
   21714:	00203a80 	call	203a8 <main>
   21718:	e0bfff15 	stw	r2,-4(fp)
   2171c:	01000044 	movi	r4,1
   21720:	00260700 	call	26070 <close>
   21724:	e13fff17 	ldw	r4,-4(fp)
   21728:	0026ac40 	call	26ac4 <exit>

0002172c <alt_printf>:
   2172c:	defff204 	addi	sp,sp,-56
   21730:	dfc00a15 	stw	ra,40(sp)
   21734:	df000915 	stw	fp,36(sp)
   21738:	df000904 	addi	fp,sp,36
   2173c:	e13ff715 	stw	r4,-36(fp)
   21740:	e1400215 	stw	r5,8(fp)
   21744:	e1800315 	stw	r6,12(fp)
   21748:	e1c00415 	stw	r7,16(fp)
   2174c:	e0800204 	addi	r2,fp,8
   21750:	e0bff815 	stw	r2,-32(fp)
   21754:	e0bff717 	ldw	r2,-36(fp)
   21758:	e0bfff15 	stw	r2,-4(fp)
   2175c:	00006f06 	br	2191c <alt_printf+0x1f0>
   21760:	e0bffec7 	ldb	r2,-5(fp)
   21764:	10800960 	cmpeqi	r2,r2,37
   21768:	1000041e 	bne	r2,zero,2177c <alt_printf+0x50>
   2176c:	e0bffec7 	ldb	r2,-5(fp)
   21770:	1009883a 	mov	r4,r2
   21774:	00219580 	call	21958 <alt_putchar>
   21778:	00006806 	br	2191c <alt_printf+0x1f0>
   2177c:	e0bfff17 	ldw	r2,-4(fp)
   21780:	10c00044 	addi	r3,r2,1
   21784:	e0ffff15 	stw	r3,-4(fp)
   21788:	10800003 	ldbu	r2,0(r2)
   2178c:	e0bffec5 	stb	r2,-5(fp)
   21790:	e0bffec7 	ldb	r2,-5(fp)
   21794:	10006926 	beq	r2,zero,2193c <alt_printf+0x210>
   21798:	e0bffec7 	ldb	r2,-5(fp)
   2179c:	10800958 	cmpnei	r2,r2,37
   217a0:	1000041e 	bne	r2,zero,217b4 <alt_printf+0x88>
   217a4:	e0bffec7 	ldb	r2,-5(fp)
   217a8:	1009883a 	mov	r4,r2
   217ac:	00219580 	call	21958 <alt_putchar>
   217b0:	00005a06 	br	2191c <alt_printf+0x1f0>
   217b4:	e0bffec7 	ldb	r2,-5(fp)
   217b8:	108018d8 	cmpnei	r2,r2,99
   217bc:	1000081e 	bne	r2,zero,217e0 <alt_printf+0xb4>
   217c0:	e0bff817 	ldw	r2,-32(fp)
   217c4:	10c00104 	addi	r3,r2,4
   217c8:	e0fff815 	stw	r3,-32(fp)
   217cc:	10800017 	ldw	r2,0(r2)
   217d0:	e0bff915 	stw	r2,-28(fp)
   217d4:	e13ff917 	ldw	r4,-28(fp)
   217d8:	00219580 	call	21958 <alt_putchar>
   217dc:	00004f06 	br	2191c <alt_printf+0x1f0>
   217e0:	e0bffec7 	ldb	r2,-5(fp)
   217e4:	10801e18 	cmpnei	r2,r2,120
   217e8:	1000341e 	bne	r2,zero,218bc <alt_printf+0x190>
   217ec:	e0bff817 	ldw	r2,-32(fp)
   217f0:	10c00104 	addi	r3,r2,4
   217f4:	e0fff815 	stw	r3,-32(fp)
   217f8:	10800017 	ldw	r2,0(r2)
   217fc:	e0bffb15 	stw	r2,-20(fp)
   21800:	e0bffb17 	ldw	r2,-20(fp)
   21804:	1000031e 	bne	r2,zero,21814 <alt_printf+0xe8>
   21808:	01000c04 	movi	r4,48
   2180c:	00219580 	call	21958 <alt_putchar>
   21810:	00004206 	br	2191c <alt_printf+0x1f0>
   21814:	00800704 	movi	r2,28
   21818:	e0bffd15 	stw	r2,-12(fp)
   2181c:	00000306 	br	2182c <alt_printf+0x100>
   21820:	e0bffd17 	ldw	r2,-12(fp)
   21824:	10bfff04 	addi	r2,r2,-4
   21828:	e0bffd15 	stw	r2,-12(fp)
   2182c:	00c003c4 	movi	r3,15
   21830:	e0bffd17 	ldw	r2,-12(fp)
   21834:	1884983a 	sll	r2,r3,r2
   21838:	1007883a 	mov	r3,r2
   2183c:	e0bffb17 	ldw	r2,-20(fp)
   21840:	1884703a 	and	r2,r3,r2
   21844:	103ff626 	beq	r2,zero,21820 <alt_printf+0xf4>
   21848:	00001906 	br	218b0 <alt_printf+0x184>
   2184c:	00c003c4 	movi	r3,15
   21850:	e0bffd17 	ldw	r2,-12(fp)
   21854:	1884983a 	sll	r2,r3,r2
   21858:	1007883a 	mov	r3,r2
   2185c:	e0bffb17 	ldw	r2,-20(fp)
   21860:	1886703a 	and	r3,r3,r2
   21864:	e0bffd17 	ldw	r2,-12(fp)
   21868:	1884d83a 	srl	r2,r3,r2
   2186c:	e0bffa15 	stw	r2,-24(fp)
   21870:	e0bffa17 	ldw	r2,-24(fp)
   21874:	108002a8 	cmpgeui	r2,r2,10
   21878:	1000041e 	bne	r2,zero,2188c <alt_printf+0x160>
   2187c:	e0bffa17 	ldw	r2,-24(fp)
   21880:	10800c04 	addi	r2,r2,48
   21884:	e0bffec5 	stb	r2,-5(fp)
   21888:	00000306 	br	21898 <alt_printf+0x16c>
   2188c:	e0bffa17 	ldw	r2,-24(fp)
   21890:	108015c4 	addi	r2,r2,87
   21894:	e0bffec5 	stb	r2,-5(fp)
   21898:	e0bffec7 	ldb	r2,-5(fp)
   2189c:	1009883a 	mov	r4,r2
   218a0:	00219580 	call	21958 <alt_putchar>
   218a4:	e0bffd17 	ldw	r2,-12(fp)
   218a8:	10bfff04 	addi	r2,r2,-4
   218ac:	e0bffd15 	stw	r2,-12(fp)
   218b0:	e0bffd17 	ldw	r2,-12(fp)
   218b4:	103fe50e 	bge	r2,zero,2184c <alt_printf+0x120>
   218b8:	00001806 	br	2191c <alt_printf+0x1f0>
   218bc:	e0bffec7 	ldb	r2,-5(fp)
   218c0:	10801cd8 	cmpnei	r2,r2,115
   218c4:	1000151e 	bne	r2,zero,2191c <alt_printf+0x1f0>
   218c8:	e0bff817 	ldw	r2,-32(fp)
   218cc:	10c00104 	addi	r3,r2,4
   218d0:	e0fff815 	stw	r3,-32(fp)
   218d4:	10800017 	ldw	r2,0(r2)
   218d8:	e0bffc15 	stw	r2,-16(fp)
   218dc:	00000906 	br	21904 <alt_printf+0x1d8>
   218e0:	e0bffc17 	ldw	r2,-16(fp)
   218e4:	10c00044 	addi	r3,r2,1
   218e8:	e0fffc15 	stw	r3,-16(fp)
   218ec:	10800003 	ldbu	r2,0(r2)
   218f0:	10803fcc 	andi	r2,r2,255
   218f4:	1080201c 	xori	r2,r2,128
   218f8:	10bfe004 	addi	r2,r2,-128
   218fc:	1009883a 	mov	r4,r2
   21900:	00219580 	call	21958 <alt_putchar>
   21904:	e0bffc17 	ldw	r2,-16(fp)
   21908:	10800003 	ldbu	r2,0(r2)
   2190c:	10803fcc 	andi	r2,r2,255
   21910:	1080201c 	xori	r2,r2,128
   21914:	10bfe004 	addi	r2,r2,-128
   21918:	103ff11e 	bne	r2,zero,218e0 <alt_printf+0x1b4>
   2191c:	e0bfff17 	ldw	r2,-4(fp)
   21920:	10c00044 	addi	r3,r2,1
   21924:	e0ffff15 	stw	r3,-4(fp)
   21928:	10800003 	ldbu	r2,0(r2)
   2192c:	e0bffec5 	stb	r2,-5(fp)
   21930:	e0bffec7 	ldb	r2,-5(fp)
   21934:	103f8a1e 	bne	r2,zero,21760 <alt_printf+0x34>
   21938:	00000106 	br	21940 <alt_printf+0x214>
   2193c:	0001883a 	nop
   21940:	0001883a 	nop
   21944:	e037883a 	mov	sp,fp
   21948:	dfc00117 	ldw	ra,4(sp)
   2194c:	df000017 	ldw	fp,0(sp)
   21950:	dec00504 	addi	sp,sp,20
   21954:	f800283a 	ret

00021958 <alt_putchar>:
   21958:	defffd04 	addi	sp,sp,-12
   2195c:	dfc00215 	stw	ra,8(sp)
   21960:	df000115 	stw	fp,4(sp)
   21964:	df000104 	addi	fp,sp,4
   21968:	e13fff15 	stw	r4,-4(fp)
   2196c:	e13fff17 	ldw	r4,-4(fp)
   21970:	00209400 	call	20940 <putchar>
   21974:	e037883a 	mov	sp,fp
   21978:	dfc00117 	ldw	ra,4(sp)
   2197c:	df000017 	ldw	fp,0(sp)
   21980:	dec00204 	addi	sp,sp,8
   21984:	f800283a 	ret

00021988 <alt_get_errno>:
   21988:	defffe04 	addi	sp,sp,-8
   2198c:	dfc00115 	stw	ra,4(sp)
   21990:	df000015 	stw	fp,0(sp)
   21994:	d839883a 	mov	fp,sp
   21998:	d0a00c17 	ldw	r2,-32720(gp)
   2199c:	10000326 	beq	r2,zero,219ac <alt_get_errno+0x24>
   219a0:	d0a00c17 	ldw	r2,-32720(gp)
   219a4:	103ee83a 	callr	r2
   219a8:	00000106 	br	219b0 <alt_get_errno+0x28>
   219ac:	d0a0f404 	addi	r2,gp,-31792
   219b0:	e037883a 	mov	sp,fp
   219b4:	dfc00117 	ldw	ra,4(sp)
   219b8:	df000017 	ldw	fp,0(sp)
   219bc:	dec00204 	addi	sp,sp,8
   219c0:	f800283a 	ret

000219c4 <write>:
   219c4:	defff904 	addi	sp,sp,-28
   219c8:	dfc00615 	stw	ra,24(sp)
   219cc:	df000515 	stw	fp,20(sp)
   219d0:	df000504 	addi	fp,sp,20
   219d4:	e13ffd15 	stw	r4,-12(fp)
   219d8:	e17ffc15 	stw	r5,-16(fp)
   219dc:	e1bffb15 	stw	r6,-20(fp)
   219e0:	e0bffd17 	ldw	r2,-12(fp)
   219e4:	10000916 	blt	r2,zero,21a0c <write+0x48>
   219e8:	e0fffd17 	ldw	r3,-12(fp)
   219ec:	1805883a 	mov	r2,r3
   219f0:	1085883a 	add	r2,r2,r2
   219f4:	10c5883a 	add	r2,r2,r3
   219f8:	100490ba 	slli	r2,r2,2
   219fc:	00c000b4 	movhi	r3,2
   21a00:	18dcd604 	addi	r3,r3,29528
   21a04:	10c5883a 	add	r2,r2,r3
   21a08:	00000106 	br	21a10 <write+0x4c>
   21a0c:	0005883a 	mov	r2,zero
   21a10:	e0bfff15 	stw	r2,-4(fp)
   21a14:	e0bfff17 	ldw	r2,-4(fp)
   21a18:	10002126 	beq	r2,zero,21aa0 <write+0xdc>
   21a1c:	e0bfff17 	ldw	r2,-4(fp)
   21a20:	10800217 	ldw	r2,8(r2)
   21a24:	108000cc 	andi	r2,r2,3
   21a28:	10001826 	beq	r2,zero,21a8c <write+0xc8>
   21a2c:	e0bfff17 	ldw	r2,-4(fp)
   21a30:	10800017 	ldw	r2,0(r2)
   21a34:	10800617 	ldw	r2,24(r2)
   21a38:	10001426 	beq	r2,zero,21a8c <write+0xc8>
   21a3c:	e0bfff17 	ldw	r2,-4(fp)
   21a40:	10800017 	ldw	r2,0(r2)
   21a44:	10800617 	ldw	r2,24(r2)
   21a48:	e0fffb17 	ldw	r3,-20(fp)
   21a4c:	180d883a 	mov	r6,r3
   21a50:	e17ffc17 	ldw	r5,-16(fp)
   21a54:	e13fff17 	ldw	r4,-4(fp)
   21a58:	103ee83a 	callr	r2
   21a5c:	e0bffe15 	stw	r2,-8(fp)
   21a60:	e0bffe17 	ldw	r2,-8(fp)
   21a64:	1000070e 	bge	r2,zero,21a84 <write+0xc0>
   21a68:	00219880 	call	21988 <alt_get_errno>
   21a6c:	1007883a 	mov	r3,r2
   21a70:	e0bffe17 	ldw	r2,-8(fp)
   21a74:	0085c83a 	sub	r2,zero,r2
   21a78:	18800015 	stw	r2,0(r3)
   21a7c:	00bfffc4 	movi	r2,-1
   21a80:	00000c06 	br	21ab4 <write+0xf0>
   21a84:	e0bffe17 	ldw	r2,-8(fp)
   21a88:	00000a06 	br	21ab4 <write+0xf0>
   21a8c:	00219880 	call	21988 <alt_get_errno>
   21a90:	1007883a 	mov	r3,r2
   21a94:	00800344 	movi	r2,13
   21a98:	18800015 	stw	r2,0(r3)
   21a9c:	00000406 	br	21ab0 <write+0xec>
   21aa0:	00219880 	call	21988 <alt_get_errno>
   21aa4:	1007883a 	mov	r3,r2
   21aa8:	00801444 	movi	r2,81
   21aac:	18800015 	stw	r2,0(r3)
   21ab0:	00bfffc4 	movi	r2,-1
   21ab4:	e037883a 	mov	sp,fp
   21ab8:	dfc00117 	ldw	ra,4(sp)
   21abc:	df000017 	ldw	fp,0(sp)
   21ac0:	dec00204 	addi	sp,sp,8
   21ac4:	f800283a 	ret

00021ac8 <alt_dev_reg>:
   21ac8:	defffd04 	addi	sp,sp,-12
   21acc:	dfc00215 	stw	ra,8(sp)
   21ad0:	df000115 	stw	fp,4(sp)
   21ad4:	df000104 	addi	fp,sp,4
   21ad8:	e13fff15 	stw	r4,-4(fp)
   21adc:	d1600904 	addi	r5,gp,-32732
   21ae0:	e13fff17 	ldw	r4,-4(fp)
   21ae4:	00261dc0 	call	261dc <alt_dev_llist_insert>
   21ae8:	e037883a 	mov	sp,fp
   21aec:	dfc00117 	ldw	ra,4(sp)
   21af0:	df000017 	ldw	fp,0(sp)
   21af4:	dec00204 	addi	sp,sp,8
   21af8:	f800283a 	ret

00021afc <alt_irq_init>:
   21afc:	defffd04 	addi	sp,sp,-12
   21b00:	dfc00215 	stw	ra,8(sp)
   21b04:	df000115 	stw	fp,4(sp)
   21b08:	df000104 	addi	fp,sp,4
   21b0c:	e13fff15 	stw	r4,-4(fp)
   21b10:	00268cc0 	call	268cc <altera_nios2_gen2_irq_init>
   21b14:	00800044 	movi	r2,1
   21b18:	1001703a 	wrctl	status,r2
   21b1c:	0001883a 	nop
   21b20:	0001883a 	nop
   21b24:	e037883a 	mov	sp,fp
   21b28:	dfc00117 	ldw	ra,4(sp)
   21b2c:	df000017 	ldw	fp,0(sp)
   21b30:	dec00204 	addi	sp,sp,8
   21b34:	f800283a 	ret

00021b38 <alt_sys_init>:
   21b38:	defffe04 	addi	sp,sp,-8
   21b3c:	dfc00115 	stw	ra,4(sp)
   21b40:	df000015 	stw	fp,0(sp)
   21b44:	d839883a 	mov	fp,sp
   21b48:	0001883a 	nop
   21b4c:	010000b4 	movhi	r4,2
   21b50:	211c9804 	addi	r4,r4,29280
   21b54:	00222ec0 	call	222ec <alt_avalon_i2c_init>
   21b58:	010000b4 	movhi	r4,2
   21b5c:	211ca604 	addi	r4,r4,29336
   21b60:	0021ac80 	call	21ac8 <alt_dev_reg>
   21b64:	008000b4 	movhi	r2,2
   21b68:	10dcbb17 	ldw	r3,29420(r2)
   21b6c:	008000b4 	movhi	r2,2
   21b70:	109cbc17 	ldw	r2,29424(r2)
   21b74:	100d883a 	mov	r6,r2
   21b78:	180b883a 	mov	r5,r3
   21b7c:	010000b4 	movhi	r4,2
   21b80:	211cb404 	addi	r4,r4,29392
   21b84:	0025c300 	call	25c30 <alt_msgdma_init>
   21b88:	0001883a 	nop
   21b8c:	e037883a 	mov	sp,fp
   21b90:	dfc00117 	ldw	ra,4(sp)
   21b94:	df000017 	ldw	fp,0(sp)
   21b98:	dec00204 	addi	sp,sp,8
   21b9c:	f800283a 	ret

00021ba0 <altera_avalon_fifo_init>:
   21ba0:	defffa04 	addi	sp,sp,-24
   21ba4:	dfc00515 	stw	ra,20(sp)
   21ba8:	df000415 	stw	fp,16(sp)
   21bac:	df000404 	addi	fp,sp,16
   21bb0:	e13fff15 	stw	r4,-4(fp)
   21bb4:	e17ffe15 	stw	r5,-8(fp)
   21bb8:	e1bffd15 	stw	r6,-12(fp)
   21bbc:	e1fffc15 	stw	r7,-16(fp)
   21bc0:	01400fc4 	movi	r5,63
   21bc4:	e13fff17 	ldw	r4,-4(fp)
   21bc8:	0021d6c0 	call	21d6c <altera_avalon_fifo_clear_event>
   21bcc:	10000226 	beq	r2,zero,21bd8 <altera_avalon_fifo_init+0x38>
   21bd0:	00bfffc4 	movi	r2,-1
   21bd4:	00001306 	br	21c24 <altera_avalon_fifo_init+0x84>
   21bd8:	e17ffe17 	ldw	r5,-8(fp)
   21bdc:	e13fff17 	ldw	r4,-4(fp)
   21be0:	0021dcc0 	call	21dcc <altera_avalon_fifo_write_ienable>
   21be4:	10000226 	beq	r2,zero,21bf0 <altera_avalon_fifo_init+0x50>
   21be8:	00bfff84 	movi	r2,-2
   21bec:	00000d06 	br	21c24 <altera_avalon_fifo_init+0x84>
   21bf0:	e17ffc17 	ldw	r5,-16(fp)
   21bf4:	e13fff17 	ldw	r4,-4(fp)
   21bf8:	0021e240 	call	21e24 <altera_avalon_fifo_write_almostfull>
   21bfc:	10000226 	beq	r2,zero,21c08 <altera_avalon_fifo_init+0x68>
   21c00:	00bfff44 	movi	r2,-3
   21c04:	00000706 	br	21c24 <altera_avalon_fifo_init+0x84>
   21c08:	e17ffd17 	ldw	r5,-12(fp)
   21c0c:	e13fff17 	ldw	r4,-4(fp)
   21c10:	0021e7c0 	call	21e7c <altera_avalon_fifo_write_almostempty>
   21c14:	10000226 	beq	r2,zero,21c20 <altera_avalon_fifo_init+0x80>
   21c18:	00bfff44 	movi	r2,-3
   21c1c:	00000106 	br	21c24 <altera_avalon_fifo_init+0x84>
   21c20:	0005883a 	mov	r2,zero
   21c24:	e037883a 	mov	sp,fp
   21c28:	dfc00117 	ldw	ra,4(sp)
   21c2c:	df000017 	ldw	fp,0(sp)
   21c30:	dec00204 	addi	sp,sp,8
   21c34:	f800283a 	ret

00021c38 <altera_avalon_fifo_read_status>:
   21c38:	defffd04 	addi	sp,sp,-12
   21c3c:	df000215 	stw	fp,8(sp)
   21c40:	df000204 	addi	fp,sp,8
   21c44:	e13fff15 	stw	r4,-4(fp)
   21c48:	e17ffe15 	stw	r5,-8(fp)
   21c4c:	e0bfff17 	ldw	r2,-4(fp)
   21c50:	10800104 	addi	r2,r2,4
   21c54:	10800037 	ldwio	r2,0(r2)
   21c58:	1007883a 	mov	r3,r2
   21c5c:	e0bffe17 	ldw	r2,-8(fp)
   21c60:	1884703a 	and	r2,r3,r2
   21c64:	e037883a 	mov	sp,fp
   21c68:	df000017 	ldw	fp,0(sp)
   21c6c:	dec00104 	addi	sp,sp,4
   21c70:	f800283a 	ret

00021c74 <altera_avalon_fifo_read_ienable>:
   21c74:	defffd04 	addi	sp,sp,-12
   21c78:	df000215 	stw	fp,8(sp)
   21c7c:	df000204 	addi	fp,sp,8
   21c80:	e13fff15 	stw	r4,-4(fp)
   21c84:	e17ffe15 	stw	r5,-8(fp)
   21c88:	e0bfff17 	ldw	r2,-4(fp)
   21c8c:	10800304 	addi	r2,r2,12
   21c90:	10800037 	ldwio	r2,0(r2)
   21c94:	1007883a 	mov	r3,r2
   21c98:	e0bffe17 	ldw	r2,-8(fp)
   21c9c:	1884703a 	and	r2,r3,r2
   21ca0:	e037883a 	mov	sp,fp
   21ca4:	df000017 	ldw	fp,0(sp)
   21ca8:	dec00104 	addi	sp,sp,4
   21cac:	f800283a 	ret

00021cb0 <altera_avalon_fifo_read_almostfull>:
   21cb0:	defffe04 	addi	sp,sp,-8
   21cb4:	df000115 	stw	fp,4(sp)
   21cb8:	df000104 	addi	fp,sp,4
   21cbc:	e13fff15 	stw	r4,-4(fp)
   21cc0:	e0bfff17 	ldw	r2,-4(fp)
   21cc4:	10800404 	addi	r2,r2,16
   21cc8:	10800037 	ldwio	r2,0(r2)
   21ccc:	e037883a 	mov	sp,fp
   21cd0:	df000017 	ldw	fp,0(sp)
   21cd4:	dec00104 	addi	sp,sp,4
   21cd8:	f800283a 	ret

00021cdc <altera_avalon_fifo_read_almostempty>:
   21cdc:	defffe04 	addi	sp,sp,-8
   21ce0:	df000115 	stw	fp,4(sp)
   21ce4:	df000104 	addi	fp,sp,4
   21ce8:	e13fff15 	stw	r4,-4(fp)
   21cec:	e0bfff17 	ldw	r2,-4(fp)
   21cf0:	10800504 	addi	r2,r2,20
   21cf4:	10800037 	ldwio	r2,0(r2)
   21cf8:	e037883a 	mov	sp,fp
   21cfc:	df000017 	ldw	fp,0(sp)
   21d00:	dec00104 	addi	sp,sp,4
   21d04:	f800283a 	ret

00021d08 <altera_avalon_fifo_read_event>:
   21d08:	defffd04 	addi	sp,sp,-12
   21d0c:	df000215 	stw	fp,8(sp)
   21d10:	df000204 	addi	fp,sp,8
   21d14:	e13fff15 	stw	r4,-4(fp)
   21d18:	e17ffe15 	stw	r5,-8(fp)
   21d1c:	e0bfff17 	ldw	r2,-4(fp)
   21d20:	10800204 	addi	r2,r2,8
   21d24:	10800037 	ldwio	r2,0(r2)
   21d28:	1007883a 	mov	r3,r2
   21d2c:	e0bffe17 	ldw	r2,-8(fp)
   21d30:	1884703a 	and	r2,r3,r2
   21d34:	e037883a 	mov	sp,fp
   21d38:	df000017 	ldw	fp,0(sp)
   21d3c:	dec00104 	addi	sp,sp,4
   21d40:	f800283a 	ret

00021d44 <altera_avalon_fifo_read_level>:
   21d44:	defffe04 	addi	sp,sp,-8
   21d48:	df000115 	stw	fp,4(sp)
   21d4c:	df000104 	addi	fp,sp,4
   21d50:	e13fff15 	stw	r4,-4(fp)
   21d54:	e0bfff17 	ldw	r2,-4(fp)
   21d58:	10800037 	ldwio	r2,0(r2)
   21d5c:	e037883a 	mov	sp,fp
   21d60:	df000017 	ldw	fp,0(sp)
   21d64:	dec00104 	addi	sp,sp,4
   21d68:	f800283a 	ret

00021d6c <altera_avalon_fifo_clear_event>:
   21d6c:	defffd04 	addi	sp,sp,-12
   21d70:	df000215 	stw	fp,8(sp)
   21d74:	df000204 	addi	fp,sp,8
   21d78:	e13fff15 	stw	r4,-4(fp)
   21d7c:	e17ffe15 	stw	r5,-8(fp)
   21d80:	e0bfff17 	ldw	r2,-4(fp)
   21d84:	10800204 	addi	r2,r2,8
   21d88:	1007883a 	mov	r3,r2
   21d8c:	e0bffe17 	ldw	r2,-8(fp)
   21d90:	18800035 	stwio	r2,0(r3)
   21d94:	e0bfff17 	ldw	r2,-4(fp)
   21d98:	10800204 	addi	r2,r2,8
   21d9c:	10800037 	ldwio	r2,0(r2)
   21da0:	1007883a 	mov	r3,r2
   21da4:	e0bffe17 	ldw	r2,-8(fp)
   21da8:	1884703a 	and	r2,r3,r2
   21dac:	1000021e 	bne	r2,zero,21db8 <altera_avalon_fifo_clear_event+0x4c>
   21db0:	0005883a 	mov	r2,zero
   21db4:	00000106 	br	21dbc <altera_avalon_fifo_clear_event+0x50>
   21db8:	00bfffc4 	movi	r2,-1
   21dbc:	e037883a 	mov	sp,fp
   21dc0:	df000017 	ldw	fp,0(sp)
   21dc4:	dec00104 	addi	sp,sp,4
   21dc8:	f800283a 	ret

00021dcc <altera_avalon_fifo_write_ienable>:
   21dcc:	defffd04 	addi	sp,sp,-12
   21dd0:	df000215 	stw	fp,8(sp)
   21dd4:	df000204 	addi	fp,sp,8
   21dd8:	e13fff15 	stw	r4,-4(fp)
   21ddc:	e17ffe15 	stw	r5,-8(fp)
   21de0:	e0bfff17 	ldw	r2,-4(fp)
   21de4:	10800304 	addi	r2,r2,12
   21de8:	1007883a 	mov	r3,r2
   21dec:	e0bffe17 	ldw	r2,-8(fp)
   21df0:	18800035 	stwio	r2,0(r3)
   21df4:	e0bfff17 	ldw	r2,-4(fp)
   21df8:	10800304 	addi	r2,r2,12
   21dfc:	10c00037 	ldwio	r3,0(r2)
   21e00:	e0bffe17 	ldw	r2,-8(fp)
   21e04:	1880021e 	bne	r3,r2,21e10 <altera_avalon_fifo_write_ienable+0x44>
   21e08:	0005883a 	mov	r2,zero
   21e0c:	00000106 	br	21e14 <altera_avalon_fifo_write_ienable+0x48>
   21e10:	00bfff84 	movi	r2,-2
   21e14:	e037883a 	mov	sp,fp
   21e18:	df000017 	ldw	fp,0(sp)
   21e1c:	dec00104 	addi	sp,sp,4
   21e20:	f800283a 	ret

00021e24 <altera_avalon_fifo_write_almostfull>:
   21e24:	defffd04 	addi	sp,sp,-12
   21e28:	df000215 	stw	fp,8(sp)
   21e2c:	df000204 	addi	fp,sp,8
   21e30:	e13fff15 	stw	r4,-4(fp)
   21e34:	e17ffe15 	stw	r5,-8(fp)
   21e38:	e0bfff17 	ldw	r2,-4(fp)
   21e3c:	10800404 	addi	r2,r2,16
   21e40:	1007883a 	mov	r3,r2
   21e44:	e0bffe17 	ldw	r2,-8(fp)
   21e48:	18800035 	stwio	r2,0(r3)
   21e4c:	e0bfff17 	ldw	r2,-4(fp)
   21e50:	10800404 	addi	r2,r2,16
   21e54:	10c00037 	ldwio	r3,0(r2)
   21e58:	e0bffe17 	ldw	r2,-8(fp)
   21e5c:	1880021e 	bne	r3,r2,21e68 <altera_avalon_fifo_write_almostfull+0x44>
   21e60:	0005883a 	mov	r2,zero
   21e64:	00000106 	br	21e6c <altera_avalon_fifo_write_almostfull+0x48>
   21e68:	00bfff44 	movi	r2,-3
   21e6c:	e037883a 	mov	sp,fp
   21e70:	df000017 	ldw	fp,0(sp)
   21e74:	dec00104 	addi	sp,sp,4
   21e78:	f800283a 	ret

00021e7c <altera_avalon_fifo_write_almostempty>:
   21e7c:	defffd04 	addi	sp,sp,-12
   21e80:	df000215 	stw	fp,8(sp)
   21e84:	df000204 	addi	fp,sp,8
   21e88:	e13fff15 	stw	r4,-4(fp)
   21e8c:	e17ffe15 	stw	r5,-8(fp)
   21e90:	e0bfff17 	ldw	r2,-4(fp)
   21e94:	10800504 	addi	r2,r2,20
   21e98:	1007883a 	mov	r3,r2
   21e9c:	e0bffe17 	ldw	r2,-8(fp)
   21ea0:	18800035 	stwio	r2,0(r3)
   21ea4:	e0bfff17 	ldw	r2,-4(fp)
   21ea8:	10800504 	addi	r2,r2,20
   21eac:	10c00037 	ldwio	r3,0(r2)
   21eb0:	e0bffe17 	ldw	r2,-8(fp)
   21eb4:	1880021e 	bne	r3,r2,21ec0 <altera_avalon_fifo_write_almostempty+0x44>
   21eb8:	0005883a 	mov	r2,zero
   21ebc:	00000106 	br	21ec4 <altera_avalon_fifo_write_almostempty+0x48>
   21ec0:	00bfff44 	movi	r2,-3
   21ec4:	e037883a 	mov	sp,fp
   21ec8:	df000017 	ldw	fp,0(sp)
   21ecc:	dec00104 	addi	sp,sp,4
   21ed0:	f800283a 	ret

00021ed4 <altera_avalon_fifo_write_fifo>:
   21ed4:	defffb04 	addi	sp,sp,-20
   21ed8:	dfc00415 	stw	ra,16(sp)
   21edc:	df000315 	stw	fp,12(sp)
   21ee0:	df000304 	addi	fp,sp,12
   21ee4:	e13fff15 	stw	r4,-4(fp)
   21ee8:	e17ffe15 	stw	r5,-8(fp)
   21eec:	e1bffd15 	stw	r6,-12(fp)
   21ef0:	01400044 	movi	r5,1
   21ef4:	e13ffe17 	ldw	r4,-8(fp)
   21ef8:	0021c380 	call	21c38 <altera_avalon_fifo_read_status>
   21efc:	1000051e 	bne	r2,zero,21f14 <altera_avalon_fifo_write_fifo+0x40>
   21f00:	e0bfff17 	ldw	r2,-4(fp)
   21f04:	e0fffd17 	ldw	r3,-12(fp)
   21f08:	10c00035 	stwio	r3,0(r2)
   21f0c:	0005883a 	mov	r2,zero
   21f10:	00000106 	br	21f18 <altera_avalon_fifo_write_fifo+0x44>
   21f14:	00bfff04 	movi	r2,-4
   21f18:	e037883a 	mov	sp,fp
   21f1c:	dfc00117 	ldw	ra,4(sp)
   21f20:	df000017 	ldw	fp,0(sp)
   21f24:	dec00204 	addi	sp,sp,8
   21f28:	f800283a 	ret

00021f2c <altera_avalon_read_fifo>:
   21f2c:	defffa04 	addi	sp,sp,-24
   21f30:	dfc00515 	stw	ra,20(sp)
   21f34:	df000415 	stw	fp,16(sp)
   21f38:	df000404 	addi	fp,sp,16
   21f3c:	e13ffe15 	stw	r4,-8(fp)
   21f40:	e17ffd15 	stw	r5,-12(fp)
   21f44:	e1bffc15 	stw	r6,-16(fp)
   21f48:	e03fff15 	stw	zero,-4(fp)
   21f4c:	e0bffc17 	ldw	r2,-16(fp)
   21f50:	10000015 	stw	zero,0(r2)
   21f54:	01400084 	movi	r5,2
   21f58:	e13ffd17 	ldw	r4,-12(fp)
   21f5c:	0021c380 	call	21c38 <altera_avalon_fifo_read_status>
   21f60:	1000071e 	bne	r2,zero,21f80 <altera_avalon_read_fifo+0x54>
   21f64:	e13ffd17 	ldw	r4,-12(fp)
   21f68:	0021d440 	call	21d44 <altera_avalon_fifo_read_level>
   21f6c:	e0bfff15 	stw	r2,-4(fp)
   21f70:	e0bffe17 	ldw	r2,-8(fp)
   21f74:	10c00037 	ldwio	r3,0(r2)
   21f78:	e0bffc17 	ldw	r2,-16(fp)
   21f7c:	10c00015 	stw	r3,0(r2)
   21f80:	e0bfff17 	ldw	r2,-4(fp)
   21f84:	e037883a 	mov	sp,fp
   21f88:	dfc00117 	ldw	ra,4(sp)
   21f8c:	df000017 	ldw	fp,0(sp)
   21f90:	dec00204 	addi	sp,sp,8
   21f94:	f800283a 	ret

00021f98 <altera_avalon_fifo_read_fifo>:
   21f98:	defffc04 	addi	sp,sp,-16
   21f9c:	dfc00315 	stw	ra,12(sp)
   21fa0:	df000215 	stw	fp,8(sp)
   21fa4:	df000204 	addi	fp,sp,8
   21fa8:	e13fff15 	stw	r4,-4(fp)
   21fac:	e17ffe15 	stw	r5,-8(fp)
   21fb0:	01400084 	movi	r5,2
   21fb4:	e13ffe17 	ldw	r4,-8(fp)
   21fb8:	0021c380 	call	21c38 <altera_avalon_fifo_read_status>
   21fbc:	1000031e 	bne	r2,zero,21fcc <altera_avalon_fifo_read_fifo+0x34>
   21fc0:	e0bfff17 	ldw	r2,-4(fp)
   21fc4:	10800037 	ldwio	r2,0(r2)
   21fc8:	00000106 	br	21fd0 <altera_avalon_fifo_read_fifo+0x38>
   21fcc:	0005883a 	mov	r2,zero
   21fd0:	e037883a 	mov	sp,fp
   21fd4:	dfc00117 	ldw	ra,4(sp)
   21fd8:	df000017 	ldw	fp,0(sp)
   21fdc:	dec00204 	addi	sp,sp,8
   21fe0:	f800283a 	ret

00021fe4 <altera_avalon_fifo_write_other_info>:
   21fe4:	defffb04 	addi	sp,sp,-20
   21fe8:	dfc00415 	stw	ra,16(sp)
   21fec:	df000315 	stw	fp,12(sp)
   21ff0:	df000304 	addi	fp,sp,12
   21ff4:	e13fff15 	stw	r4,-4(fp)
   21ff8:	e17ffe15 	stw	r5,-8(fp)
   21ffc:	e1bffd15 	stw	r6,-12(fp)
   22000:	01400044 	movi	r5,1
   22004:	e13ffe17 	ldw	r4,-8(fp)
   22008:	0021c380 	call	21c38 <altera_avalon_fifo_read_status>
   2200c:	1000071e 	bne	r2,zero,2202c <altera_avalon_fifo_write_other_info+0x48>
   22010:	e0bfff17 	ldw	r2,-4(fp)
   22014:	10800104 	addi	r2,r2,4
   22018:	1007883a 	mov	r3,r2
   2201c:	e0bffd17 	ldw	r2,-12(fp)
   22020:	18800035 	stwio	r2,0(r3)
   22024:	0005883a 	mov	r2,zero
   22028:	00000106 	br	22030 <altera_avalon_fifo_write_other_info+0x4c>
   2202c:	00bfff04 	movi	r2,-4
   22030:	e037883a 	mov	sp,fp
   22034:	dfc00117 	ldw	ra,4(sp)
   22038:	df000017 	ldw	fp,0(sp)
   2203c:	dec00204 	addi	sp,sp,8
   22040:	f800283a 	ret

00022044 <altera_avalon_fifo_read_other_info>:
   22044:	defffe04 	addi	sp,sp,-8
   22048:	df000115 	stw	fp,4(sp)
   2204c:	df000104 	addi	fp,sp,4
   22050:	e13fff15 	stw	r4,-4(fp)
   22054:	e0bfff17 	ldw	r2,-4(fp)
   22058:	10800104 	addi	r2,r2,4
   2205c:	10800037 	ldwio	r2,0(r2)
   22060:	e037883a 	mov	sp,fp
   22064:	df000017 	ldw	fp,0(sp)
   22068:	dec00104 	addi	sp,sp,4
   2206c:	f800283a 	ret

00022070 <altera_avalon_fifo_read_backpressure>:
   22070:	defffe04 	addi	sp,sp,-8
   22074:	df000115 	stw	fp,4(sp)
   22078:	df000104 	addi	fp,sp,4
   2207c:	e13fff15 	stw	r4,-4(fp)
   22080:	e0bfff17 	ldw	r2,-4(fp)
   22084:	10800037 	ldwio	r2,0(r2)
   22088:	e037883a 	mov	sp,fp
   2208c:	df000017 	ldw	fp,0(sp)
   22090:	dec00104 	addi	sp,sp,4
   22094:	f800283a 	ret

00022098 <optional_irq_callback>:
   22098:	defff904 	addi	sp,sp,-28
   2209c:	dfc00615 	stw	ra,24(sp)
   220a0:	df000515 	stw	fp,20(sp)
   220a4:	df000504 	addi	fp,sp,20
   220a8:	e13ffb15 	stw	r4,-20(fp)
   220ac:	008000b4 	movhi	r2,2
   220b0:	10a1a804 	addi	r2,r2,-31072
   220b4:	e0bfff15 	stw	r2,-4(fp)
   220b8:	e0bffb17 	ldw	r2,-20(fp)
   220bc:	e0bffe15 	stw	r2,-8(fp)
   220c0:	e0bffe17 	ldw	r2,-8(fp)
   220c4:	10800717 	ldw	r2,28(r2)
   220c8:	e0bffd15 	stw	r2,-12(fp)
   220cc:	e0bffd17 	ldw	r2,-12(fp)
   220d0:	10800217 	ldw	r2,8(r2)
   220d4:	10800098 	cmpnei	r2,r2,2
   220d8:	1000251e 	bne	r2,zero,22170 <optional_irq_callback+0xd8>
   220dc:	e0bffd17 	ldw	r2,-12(fp)
   220e0:	10c00017 	ldw	r3,0(r2)
   220e4:	e0bffd17 	ldw	r2,-12(fp)
   220e8:	10800117 	ldw	r2,4(r2)
   220ec:	e13ffc04 	addi	r4,fp,-16
   220f0:	200f883a 	mov	r7,r4
   220f4:	100d883a 	mov	r6,r2
   220f8:	180b883a 	mov	r5,r3
   220fc:	e13ffe17 	ldw	r4,-8(fp)
   22100:	002284c0 	call	2284c <alt_avalon_i2c_rx_read_available>
   22104:	e0bffd17 	ldw	r2,-12(fp)
   22108:	10c00117 	ldw	r3,4(r2)
   2210c:	e0bffc17 	ldw	r2,-16(fp)
   22110:	1887c83a 	sub	r3,r3,r2
   22114:	e0bffd17 	ldw	r2,-12(fp)
   22118:	10c00115 	stw	r3,4(r2)
   2211c:	e0bffd17 	ldw	r2,-12(fp)
   22120:	10c00017 	ldw	r3,0(r2)
   22124:	e0bffc17 	ldw	r2,-16(fp)
   22128:	1887883a 	add	r3,r3,r2
   2212c:	e0bffd17 	ldw	r2,-12(fp)
   22130:	10c00015 	stw	r3,0(r2)
   22134:	e0bffd17 	ldw	r2,-12(fp)
   22138:	10800117 	ldw	r2,4(r2)
   2213c:	10000c26 	beq	r2,zero,22170 <optional_irq_callback+0xd8>
   22140:	01400704 	movi	r5,28
   22144:	e13ffe17 	ldw	r4,-8(fp)
   22148:	0023a100 	call	23a10 <alt_avalon_i2c_int_clear>
   2214c:	01400084 	movi	r5,2
   22150:	e13ffe17 	ldw	r4,-8(fp)
   22154:	0023ab80 	call	23ab8 <alt_avalon_i2c_int_enable>
   22158:	00000e06 	br	22194 <optional_irq_callback+0xfc>
   2215c:	e0bfff17 	ldw	r2,-4(fp)
   22160:	10bfffc4 	addi	r2,r2,-1
   22164:	e0bfff15 	stw	r2,-4(fp)
   22168:	e0bfff17 	ldw	r2,-4(fp)
   2216c:	10000426 	beq	r2,zero,22180 <optional_irq_callback+0xe8>
   22170:	e13ffe17 	ldw	r4,-8(fp)
   22174:	00228080 	call	22808 <alt_avalon_i2c_is_busy>
   22178:	103ff81e 	bne	r2,zero,2215c <optional_irq_callback+0xc4>
   2217c:	00000106 	br	22184 <optional_irq_callback+0xec>
   22180:	0001883a 	nop
   22184:	e13ffe17 	ldw	r4,-8(fp)
   22188:	00224b00 	call	224b0 <alt_avalon_i2c_disable>
   2218c:	e0bffd17 	ldw	r2,-12(fp)
   22190:	10000215 	stw	zero,8(r2)
   22194:	e037883a 	mov	sp,fp
   22198:	dfc00117 	ldw	ra,4(sp)
   2219c:	df000017 	ldw	fp,0(sp)
   221a0:	dec00204 	addi	sp,sp,8
   221a4:	f800283a 	ret

000221a8 <alt_avalon_i2c_register_optional_irq_handler>:
   221a8:	defffc04 	addi	sp,sp,-16
   221ac:	dfc00315 	stw	ra,12(sp)
   221b0:	df000215 	stw	fp,8(sp)
   221b4:	df000204 	addi	fp,sp,8
   221b8:	e13fff15 	stw	r4,-4(fp)
   221bc:	e17ffe15 	stw	r5,-8(fp)
   221c0:	e0bffe17 	ldw	r2,-8(fp)
   221c4:	10000215 	stw	zero,8(r2)
   221c8:	e1fffe17 	ldw	r7,-8(fp)
   221cc:	000d883a 	mov	r6,zero
   221d0:	014000b4 	movhi	r5,2
   221d4:	29482604 	addi	r5,r5,8344
   221d8:	e13fff17 	ldw	r4,-4(fp)
   221dc:	00222980 	call	22298 <alt_avalon_i2c_register_callback>
   221e0:	0001883a 	nop
   221e4:	e037883a 	mov	sp,fp
   221e8:	dfc00117 	ldw	ra,4(sp)
   221ec:	df000017 	ldw	fp,0(sp)
   221f0:	dec00204 	addi	sp,sp,8
   221f4:	f800283a 	ret

000221f8 <alt_avalon_i2c_irq>:
   221f8:	defff904 	addi	sp,sp,-28
   221fc:	dfc00615 	stw	ra,24(sp)
   22200:	df000515 	stw	fp,20(sp)
   22204:	df000504 	addi	fp,sp,20
   22208:	e13ffb15 	stw	r4,-20(fp)
   2220c:	e0bffb17 	ldw	r2,-20(fp)
   22210:	e0bfff15 	stw	r2,-4(fp)
   22214:	014007c4 	movi	r5,31
   22218:	e13fff17 	ldw	r4,-4(fp)
   2221c:	0023a4c0 	call	23a4c <alt_avalon_i2c_int_disable>
   22220:	01400704 	movi	r5,28
   22224:	e13fff17 	ldw	r4,-4(fp)
   22228:	0023a100 	call	23a10 <alt_avalon_i2c_int_clear>
   2222c:	e0bfff17 	ldw	r2,-4(fp)
   22230:	10800617 	ldw	r2,24(r2)
   22234:	10001226 	beq	r2,zero,22280 <alt_avalon_i2c_irq+0x88>
   22238:	0005303a 	rdctl	r2,status
   2223c:	e0bffc15 	stw	r2,-16(fp)
   22240:	e0fffc17 	ldw	r3,-16(fp)
   22244:	00bfff84 	movi	r2,-2
   22248:	1884703a 	and	r2,r3,r2
   2224c:	1001703a 	wrctl	status,r2
   22250:	e0bffc17 	ldw	r2,-16(fp)
   22254:	e0bffe15 	stw	r2,-8(fp)
   22258:	e0bfff17 	ldw	r2,-4(fp)
   2225c:	10800617 	ldw	r2,24(r2)
   22260:	e13fff17 	ldw	r4,-4(fp)
   22264:	103ee83a 	callr	r2
   22268:	e0bffe17 	ldw	r2,-8(fp)
   2226c:	e0bffd15 	stw	r2,-12(fp)
   22270:	e0bffd17 	ldw	r2,-12(fp)
   22274:	1001703a 	wrctl	status,r2
   22278:	0001883a 	nop
   2227c:	0001883a 	nop
   22280:	0001883a 	nop
   22284:	e037883a 	mov	sp,fp
   22288:	dfc00117 	ldw	ra,4(sp)
   2228c:	df000017 	ldw	fp,0(sp)
   22290:	dec00204 	addi	sp,sp,8
   22294:	f800283a 	ret

00022298 <alt_avalon_i2c_register_callback>:
   22298:	defffb04 	addi	sp,sp,-20
   2229c:	df000415 	stw	fp,16(sp)
   222a0:	df000404 	addi	fp,sp,16
   222a4:	e13fff15 	stw	r4,-4(fp)
   222a8:	e17ffe15 	stw	r5,-8(fp)
   222ac:	e1bffd15 	stw	r6,-12(fp)
   222b0:	e1fffc15 	stw	r7,-16(fp)
   222b4:	e0bfff17 	ldw	r2,-4(fp)
   222b8:	e0fffe17 	ldw	r3,-8(fp)
   222bc:	10c00615 	stw	r3,24(r2)
   222c0:	e0bfff17 	ldw	r2,-4(fp)
   222c4:	e0fffc17 	ldw	r3,-16(fp)
   222c8:	10c00715 	stw	r3,28(r2)
   222cc:	e0bfff17 	ldw	r2,-4(fp)
   222d0:	e0fffd17 	ldw	r3,-12(fp)
   222d4:	10c00815 	stw	r3,32(r2)
   222d8:	0001883a 	nop
   222dc:	e037883a 	mov	sp,fp
   222e0:	df000017 	ldw	fp,0(sp)
   222e4:	dec00104 	addi	sp,sp,4
   222e8:	f800283a 	ret

000222ec <alt_avalon_i2c_init>:
   222ec:	defff704 	addi	sp,sp,-36
   222f0:	dfc00815 	stw	ra,32(sp)
   222f4:	df000715 	stw	fp,28(sp)
   222f8:	df000704 	addi	fp,sp,28
   222fc:	e13ffa15 	stw	r4,-24(fp)
   22300:	e13ffa17 	ldw	r4,-24(fp)
   22304:	00224b00 	call	224b0 <alt_avalon_i2c_disable>
   22308:	014007c4 	movi	r5,31
   2230c:	e13ffa17 	ldw	r4,-24(fp)
   22310:	0023a4c0 	call	23a4c <alt_avalon_i2c_int_disable>
   22314:	01400704 	movi	r5,28
   22318:	e13ffa17 	ldw	r4,-24(fp)
   2231c:	0023a100 	call	23a10 <alt_avalon_i2c_int_clear>
   22320:	014000c4 	movi	r5,3
   22324:	e13ffa17 	ldw	r4,-24(fp)
   22328:	0023c600 	call	23c60 <alt_avalon_i2c_tfr_cmd_fifo_threshold_set>
   2232c:	014000c4 	movi	r5,3
   22330:	e13ffa17 	ldw	r4,-24(fp)
   22334:	0023bb00 	call	23bb0 <alt_avalon_i2c_rx_fifo_threshold_set>
   22338:	e03ffc15 	stw	zero,-16(fp)
   2233c:	e03ffb15 	stw	zero,-20(fp)
   22340:	e0bffb04 	addi	r2,fp,-20
   22344:	018000b4 	movhi	r6,2
   22348:	31a1a804 	addi	r6,r6,-31072
   2234c:	100b883a 	mov	r5,r2
   22350:	e13ffa17 	ldw	r4,-24(fp)
   22354:	002270c0 	call	2270c <alt_avalon_i2c_master_config_speed_set>
   22358:	e0bffb04 	addi	r2,fp,-20
   2235c:	100b883a 	mov	r5,r2
   22360:	e13ffa17 	ldw	r4,-24(fp)
   22364:	00225ac0 	call	225ac <alt_avalon_i2c_master_config_set>
   22368:	d1600304 	addi	r5,gp,-32756
   2236c:	e13ffa17 	ldw	r4,-24(fp)
   22370:	00261dc0 	call	261dc <alt_dev_llist_insert>
   22374:	0005883a 	mov	r2,zero
   22378:	e0bfff15 	stw	r2,-4(fp)
   2237c:	e0bfff17 	ldw	r2,-4(fp)
   22380:	10000c1e 	bne	r2,zero,223b4 <alt_avalon_i2c_init+0xc8>
   22384:	e0bffa17 	ldw	r2,-24(fp)
   22388:	10c00417 	ldw	r3,16(r2)
   2238c:	e0bffa17 	ldw	r2,-24(fp)
   22390:	10800517 	ldw	r2,20(r2)
   22394:	d8000015 	stw	zero,0(sp)
   22398:	e1fffa17 	ldw	r7,-24(fp)
   2239c:	018000b4 	movhi	r6,2
   223a0:	31887e04 	addi	r6,r6,8696
   223a4:	100b883a 	mov	r5,r2
   223a8:	1809883a 	mov	r4,r3
   223ac:	002132c0 	call	2132c <alt_ic_isr_register>
   223b0:	00000406 	br	223c4 <alt_avalon_i2c_init+0xd8>
   223b4:	010000b4 	movhi	r4,2
   223b8:	211bd604 	addi	r4,r4,28504
   223bc:	002172c0 	call	2172c <alt_printf>
   223c0:	0001883a 	nop
   223c4:	e037883a 	mov	sp,fp
   223c8:	dfc00117 	ldw	ra,4(sp)
   223cc:	df000017 	ldw	fp,0(sp)
   223d0:	dec00204 	addi	sp,sp,8
   223d4:	f800283a 	ret

000223d8 <alt_avalon_i2c_open>:
   223d8:	defffc04 	addi	sp,sp,-16
   223dc:	dfc00315 	stw	ra,12(sp)
   223e0:	df000215 	stw	fp,8(sp)
   223e4:	df000204 	addi	fp,sp,8
   223e8:	e13ffe15 	stw	r4,-8(fp)
   223ec:	e03fff15 	stw	zero,-4(fp)
   223f0:	d1600304 	addi	r5,gp,-32756
   223f4:	e13ffe17 	ldw	r4,-8(fp)
   223f8:	002634c0 	call	2634c <alt_find_dev>
   223fc:	e0bfff15 	stw	r2,-4(fp)
   22400:	e0bfff17 	ldw	r2,-4(fp)
   22404:	e037883a 	mov	sp,fp
   22408:	dfc00117 	ldw	ra,4(sp)
   2240c:	df000017 	ldw	fp,0(sp)
   22410:	dec00204 	addi	sp,sp,8
   22414:	f800283a 	ret

00022418 <alt_avalon_i2c_enable>:
   22418:	defffc04 	addi	sp,sp,-16
   2241c:	df000315 	stw	fp,12(sp)
   22420:	df000304 	addi	fp,sp,12
   22424:	e13ffd15 	stw	r4,-12(fp)
   22428:	e0bffd17 	ldw	r2,-12(fp)
   2242c:	10800717 	ldw	r2,28(r2)
   22430:	e0bfff15 	stw	r2,-4(fp)
   22434:	e0bffd17 	ldw	r2,-12(fp)
   22438:	10800317 	ldw	r2,12(r2)
   2243c:	10800204 	addi	r2,r2,8
   22440:	10800037 	ldwio	r2,0(r2)
   22444:	1080004c 	andi	r2,r2,1
   22448:	e0bffe15 	stw	r2,-8(fp)
   2244c:	e0bffe17 	ldw	r2,-8(fp)
   22450:	10000226 	beq	r2,zero,2245c <alt_avalon_i2c_enable+0x44>
   22454:	00bffe44 	movi	r2,-7
   22458:	00001106 	br	224a0 <alt_avalon_i2c_enable+0x88>
   2245c:	e0bffd17 	ldw	r2,-12(fp)
   22460:	10c00617 	ldw	r3,24(r2)
   22464:	008000b4 	movhi	r2,2
   22468:	10882604 	addi	r2,r2,8344
   2246c:	1880021e 	bne	r3,r2,22478 <alt_avalon_i2c_enable+0x60>
   22470:	e0bfff17 	ldw	r2,-4(fp)
   22474:	10000215 	stw	zero,8(r2)
   22478:	e0bffd17 	ldw	r2,-12(fp)
   2247c:	10800317 	ldw	r2,12(r2)
   22480:	10800204 	addi	r2,r2,8
   22484:	e0fffd17 	ldw	r3,-12(fp)
   22488:	18c00317 	ldw	r3,12(r3)
   2248c:	18c00204 	addi	r3,r3,8
   22490:	18c00037 	ldwio	r3,0(r3)
   22494:	18c00054 	ori	r3,r3,1
   22498:	10c00035 	stwio	r3,0(r2)
   2249c:	0005883a 	mov	r2,zero
   224a0:	e037883a 	mov	sp,fp
   224a4:	df000017 	ldw	fp,0(sp)
   224a8:	dec00104 	addi	sp,sp,4
   224ac:	f800283a 	ret

000224b0 <alt_avalon_i2c_disable>:
   224b0:	defffe04 	addi	sp,sp,-8
   224b4:	df000115 	stw	fp,4(sp)
   224b8:	df000104 	addi	fp,sp,4
   224bc:	e13fff15 	stw	r4,-4(fp)
   224c0:	e0bfff17 	ldw	r2,-4(fp)
   224c4:	10800317 	ldw	r2,12(r2)
   224c8:	10800204 	addi	r2,r2,8
   224cc:	e0ffff17 	ldw	r3,-4(fp)
   224d0:	18c00317 	ldw	r3,12(r3)
   224d4:	18c00204 	addi	r3,r3,8
   224d8:	19000037 	ldwio	r4,0(r3)
   224dc:	00ffff84 	movi	r3,-2
   224e0:	20c6703a 	and	r3,r4,r3
   224e4:	10c00035 	stwio	r3,0(r2)
   224e8:	0001883a 	nop
   224ec:	e037883a 	mov	sp,fp
   224f0:	df000017 	ldw	fp,0(sp)
   224f4:	dec00104 	addi	sp,sp,4
   224f8:	f800283a 	ret

000224fc <alt_avalon_i2c_master_config_get>:
   224fc:	defffd04 	addi	sp,sp,-12
   22500:	df000215 	stw	fp,8(sp)
   22504:	df000204 	addi	fp,sp,8
   22508:	e13fff15 	stw	r4,-4(fp)
   2250c:	e17ffe15 	stw	r5,-8(fp)
   22510:	e0bfff17 	ldw	r2,-4(fp)
   22514:	10c00d17 	ldw	r3,52(r2)
   22518:	e0bffe17 	ldw	r2,-8(fp)
   2251c:	10c00015 	stw	r3,0(r2)
   22520:	e0bfff17 	ldw	r2,-4(fp)
   22524:	10800317 	ldw	r2,12(r2)
   22528:	10800204 	addi	r2,r2,8
   2252c:	10800037 	ldwio	r2,0(r2)
   22530:	1005d07a 	srai	r2,r2,1
   22534:	1080004c 	andi	r2,r2,1
   22538:	1007883a 	mov	r3,r2
   2253c:	e0bffe17 	ldw	r2,-8(fp)
   22540:	10c00115 	stw	r3,4(r2)
   22544:	e0bfff17 	ldw	r2,-4(fp)
   22548:	10800317 	ldw	r2,12(r2)
   2254c:	10800904 	addi	r2,r2,36
   22550:	10800037 	ldwio	r2,0(r2)
   22554:	1007883a 	mov	r3,r2
   22558:	e0bffe17 	ldw	r2,-8(fp)
   2255c:	10c0020d 	sth	r3,8(r2)
   22560:	e0bfff17 	ldw	r2,-4(fp)
   22564:	10800317 	ldw	r2,12(r2)
   22568:	10800804 	addi	r2,r2,32
   2256c:	10800037 	ldwio	r2,0(r2)
   22570:	1007883a 	mov	r3,r2
   22574:	e0bffe17 	ldw	r2,-8(fp)
   22578:	10c0028d 	sth	r3,10(r2)
   2257c:	e0bfff17 	ldw	r2,-4(fp)
   22580:	10800317 	ldw	r2,12(r2)
   22584:	10800a04 	addi	r2,r2,40
   22588:	10800037 	ldwio	r2,0(r2)
   2258c:	1007883a 	mov	r3,r2
   22590:	e0bffe17 	ldw	r2,-8(fp)
   22594:	10c0030d 	sth	r3,12(r2)
   22598:	0001883a 	nop
   2259c:	e037883a 	mov	sp,fp
   225a0:	df000017 	ldw	fp,0(sp)
   225a4:	dec00104 	addi	sp,sp,4
   225a8:	f800283a 	ret

000225ac <alt_avalon_i2c_master_config_set>:
   225ac:	defffd04 	addi	sp,sp,-12
   225b0:	df000215 	stw	fp,8(sp)
   225b4:	df000204 	addi	fp,sp,8
   225b8:	e13fff15 	stw	r4,-4(fp)
   225bc:	e17ffe15 	stw	r5,-8(fp)
   225c0:	e0bffe17 	ldw	r2,-8(fp)
   225c4:	10c00017 	ldw	r3,0(r2)
   225c8:	e0bfff17 	ldw	r2,-4(fp)
   225cc:	10c00d15 	stw	r3,52(r2)
   225d0:	e0bfff17 	ldw	r2,-4(fp)
   225d4:	10800317 	ldw	r2,12(r2)
   225d8:	10c00204 	addi	r3,r2,8
   225dc:	e0bfff17 	ldw	r2,-4(fp)
   225e0:	10800317 	ldw	r2,12(r2)
   225e4:	10800204 	addi	r2,r2,8
   225e8:	10800037 	ldwio	r2,0(r2)
   225ec:	1009883a 	mov	r4,r2
   225f0:	00bfff44 	movi	r2,-3
   225f4:	2088703a 	and	r4,r4,r2
   225f8:	e0bffe17 	ldw	r2,-8(fp)
   225fc:	10800117 	ldw	r2,4(r2)
   22600:	1085883a 	add	r2,r2,r2
   22604:	1080008c 	andi	r2,r2,2
   22608:	2084b03a 	or	r2,r4,r2
   2260c:	18800035 	stwio	r2,0(r3)
   22610:	e0bfff17 	ldw	r2,-4(fp)
   22614:	10800317 	ldw	r2,12(r2)
   22618:	10800904 	addi	r2,r2,36
   2261c:	e0fffe17 	ldw	r3,-8(fp)
   22620:	18c0020b 	ldhu	r3,8(r3)
   22624:	18ffffcc 	andi	r3,r3,65535
   22628:	10c00035 	stwio	r3,0(r2)
   2262c:	e0bfff17 	ldw	r2,-4(fp)
   22630:	10800317 	ldw	r2,12(r2)
   22634:	10800804 	addi	r2,r2,32
   22638:	e0fffe17 	ldw	r3,-8(fp)
   2263c:	18c0028b 	ldhu	r3,10(r3)
   22640:	18ffffcc 	andi	r3,r3,65535
   22644:	10c00035 	stwio	r3,0(r2)
   22648:	e0bfff17 	ldw	r2,-4(fp)
   2264c:	10800317 	ldw	r2,12(r2)
   22650:	10800a04 	addi	r2,r2,40
   22654:	e0fffe17 	ldw	r3,-8(fp)
   22658:	18c0030b 	ldhu	r3,12(r3)
   2265c:	18ffffcc 	andi	r3,r3,65535
   22660:	10c00035 	stwio	r3,0(r2)
   22664:	0001883a 	nop
   22668:	e037883a 	mov	sp,fp
   2266c:	df000017 	ldw	fp,0(sp)
   22670:	dec00104 	addi	sp,sp,4
   22674:	f800283a 	ret

00022678 <alt_avalon_i2c_master_config_speed_get>:
   22678:	defffb04 	addi	sp,sp,-20
   2267c:	dfc00415 	stw	ra,16(sp)
   22680:	df000315 	stw	fp,12(sp)
   22684:	df000304 	addi	fp,sp,12
   22688:	e13fff15 	stw	r4,-4(fp)
   2268c:	e17ffe15 	stw	r5,-8(fp)
   22690:	e1bffd15 	stw	r6,-12(fp)
   22694:	e0bffe17 	ldw	r2,-8(fp)
   22698:	1080028b 	ldhu	r2,10(r2)
   2269c:	10bfffcc 	andi	r2,r2,65535
   226a0:	10000426 	beq	r2,zero,226b4 <alt_avalon_i2c_master_config_speed_get+0x3c>
   226a4:	e0bffe17 	ldw	r2,-8(fp)
   226a8:	1080020b 	ldhu	r2,8(r2)
   226ac:	10bfffcc 	andi	r2,r2,65535
   226b0:	1000021e 	bne	r2,zero,226bc <alt_avalon_i2c_master_config_speed_get+0x44>
   226b4:	00bfff44 	movi	r2,-3
   226b8:	00000f06 	br	226f8 <alt_avalon_i2c_master_config_speed_get+0x80>
   226bc:	e0bfff17 	ldw	r2,-4(fp)
   226c0:	11000c17 	ldw	r4,48(r2)
   226c4:	e0bffe17 	ldw	r2,-8(fp)
   226c8:	1080028b 	ldhu	r2,10(r2)
   226cc:	10ffffcc 	andi	r3,r2,65535
   226d0:	e0bffe17 	ldw	r2,-8(fp)
   226d4:	1080020b 	ldhu	r2,8(r2)
   226d8:	10bfffcc 	andi	r2,r2,65535
   226dc:	1885883a 	add	r2,r3,r2
   226e0:	100b883a 	mov	r5,r2
   226e4:	00212240 	call	21224 <__udivsi3>
   226e8:	1007883a 	mov	r3,r2
   226ec:	e0bffd17 	ldw	r2,-12(fp)
   226f0:	10c00015 	stw	r3,0(r2)
   226f4:	0005883a 	mov	r2,zero
   226f8:	e037883a 	mov	sp,fp
   226fc:	dfc00117 	ldw	ra,4(sp)
   22700:	df000017 	ldw	fp,0(sp)
   22704:	dec00204 	addi	sp,sp,8
   22708:	f800283a 	ret

0002270c <alt_avalon_i2c_master_config_speed_set>:
   2270c:	defff904 	addi	sp,sp,-28
   22710:	dfc00615 	stw	ra,24(sp)
   22714:	df000515 	stw	fp,20(sp)
   22718:	df000504 	addi	fp,sp,20
   2271c:	e13ffd15 	stw	r4,-12(fp)
   22720:	e17ffc15 	stw	r5,-16(fp)
   22724:	e1bffb15 	stw	r6,-20(fp)
   22728:	e0fffb17 	ldw	r3,-20(fp)
   2272c:	008001b4 	movhi	r2,6
   22730:	1086a004 	addi	r2,r2,6784
   22734:	10c00436 	bltu	r2,r3,22748 <alt_avalon_i2c_master_config_speed_set+0x3c>
   22738:	e0bffb17 	ldw	r2,-20(fp)
   2273c:	10000226 	beq	r2,zero,22748 <alt_avalon_i2c_master_config_speed_set+0x3c>
   22740:	e0bffb17 	ldw	r2,-20(fp)
   22744:	1000021e 	bne	r2,zero,22750 <alt_avalon_i2c_master_config_speed_set+0x44>
   22748:	00bfff04 	movi	r2,-4
   2274c:	00002906 	br	227f4 <alt_avalon_i2c_master_config_speed_set+0xe8>
   22750:	e0bffd17 	ldw	r2,-12(fp)
   22754:	10c00c17 	ldw	r3,48(r2)
   22758:	e0bffb17 	ldw	r2,-20(fp)
   2275c:	1085883a 	add	r2,r2,r2
   22760:	100b883a 	mov	r5,r2
   22764:	1809883a 	mov	r4,r3
   22768:	00212240 	call	21224 <__udivsi3>
   2276c:	e0bfff15 	stw	r2,-4(fp)
   22770:	e0bfff17 	ldw	r2,-4(fp)
   22774:	10800f04 	addi	r2,r2,60
   22778:	e0bffe15 	stw	r2,-8(fp)
   2277c:	e0bfff17 	ldw	r2,-4(fp)
   22780:	10bff104 	addi	r2,r2,-60
   22784:	e0bfff15 	stw	r2,-4(fp)
   22788:	e0fffb17 	ldw	r3,-20(fp)
   2278c:	008000b4 	movhi	r2,2
   22790:	10a1a804 	addi	r2,r2,-31072
   22794:	10c0042e 	bgeu	r2,r3,227a8 <alt_avalon_i2c_master_config_speed_set+0x9c>
   22798:	e0bffc17 	ldw	r2,-16(fp)
   2279c:	00c00044 	movi	r3,1
   227a0:	10c00115 	stw	r3,4(r2)
   227a4:	00000206 	br	227b0 <alt_avalon_i2c_master_config_speed_set+0xa4>
   227a8:	e0bffc17 	ldw	r2,-16(fp)
   227ac:	10000115 	stw	zero,4(r2)
   227b0:	e0bfff17 	ldw	r2,-4(fp)
   227b4:	1007883a 	mov	r3,r2
   227b8:	e0bffc17 	ldw	r2,-16(fp)
   227bc:	10c0028d 	sth	r3,10(r2)
   227c0:	e0bffe17 	ldw	r2,-8(fp)
   227c4:	1007883a 	mov	r3,r2
   227c8:	e0bffc17 	ldw	r2,-16(fp)
   227cc:	10c0020d 	sth	r3,8(r2)
   227d0:	e0bfff17 	ldw	r2,-4(fp)
   227d4:	1007883a 	mov	r3,r2
   227d8:	e0bfff17 	ldw	r2,-4(fp)
   227dc:	1004d07a 	srli	r2,r2,1
   227e0:	1885c83a 	sub	r2,r3,r2
   227e4:	1007883a 	mov	r3,r2
   227e8:	e0bffc17 	ldw	r2,-16(fp)
   227ec:	10c0030d 	sth	r3,12(r2)
   227f0:	0005883a 	mov	r2,zero
   227f4:	e037883a 	mov	sp,fp
   227f8:	dfc00117 	ldw	ra,4(sp)
   227fc:	df000017 	ldw	fp,0(sp)
   22800:	dec00204 	addi	sp,sp,8
   22804:	f800283a 	ret

00022808 <alt_avalon_i2c_is_busy>:
   22808:	defffe04 	addi	sp,sp,-8
   2280c:	df000115 	stw	fp,4(sp)
   22810:	df000104 	addi	fp,sp,4
   22814:	e13fff15 	stw	r4,-4(fp)
   22818:	e0bfff17 	ldw	r2,-4(fp)
   2281c:	10800317 	ldw	r2,12(r2)
   22820:	10800504 	addi	r2,r2,20
   22824:	10800037 	ldwio	r2,0(r2)
   22828:	1080004c 	andi	r2,r2,1
   2282c:	10000226 	beq	r2,zero,22838 <alt_avalon_i2c_is_busy+0x30>
   22830:	00800044 	movi	r2,1
   22834:	00000106 	br	2283c <alt_avalon_i2c_is_busy+0x34>
   22838:	0005883a 	mov	r2,zero
   2283c:	e037883a 	mov	sp,fp
   22840:	df000017 	ldw	fp,0(sp)
   22844:	dec00104 	addi	sp,sp,4
   22848:	f800283a 	ret

0002284c <alt_avalon_i2c_rx_read_available>:
   2284c:	defffb04 	addi	sp,sp,-20
   22850:	df000415 	stw	fp,16(sp)
   22854:	df000404 	addi	fp,sp,16
   22858:	e13fff15 	stw	r4,-4(fp)
   2285c:	e17ffe15 	stw	r5,-8(fp)
   22860:	e1bffd15 	stw	r6,-12(fp)
   22864:	e1fffc15 	stw	r7,-16(fp)
   22868:	e0bffc17 	ldw	r2,-16(fp)
   2286c:	10000015 	stw	zero,0(r2)
   22870:	00001506 	br	228c8 <alt_avalon_i2c_rx_read_available+0x7c>
   22874:	e0bfff17 	ldw	r2,-4(fp)
   22878:	10800317 	ldw	r2,12(r2)
   2287c:	10800104 	addi	r2,r2,4
   22880:	11000037 	ldwio	r4,0(r2)
   22884:	e0bffc17 	ldw	r2,-16(fp)
   22888:	10800017 	ldw	r2,0(r2)
   2288c:	e0fffe17 	ldw	r3,-8(fp)
   22890:	1885883a 	add	r2,r3,r2
   22894:	2007883a 	mov	r3,r4
   22898:	10c00005 	stb	r3,0(r2)
   2289c:	e0bffc17 	ldw	r2,-16(fp)
   228a0:	10800017 	ldw	r2,0(r2)
   228a4:	10c00044 	addi	r3,r2,1
   228a8:	e0bffc17 	ldw	r2,-16(fp)
   228ac:	10c00015 	stw	r3,0(r2)
   228b0:	e0bffc17 	ldw	r2,-16(fp)
   228b4:	10800017 	ldw	r2,0(r2)
   228b8:	e0fffd17 	ldw	r3,-12(fp)
   228bc:	1880021e 	bne	r3,r2,228c8 <alt_avalon_i2c_rx_read_available+0x7c>
   228c0:	e0bffd17 	ldw	r2,-12(fp)
   228c4:	1000061e 	bne	r2,zero,228e0 <alt_avalon_i2c_rx_read_available+0x94>
   228c8:	e0bfff17 	ldw	r2,-4(fp)
   228cc:	10800317 	ldw	r2,12(r2)
   228d0:	10800704 	addi	r2,r2,28
   228d4:	10800037 	ldwio	r2,0(r2)
   228d8:	103fe61e 	bne	r2,zero,22874 <alt_avalon_i2c_rx_read_available+0x28>
   228dc:	00000106 	br	228e4 <alt_avalon_i2c_rx_read_available+0x98>
   228e0:	0001883a 	nop
   228e4:	0001883a 	nop
   228e8:	e037883a 	mov	sp,fp
   228ec:	df000017 	ldw	fp,0(sp)
   228f0:	dec00104 	addi	sp,sp,4
   228f4:	f800283a 	ret

000228f8 <alt_avalon_i2c_rx_read>:
   228f8:	defffa04 	addi	sp,sp,-24
   228fc:	dfc00515 	stw	ra,20(sp)
   22900:	df000415 	stw	fp,16(sp)
   22904:	df000404 	addi	fp,sp,16
   22908:	e13ffd15 	stw	r4,-12(fp)
   2290c:	e17ffc15 	stw	r5,-16(fp)
   22910:	e03fff15 	stw	zero,-4(fp)
   22914:	008000b4 	movhi	r2,2
   22918:	10a1a804 	addi	r2,r2,-31072
   2291c:	e0bffe15 	stw	r2,-8(fp)
   22920:	00000d06 	br	22958 <alt_avalon_i2c_rx_read+0x60>
   22924:	e0bffe17 	ldw	r2,-8(fp)
   22928:	108002a8 	cmpgeui	r2,r2,10
   2292c:	1000021e 	bne	r2,zero,22938 <alt_avalon_i2c_rx_read+0x40>
   22930:	0109c404 	movi	r4,10000
   22934:	0025edc0 	call	25edc <alt_busy_sleep>
   22938:	e0bffe17 	ldw	r2,-8(fp)
   2293c:	10bfffc4 	addi	r2,r2,-1
   22940:	e0bffe15 	stw	r2,-8(fp)
   22944:	e0bffe17 	ldw	r2,-8(fp)
   22948:	1000031e 	bne	r2,zero,22958 <alt_avalon_i2c_rx_read+0x60>
   2294c:	00bfff84 	movi	r2,-2
   22950:	e0bfff15 	stw	r2,-4(fp)
   22954:	00000506 	br	2296c <alt_avalon_i2c_rx_read+0x74>
   22958:	e0bffd17 	ldw	r2,-12(fp)
   2295c:	10800317 	ldw	r2,12(r2)
   22960:	10800704 	addi	r2,r2,28
   22964:	10800037 	ldwio	r2,0(r2)
   22968:	103fee26 	beq	r2,zero,22924 <alt_avalon_i2c_rx_read+0x2c>
   2296c:	e0bffd17 	ldw	r2,-12(fp)
   22970:	10800317 	ldw	r2,12(r2)
   22974:	10800104 	addi	r2,r2,4
   22978:	10800037 	ldwio	r2,0(r2)
   2297c:	1007883a 	mov	r3,r2
   22980:	e0bffc17 	ldw	r2,-16(fp)
   22984:	10c00005 	stb	r3,0(r2)
   22988:	e0bfff17 	ldw	r2,-4(fp)
   2298c:	e037883a 	mov	sp,fp
   22990:	dfc00117 	ldw	ra,4(sp)
   22994:	df000017 	ldw	fp,0(sp)
   22998:	dec00204 	addi	sp,sp,8
   2299c:	f800283a 	ret

000229a0 <alt_avalon_i2c_cmd_write>:
   229a0:	defff804 	addi	sp,sp,-32
   229a4:	dfc00715 	stw	ra,28(sp)
   229a8:	df000615 	stw	fp,24(sp)
   229ac:	df000604 	addi	fp,sp,24
   229b0:	e13ffd15 	stw	r4,-12(fp)
   229b4:	2805883a 	mov	r2,r5
   229b8:	3009883a 	mov	r4,r6
   229bc:	3807883a 	mov	r3,r7
   229c0:	e0bffc05 	stb	r2,-16(fp)
   229c4:	2005883a 	mov	r2,r4
   229c8:	e0bffb05 	stb	r2,-20(fp)
   229cc:	1805883a 	mov	r2,r3
   229d0:	e0bffa05 	stb	r2,-24(fp)
   229d4:	0089c404 	movi	r2,10000
   229d8:	e0bfff15 	stw	r2,-4(fp)
   229dc:	e03ffe15 	stw	zero,-8(fp)
   229e0:	00000c06 	br	22a14 <alt_avalon_i2c_cmd_write+0x74>
   229e4:	e0bfff17 	ldw	r2,-4(fp)
   229e8:	108002a8 	cmpgeui	r2,r2,10
   229ec:	1000021e 	bne	r2,zero,229f8 <alt_avalon_i2c_cmd_write+0x58>
   229f0:	0109c404 	movi	r4,10000
   229f4:	0025edc0 	call	25edc <alt_busy_sleep>
   229f8:	e0bfff17 	ldw	r2,-4(fp)
   229fc:	10bfffc4 	addi	r2,r2,-1
   22a00:	e0bfff15 	stw	r2,-4(fp)
   22a04:	e0bfff17 	ldw	r2,-4(fp)
   22a08:	1000021e 	bne	r2,zero,22a14 <alt_avalon_i2c_cmd_write+0x74>
   22a0c:	00bfff84 	movi	r2,-2
   22a10:	00001906 	br	22a78 <alt_avalon_i2c_cmd_write+0xd8>
   22a14:	e0bffd17 	ldw	r2,-12(fp)
   22a18:	10800317 	ldw	r2,12(r2)
   22a1c:	10800404 	addi	r2,r2,16
   22a20:	10800037 	ldwio	r2,0(r2)
   22a24:	1080004c 	andi	r2,r2,1
   22a28:	103fee26 	beq	r2,zero,229e4 <alt_avalon_i2c_cmd_write+0x44>
   22a2c:	e0bffd17 	ldw	r2,-12(fp)
   22a30:	10800317 	ldw	r2,12(r2)
   22a34:	e13ffc03 	ldbu	r4,-16(fp)
   22a38:	e0fffb03 	ldbu	r3,-20(fp)
   22a3c:	1806927a 	slli	r3,r3,9
   22a40:	20c8b03a 	or	r4,r4,r3
   22a44:	e0fffa03 	ldbu	r3,-24(fp)
   22a48:	1806923a 	slli	r3,r3,8
   22a4c:	20c6b03a 	or	r3,r4,r3
   22a50:	10c00035 	stwio	r3,0(r2)
   22a54:	e0bffe04 	addi	r2,fp,-8
   22a58:	100b883a 	mov	r5,r2
   22a5c:	e13ffd17 	ldw	r4,-12(fp)
   22a60:	0022be80 	call	22be8 <alt_avalon_i2c_check_nack>
   22a64:	e0bffe04 	addi	r2,fp,-8
   22a68:	100b883a 	mov	r5,r2
   22a6c:	e13ffd17 	ldw	r4,-12(fp)
   22a70:	0022c340 	call	22c34 <alt_avalon_i2c_check_arblost>
   22a74:	e0bffe17 	ldw	r2,-8(fp)
   22a78:	e037883a 	mov	sp,fp
   22a7c:	dfc00117 	ldw	ra,4(sp)
   22a80:	df000017 	ldw	fp,0(sp)
   22a84:	dec00204 	addi	sp,sp,8
   22a88:	f800283a 	ret

00022a8c <alt_avalon_i2c_send_address>:
   22a8c:	defffa04 	addi	sp,sp,-24
   22a90:	dfc00515 	stw	ra,20(sp)
   22a94:	df000415 	stw	fp,16(sp)
   22a98:	df000404 	addi	fp,sp,16
   22a9c:	e13ffe15 	stw	r4,-8(fp)
   22aa0:	e17ffd15 	stw	r5,-12(fp)
   22aa4:	3005883a 	mov	r2,r6
   22aa8:	e0bffc05 	stb	r2,-16(fp)
   22aac:	e0bffe17 	ldw	r2,-8(fp)
   22ab0:	10800d17 	ldw	r2,52(r2)
   22ab4:	10800058 	cmpnei	r2,r2,1
   22ab8:	10001c1e 	bne	r2,zero,22b2c <alt_avalon_i2c_send_address+0xa0>
   22abc:	e0bffe17 	ldw	r2,-8(fp)
   22ac0:	10800917 	ldw	r2,36(r2)
   22ac4:	1004d1fa 	srli	r2,r2,7
   22ac8:	1080038c 	andi	r2,r2,14
   22acc:	1007883a 	mov	r3,r2
   22ad0:	e0bffd17 	ldw	r2,-12(fp)
   22ad4:	1884b03a 	or	r2,r3,r2
   22ad8:	1007883a 	mov	r3,r2
   22adc:	00bffc04 	movi	r2,-16
   22ae0:	1884b03a 	or	r2,r3,r2
   22ae4:	10803fcc 	andi	r2,r2,255
   22ae8:	e0fffc03 	ldbu	r3,-16(fp)
   22aec:	000f883a 	mov	r7,zero
   22af0:	180d883a 	mov	r6,r3
   22af4:	100b883a 	mov	r5,r2
   22af8:	e13ffe17 	ldw	r4,-8(fp)
   22afc:	00229a00 	call	229a0 <alt_avalon_i2c_cmd_write>
   22b00:	e0bfff15 	stw	r2,-4(fp)
   22b04:	e0bffe17 	ldw	r2,-8(fp)
   22b08:	10800917 	ldw	r2,36(r2)
   22b0c:	10803fcc 	andi	r2,r2,255
   22b10:	000f883a 	mov	r7,zero
   22b14:	000d883a 	mov	r6,zero
   22b18:	100b883a 	mov	r5,r2
   22b1c:	e13ffe17 	ldw	r4,-8(fp)
   22b20:	00229a00 	call	229a0 <alt_avalon_i2c_cmd_write>
   22b24:	e0bfff15 	stw	r2,-4(fp)
   22b28:	00000e06 	br	22b64 <alt_avalon_i2c_send_address+0xd8>
   22b2c:	e0bffe17 	ldw	r2,-8(fp)
   22b30:	10800917 	ldw	r2,36(r2)
   22b34:	1085883a 	add	r2,r2,r2
   22b38:	1007883a 	mov	r3,r2
   22b3c:	e0bffd17 	ldw	r2,-12(fp)
   22b40:	1884b03a 	or	r2,r3,r2
   22b44:	10803fcc 	andi	r2,r2,255
   22b48:	e0fffc03 	ldbu	r3,-16(fp)
   22b4c:	000f883a 	mov	r7,zero
   22b50:	180d883a 	mov	r6,r3
   22b54:	100b883a 	mov	r5,r2
   22b58:	e13ffe17 	ldw	r4,-8(fp)
   22b5c:	00229a00 	call	229a0 <alt_avalon_i2c_cmd_write>
   22b60:	e0bfff15 	stw	r2,-4(fp)
   22b64:	e0bfff17 	ldw	r2,-4(fp)
   22b68:	e037883a 	mov	sp,fp
   22b6c:	dfc00117 	ldw	ra,4(sp)
   22b70:	df000017 	ldw	fp,0(sp)
   22b74:	dec00204 	addi	sp,sp,8
   22b78:	f800283a 	ret

00022b7c <alt_avalon_i2c_master_target_get>:
   22b7c:	defffd04 	addi	sp,sp,-12
   22b80:	df000215 	stw	fp,8(sp)
   22b84:	df000204 	addi	fp,sp,8
   22b88:	e13fff15 	stw	r4,-4(fp)
   22b8c:	e17ffe15 	stw	r5,-8(fp)
   22b90:	e0bfff17 	ldw	r2,-4(fp)
   22b94:	10c00917 	ldw	r3,36(r2)
   22b98:	e0bffe17 	ldw	r2,-8(fp)
   22b9c:	10c00015 	stw	r3,0(r2)
   22ba0:	0001883a 	nop
   22ba4:	e037883a 	mov	sp,fp
   22ba8:	df000017 	ldw	fp,0(sp)
   22bac:	dec00104 	addi	sp,sp,4
   22bb0:	f800283a 	ret

00022bb4 <alt_avalon_i2c_master_target_set>:
   22bb4:	defffd04 	addi	sp,sp,-12
   22bb8:	df000215 	stw	fp,8(sp)
   22bbc:	df000204 	addi	fp,sp,8
   22bc0:	e13fff15 	stw	r4,-4(fp)
   22bc4:	e17ffe15 	stw	r5,-8(fp)
   22bc8:	e0bfff17 	ldw	r2,-4(fp)
   22bcc:	e0fffe17 	ldw	r3,-8(fp)
   22bd0:	10c00915 	stw	r3,36(r2)
   22bd4:	0001883a 	nop
   22bd8:	e037883a 	mov	sp,fp
   22bdc:	df000017 	ldw	fp,0(sp)
   22be0:	dec00104 	addi	sp,sp,4
   22be4:	f800283a 	ret

00022be8 <alt_avalon_i2c_check_nack>:
   22be8:	defffd04 	addi	sp,sp,-12
   22bec:	df000215 	stw	fp,8(sp)
   22bf0:	df000204 	addi	fp,sp,8
   22bf4:	e13fff15 	stw	r4,-4(fp)
   22bf8:	e17ffe15 	stw	r5,-8(fp)
   22bfc:	e0bfff17 	ldw	r2,-4(fp)
   22c00:	10800317 	ldw	r2,12(r2)
   22c04:	10800404 	addi	r2,r2,16
   22c08:	10800037 	ldwio	r2,0(r2)
   22c0c:	1080010c 	andi	r2,r2,4
   22c10:	10000326 	beq	r2,zero,22c20 <alt_avalon_i2c_check_nack+0x38>
   22c14:	e0bffe17 	ldw	r2,-8(fp)
   22c18:	00fffec4 	movi	r3,-5
   22c1c:	10c00015 	stw	r3,0(r2)
   22c20:	0001883a 	nop
   22c24:	e037883a 	mov	sp,fp
   22c28:	df000017 	ldw	fp,0(sp)
   22c2c:	dec00104 	addi	sp,sp,4
   22c30:	f800283a 	ret

00022c34 <alt_avalon_i2c_check_arblost>:
   22c34:	defffd04 	addi	sp,sp,-12
   22c38:	df000215 	stw	fp,8(sp)
   22c3c:	df000204 	addi	fp,sp,8
   22c40:	e13fff15 	stw	r4,-4(fp)
   22c44:	e17ffe15 	stw	r5,-8(fp)
   22c48:	e0bfff17 	ldw	r2,-4(fp)
   22c4c:	10800317 	ldw	r2,12(r2)
   22c50:	10800404 	addi	r2,r2,16
   22c54:	10800037 	ldwio	r2,0(r2)
   22c58:	1080020c 	andi	r2,r2,8
   22c5c:	10000326 	beq	r2,zero,22c6c <alt_avalon_i2c_check_arblost+0x38>
   22c60:	e0bffe17 	ldw	r2,-8(fp)
   22c64:	00fffe84 	movi	r3,-6
   22c68:	10c00015 	stw	r3,0(r2)
   22c6c:	0001883a 	nop
   22c70:	e037883a 	mov	sp,fp
   22c74:	df000017 	ldw	fp,0(sp)
   22c78:	dec00104 	addi	sp,sp,4
   22c7c:	f800283a 	ret

00022c80 <alt_avalon_i2c_interrupt_transaction_status>:
   22c80:	defff804 	addi	sp,sp,-32
   22c84:	dfc00715 	stw	ra,28(sp)
   22c88:	df000615 	stw	fp,24(sp)
   22c8c:	df000604 	addi	fp,sp,24
   22c90:	e13ffa15 	stw	r4,-24(fp)
   22c94:	e03ffd15 	stw	zero,-12(fp)
   22c98:	e0bffa17 	ldw	r2,-24(fp)
   22c9c:	10800717 	ldw	r2,28(r2)
   22ca0:	e0bffe15 	stw	r2,-8(fp)
   22ca4:	e0bffe17 	ldw	r2,-8(fp)
   22ca8:	10800117 	ldw	r2,4(r2)
   22cac:	10800044 	addi	r2,r2,1
   22cb0:	0149c404 	movi	r5,10000
   22cb4:	1009883a 	mov	r4,r2
   22cb8:	00212e40 	call	212e4 <__mulsi3>
   22cbc:	e0bfff15 	stw	r2,-4(fp)
   22cc0:	e0bffc04 	addi	r2,fp,-16
   22cc4:	100b883a 	mov	r5,r2
   22cc8:	e13ffa17 	ldw	r4,-24(fp)
   22ccc:	0023b200 	call	23b20 <alt_avalon_i2c_enabled_ints_get>
   22cd0:	e0bffc17 	ldw	r2,-16(fp)
   22cd4:	100b883a 	mov	r5,r2
   22cd8:	e13ffa17 	ldw	r4,-24(fp)
   22cdc:	0023a4c0 	call	23a4c <alt_avalon_i2c_int_disable>
   22ce0:	e0bffd04 	addi	r2,fp,-12
   22ce4:	100b883a 	mov	r5,r2
   22ce8:	e13ffa17 	ldw	r4,-24(fp)
   22cec:	0022be80 	call	22be8 <alt_avalon_i2c_check_nack>
   22cf0:	e0bffd17 	ldw	r2,-12(fp)
   22cf4:	10002226 	beq	r2,zero,22d80 <alt_avalon_i2c_interrupt_transaction_status+0x100>
   22cf8:	e0bffe17 	ldw	r2,-8(fp)
   22cfc:	10800217 	ldw	r2,8(r2)
   22d00:	10001d26 	beq	r2,zero,22d78 <alt_avalon_i2c_interrupt_transaction_status+0xf8>
   22d04:	00000d06 	br	22d3c <alt_avalon_i2c_interrupt_transaction_status+0xbc>
   22d08:	e0bfff17 	ldw	r2,-4(fp)
   22d0c:	108002a8 	cmpgeui	r2,r2,10
   22d10:	1000021e 	bne	r2,zero,22d1c <alt_avalon_i2c_interrupt_transaction_status+0x9c>
   22d14:	0109c404 	movi	r4,10000
   22d18:	0025edc0 	call	25edc <alt_busy_sleep>
   22d1c:	e0bfff17 	ldw	r2,-4(fp)
   22d20:	10bfffc4 	addi	r2,r2,-1
   22d24:	e0bfff15 	stw	r2,-4(fp)
   22d28:	e0bfff17 	ldw	r2,-4(fp)
   22d2c:	1000031e 	bne	r2,zero,22d3c <alt_avalon_i2c_interrupt_transaction_status+0xbc>
   22d30:	00bfff84 	movi	r2,-2
   22d34:	e0bffd15 	stw	r2,-12(fp)
   22d38:	00000306 	br	22d48 <alt_avalon_i2c_interrupt_transaction_status+0xc8>
   22d3c:	e13ffa17 	ldw	r4,-24(fp)
   22d40:	00228080 	call	22808 <alt_avalon_i2c_is_busy>
   22d44:	103ff01e 	bne	r2,zero,22d08 <alt_avalon_i2c_interrupt_transaction_status+0x88>
   22d48:	e0bffe17 	ldw	r2,-8(fp)
   22d4c:	10800017 	ldw	r2,0(r2)
   22d50:	e0fffb04 	addi	r3,fp,-20
   22d54:	180f883a 	mov	r7,r3
   22d58:	000d883a 	mov	r6,zero
   22d5c:	100b883a 	mov	r5,r2
   22d60:	e13ffa17 	ldw	r4,-24(fp)
   22d64:	002284c0 	call	2284c <alt_avalon_i2c_rx_read_available>
   22d68:	e13ffa17 	ldw	r4,-24(fp)
   22d6c:	00224b00 	call	224b0 <alt_avalon_i2c_disable>
   22d70:	e0bffe17 	ldw	r2,-8(fp)
   22d74:	10000215 	stw	zero,8(r2)
   22d78:	e0bffd17 	ldw	r2,-12(fp)
   22d7c:	00000a06 	br	22da8 <alt_avalon_i2c_interrupt_transaction_status+0x128>
   22d80:	e0bffe17 	ldw	r2,-8(fp)
   22d84:	10800217 	ldw	r2,8(r2)
   22d88:	10000626 	beq	r2,zero,22da4 <alt_avalon_i2c_interrupt_transaction_status+0x124>
   22d8c:	e0bffc17 	ldw	r2,-16(fp)
   22d90:	100b883a 	mov	r5,r2
   22d94:	e13ffa17 	ldw	r4,-24(fp)
   22d98:	0023ab80 	call	23ab8 <alt_avalon_i2c_int_enable>
   22d9c:	00bffe44 	movi	r2,-7
   22da0:	00000106 	br	22da8 <alt_avalon_i2c_interrupt_transaction_status+0x128>
   22da4:	0005883a 	mov	r2,zero
   22da8:	e037883a 	mov	sp,fp
   22dac:	dfc00117 	ldw	ra,4(sp)
   22db0:	df000017 	ldw	fp,0(sp)
   22db4:	dec00204 	addi	sp,sp,8
   22db8:	f800283a 	ret

00022dbc <alt_avalon_i2c_master_tx>:
   22dbc:	defff704 	addi	sp,sp,-36
   22dc0:	dfc00815 	stw	ra,32(sp)
   22dc4:	df000715 	stw	fp,28(sp)
   22dc8:	df000704 	addi	fp,sp,28
   22dcc:	e13ffd15 	stw	r4,-12(fp)
   22dd0:	e17ffc15 	stw	r5,-16(fp)
   22dd4:	e1bffb15 	stw	r6,-20(fp)
   22dd8:	3805883a 	mov	r2,r7
   22ddc:	e0bffa05 	stb	r2,-24(fp)
   22de0:	0089c404 	movi	r2,10000
   22de4:	e0bffe15 	stw	r2,-8(fp)
   22de8:	00002206 	br	22e74 <alt_avalon_i2c_master_tx+0xb8>
   22dec:	e0bffe17 	ldw	r2,-8(fp)
   22df0:	108002a8 	cmpgeui	r2,r2,10
   22df4:	1000021e 	bne	r2,zero,22e00 <alt_avalon_i2c_master_tx+0x44>
   22df8:	0109c404 	movi	r4,10000
   22dfc:	0025edc0 	call	25edc <alt_busy_sleep>
   22e00:	e0bffa03 	ldbu	r2,-24(fp)
   22e04:	10000926 	beq	r2,zero,22e2c <alt_avalon_i2c_master_tx+0x70>
   22e08:	00800044 	movi	r2,1
   22e0c:	d8800015 	stw	r2,0(sp)
   22e10:	000f883a 	mov	r7,zero
   22e14:	e1bffb17 	ldw	r6,-20(fp)
   22e18:	e17ffc17 	ldw	r5,-16(fp)
   22e1c:	e13ffd17 	ldw	r4,-12(fp)
   22e20:	00233680 	call	23368 <alt_avalon_i2c_master_transmit_using_interrupts>
   22e24:	e0bfff15 	stw	r2,-4(fp)
   22e28:	00000806 	br	22e4c <alt_avalon_i2c_master_tx+0x90>
   22e2c:	00800044 	movi	r2,1
   22e30:	d8800015 	stw	r2,0(sp)
   22e34:	000f883a 	mov	r7,zero
   22e38:	e1bffb17 	ldw	r6,-20(fp)
   22e3c:	e17ffc17 	ldw	r5,-16(fp)
   22e40:	e13ffd17 	ldw	r4,-12(fp)
   22e44:	00231a80 	call	231a8 <alt_avalon_i2c_master_transmit>
   22e48:	e0bfff15 	stw	r2,-4(fp)
   22e4c:	e0bfff17 	ldw	r2,-4(fp)
   22e50:	10bffea0 	cmpeqi	r2,r2,-6
   22e54:	1000061e 	bne	r2,zero,22e70 <alt_avalon_i2c_master_tx+0xb4>
   22e58:	e0bfff17 	ldw	r2,-4(fp)
   22e5c:	10bffee0 	cmpeqi	r2,r2,-5
   22e60:	1000031e 	bne	r2,zero,22e70 <alt_avalon_i2c_master_tx+0xb4>
   22e64:	e0bfff17 	ldw	r2,-4(fp)
   22e68:	10bffe58 	cmpnei	r2,r2,-7
   22e6c:	1000061e 	bne	r2,zero,22e88 <alt_avalon_i2c_master_tx+0xcc>
   22e70:	0001883a 	nop
   22e74:	e0bffe17 	ldw	r2,-8(fp)
   22e78:	10ffffc4 	addi	r3,r2,-1
   22e7c:	e0fffe15 	stw	r3,-8(fp)
   22e80:	103fda1e 	bne	r2,zero,22dec <alt_avalon_i2c_master_tx+0x30>
   22e84:	00000106 	br	22e8c <alt_avalon_i2c_master_tx+0xd0>
   22e88:	0001883a 	nop
   22e8c:	e0bfff17 	ldw	r2,-4(fp)
   22e90:	e037883a 	mov	sp,fp
   22e94:	dfc00117 	ldw	ra,4(sp)
   22e98:	df000017 	ldw	fp,0(sp)
   22e9c:	dec00204 	addi	sp,sp,8
   22ea0:	f800283a 	ret

00022ea4 <alt_avalon_i2c_master_rx>:
   22ea4:	defff704 	addi	sp,sp,-36
   22ea8:	dfc00815 	stw	ra,32(sp)
   22eac:	df000715 	stw	fp,28(sp)
   22eb0:	df000704 	addi	fp,sp,28
   22eb4:	e13ffd15 	stw	r4,-12(fp)
   22eb8:	e17ffc15 	stw	r5,-16(fp)
   22ebc:	e1bffb15 	stw	r6,-20(fp)
   22ec0:	3805883a 	mov	r2,r7
   22ec4:	e0bffa05 	stb	r2,-24(fp)
   22ec8:	0089c404 	movi	r2,10000
   22ecc:	e0bffe15 	stw	r2,-8(fp)
   22ed0:	e0bffa03 	ldbu	r2,-24(fp)
   22ed4:	10003426 	beq	r2,zero,22fa8 <alt_avalon_i2c_master_rx+0x104>
   22ed8:	00001706 	br	22f38 <alt_avalon_i2c_master_rx+0x94>
   22edc:	e0bffe17 	ldw	r2,-8(fp)
   22ee0:	108002a8 	cmpgeui	r2,r2,10
   22ee4:	1000021e 	bne	r2,zero,22ef0 <alt_avalon_i2c_master_rx+0x4c>
   22ee8:	0109c404 	movi	r4,10000
   22eec:	0025edc0 	call	25edc <alt_busy_sleep>
   22ef0:	00800044 	movi	r2,1
   22ef4:	d8800015 	stw	r2,0(sp)
   22ef8:	000f883a 	mov	r7,zero
   22efc:	e1bffb17 	ldw	r6,-20(fp)
   22f00:	e17ffc17 	ldw	r5,-16(fp)
   22f04:	e13ffd17 	ldw	r4,-12(fp)
   22f08:	00237840 	call	23784 <alt_avalon_i2c_master_receive_using_interrupts>
   22f0c:	e0bfff15 	stw	r2,-4(fp)
   22f10:	e0bfff17 	ldw	r2,-4(fp)
   22f14:	10bffea0 	cmpeqi	r2,r2,-6
   22f18:	1000061e 	bne	r2,zero,22f34 <alt_avalon_i2c_master_rx+0x90>
   22f1c:	e0bfff17 	ldw	r2,-4(fp)
   22f20:	10bffee0 	cmpeqi	r2,r2,-5
   22f24:	1000031e 	bne	r2,zero,22f34 <alt_avalon_i2c_master_rx+0x90>
   22f28:	e0bfff17 	ldw	r2,-4(fp)
   22f2c:	10bffe58 	cmpnei	r2,r2,-7
   22f30:	1000221e 	bne	r2,zero,22fbc <alt_avalon_i2c_master_rx+0x118>
   22f34:	0001883a 	nop
   22f38:	e0bffe17 	ldw	r2,-8(fp)
   22f3c:	10ffffc4 	addi	r3,r2,-1
   22f40:	e0fffe15 	stw	r3,-8(fp)
   22f44:	103fe51e 	bne	r2,zero,22edc <alt_avalon_i2c_master_rx+0x38>
   22f48:	00001f06 	br	22fc8 <alt_avalon_i2c_master_rx+0x124>
   22f4c:	e0bffe17 	ldw	r2,-8(fp)
   22f50:	108002a8 	cmpgeui	r2,r2,10
   22f54:	1000021e 	bne	r2,zero,22f60 <alt_avalon_i2c_master_rx+0xbc>
   22f58:	0109c404 	movi	r4,10000
   22f5c:	0025edc0 	call	25edc <alt_busy_sleep>
   22f60:	00800044 	movi	r2,1
   22f64:	d8800015 	stw	r2,0(sp)
   22f68:	000f883a 	mov	r7,zero
   22f6c:	e1bffb17 	ldw	r6,-20(fp)
   22f70:	e17ffc17 	ldw	r5,-16(fp)
   22f74:	e13ffd17 	ldw	r4,-12(fp)
   22f78:	00235740 	call	23574 <alt_avalon_i2c_master_receive>
   22f7c:	e0bfff15 	stw	r2,-4(fp)
   22f80:	e0bfff17 	ldw	r2,-4(fp)
   22f84:	10bffea0 	cmpeqi	r2,r2,-6
   22f88:	1000061e 	bne	r2,zero,22fa4 <alt_avalon_i2c_master_rx+0x100>
   22f8c:	e0bfff17 	ldw	r2,-4(fp)
   22f90:	10bffee0 	cmpeqi	r2,r2,-5
   22f94:	1000031e 	bne	r2,zero,22fa4 <alt_avalon_i2c_master_rx+0x100>
   22f98:	e0bfff17 	ldw	r2,-4(fp)
   22f9c:	10bffe58 	cmpnei	r2,r2,-7
   22fa0:	1000081e 	bne	r2,zero,22fc4 <alt_avalon_i2c_master_rx+0x120>
   22fa4:	0001883a 	nop
   22fa8:	e0bffe17 	ldw	r2,-8(fp)
   22fac:	10ffffc4 	addi	r3,r2,-1
   22fb0:	e0fffe15 	stw	r3,-8(fp)
   22fb4:	103fe51e 	bne	r2,zero,22f4c <alt_avalon_i2c_master_rx+0xa8>
   22fb8:	00000306 	br	22fc8 <alt_avalon_i2c_master_rx+0x124>
   22fbc:	0001883a 	nop
   22fc0:	00000106 	br	22fc8 <alt_avalon_i2c_master_rx+0x124>
   22fc4:	0001883a 	nop
   22fc8:	e0bfff17 	ldw	r2,-4(fp)
   22fcc:	e037883a 	mov	sp,fp
   22fd0:	dfc00117 	ldw	ra,4(sp)
   22fd4:	df000017 	ldw	fp,0(sp)
   22fd8:	dec00204 	addi	sp,sp,8
   22fdc:	f800283a 	ret

00022fe0 <alt_avalon_i2c_master_tx_rx>:
   22fe0:	defff604 	addi	sp,sp,-40
   22fe4:	dfc00915 	stw	ra,36(sp)
   22fe8:	df000815 	stw	fp,32(sp)
   22fec:	df000804 	addi	fp,sp,32
   22ff0:	e13ffd15 	stw	r4,-12(fp)
   22ff4:	e17ffc15 	stw	r5,-16(fp)
   22ff8:	e1bffb15 	stw	r6,-20(fp)
   22ffc:	e1fffa15 	stw	r7,-24(fp)
   23000:	e0800317 	ldw	r2,12(fp)
   23004:	e0bff905 	stb	r2,-28(fp)
   23008:	0089c404 	movi	r2,10000
   2300c:	e0bffe15 	stw	r2,-8(fp)
   23010:	e0bff903 	ldbu	r2,-28(fp)
   23014:	10005626 	beq	r2,zero,23170 <alt_avalon_i2c_master_tx_rx+0x190>
   23018:	00002806 	br	230bc <alt_avalon_i2c_master_tx_rx+0xdc>
   2301c:	e0bffe17 	ldw	r2,-8(fp)
   23020:	108002a8 	cmpgeui	r2,r2,10
   23024:	1000021e 	bne	r2,zero,23030 <alt_avalon_i2c_master_tx_rx+0x50>
   23028:	0109c404 	movi	r4,10000
   2302c:	0025edc0 	call	25edc <alt_busy_sleep>
   23030:	d8000015 	stw	zero,0(sp)
   23034:	000f883a 	mov	r7,zero
   23038:	e1bffb17 	ldw	r6,-20(fp)
   2303c:	e17ffc17 	ldw	r5,-16(fp)
   23040:	e13ffd17 	ldw	r4,-12(fp)
   23044:	00233680 	call	23368 <alt_avalon_i2c_master_transmit_using_interrupts>
   23048:	e0bfff15 	stw	r2,-4(fp)
   2304c:	e0bfff17 	ldw	r2,-4(fp)
   23050:	10bffea0 	cmpeqi	r2,r2,-6
   23054:	1000191e 	bne	r2,zero,230bc <alt_avalon_i2c_master_tx_rx+0xdc>
   23058:	e0bfff17 	ldw	r2,-4(fp)
   2305c:	10bffee0 	cmpeqi	r2,r2,-5
   23060:	1000161e 	bne	r2,zero,230bc <alt_avalon_i2c_master_tx_rx+0xdc>
   23064:	e0bfff17 	ldw	r2,-4(fp)
   23068:	10bffe58 	cmpnei	r2,r2,-7
   2306c:	1000011e 	bne	r2,zero,23074 <alt_avalon_i2c_master_tx_rx+0x94>
   23070:	00001206 	br	230bc <alt_avalon_i2c_master_tx_rx+0xdc>
   23074:	00800044 	movi	r2,1
   23078:	d8800015 	stw	r2,0(sp)
   2307c:	01c00044 	movi	r7,1
   23080:	e1800217 	ldw	r6,8(fp)
   23084:	e17ffa17 	ldw	r5,-24(fp)
   23088:	e13ffd17 	ldw	r4,-12(fp)
   2308c:	00237840 	call	23784 <alt_avalon_i2c_master_receive_using_interrupts>
   23090:	e0bfff15 	stw	r2,-4(fp)
   23094:	e0bfff17 	ldw	r2,-4(fp)
   23098:	10bffea0 	cmpeqi	r2,r2,-6
   2309c:	1000061e 	bne	r2,zero,230b8 <alt_avalon_i2c_master_tx_rx+0xd8>
   230a0:	e0bfff17 	ldw	r2,-4(fp)
   230a4:	10bffee0 	cmpeqi	r2,r2,-5
   230a8:	1000031e 	bne	r2,zero,230b8 <alt_avalon_i2c_master_tx_rx+0xd8>
   230ac:	e0bfff17 	ldw	r2,-4(fp)
   230b0:	10bffe58 	cmpnei	r2,r2,-7
   230b4:	1000331e 	bne	r2,zero,23184 <alt_avalon_i2c_master_tx_rx+0x1a4>
   230b8:	0001883a 	nop
   230bc:	e0bffe17 	ldw	r2,-8(fp)
   230c0:	10ffffc4 	addi	r3,r2,-1
   230c4:	e0fffe15 	stw	r3,-8(fp)
   230c8:	103fd41e 	bne	r2,zero,2301c <alt_avalon_i2c_master_tx_rx+0x3c>
   230cc:	00003006 	br	23190 <alt_avalon_i2c_master_tx_rx+0x1b0>
   230d0:	e0bffe17 	ldw	r2,-8(fp)
   230d4:	108002a8 	cmpgeui	r2,r2,10
   230d8:	1000021e 	bne	r2,zero,230e4 <alt_avalon_i2c_master_tx_rx+0x104>
   230dc:	0109c404 	movi	r4,10000
   230e0:	0025edc0 	call	25edc <alt_busy_sleep>
   230e4:	d8000015 	stw	zero,0(sp)
   230e8:	000f883a 	mov	r7,zero
   230ec:	e1bffb17 	ldw	r6,-20(fp)
   230f0:	e17ffc17 	ldw	r5,-16(fp)
   230f4:	e13ffd17 	ldw	r4,-12(fp)
   230f8:	00231a80 	call	231a8 <alt_avalon_i2c_master_transmit>
   230fc:	e0bfff15 	stw	r2,-4(fp)
   23100:	e0bfff17 	ldw	r2,-4(fp)
   23104:	10bffea0 	cmpeqi	r2,r2,-6
   23108:	1000191e 	bne	r2,zero,23170 <alt_avalon_i2c_master_tx_rx+0x190>
   2310c:	e0bfff17 	ldw	r2,-4(fp)
   23110:	10bffee0 	cmpeqi	r2,r2,-5
   23114:	1000161e 	bne	r2,zero,23170 <alt_avalon_i2c_master_tx_rx+0x190>
   23118:	e0bfff17 	ldw	r2,-4(fp)
   2311c:	10bffe58 	cmpnei	r2,r2,-7
   23120:	1000011e 	bne	r2,zero,23128 <alt_avalon_i2c_master_tx_rx+0x148>
   23124:	00001206 	br	23170 <alt_avalon_i2c_master_tx_rx+0x190>
   23128:	00800044 	movi	r2,1
   2312c:	d8800015 	stw	r2,0(sp)
   23130:	01c00044 	movi	r7,1
   23134:	e1800217 	ldw	r6,8(fp)
   23138:	e17ffa17 	ldw	r5,-24(fp)
   2313c:	e13ffd17 	ldw	r4,-12(fp)
   23140:	00235740 	call	23574 <alt_avalon_i2c_master_receive>
   23144:	e0bfff15 	stw	r2,-4(fp)
   23148:	e0bfff17 	ldw	r2,-4(fp)
   2314c:	10bffea0 	cmpeqi	r2,r2,-6
   23150:	1000061e 	bne	r2,zero,2316c <alt_avalon_i2c_master_tx_rx+0x18c>
   23154:	e0bfff17 	ldw	r2,-4(fp)
   23158:	10bffee0 	cmpeqi	r2,r2,-5
   2315c:	1000031e 	bne	r2,zero,2316c <alt_avalon_i2c_master_tx_rx+0x18c>
   23160:	e0bfff17 	ldw	r2,-4(fp)
   23164:	10bffe58 	cmpnei	r2,r2,-7
   23168:	1000081e 	bne	r2,zero,2318c <alt_avalon_i2c_master_tx_rx+0x1ac>
   2316c:	0001883a 	nop
   23170:	e0bffe17 	ldw	r2,-8(fp)
   23174:	10ffffc4 	addi	r3,r2,-1
   23178:	e0fffe15 	stw	r3,-8(fp)
   2317c:	103fd41e 	bne	r2,zero,230d0 <alt_avalon_i2c_master_tx_rx+0xf0>
   23180:	00000306 	br	23190 <alt_avalon_i2c_master_tx_rx+0x1b0>
   23184:	0001883a 	nop
   23188:	00000106 	br	23190 <alt_avalon_i2c_master_tx_rx+0x1b0>
   2318c:	0001883a 	nop
   23190:	e0bfff17 	ldw	r2,-4(fp)
   23194:	e037883a 	mov	sp,fp
   23198:	dfc00117 	ldw	ra,4(sp)
   2319c:	df000017 	ldw	fp,0(sp)
   231a0:	dec00204 	addi	sp,sp,8
   231a4:	f800283a 	ret

000231a8 <alt_avalon_i2c_master_transmit>:
   231a8:	defff704 	addi	sp,sp,-36
   231ac:	dfc00815 	stw	ra,32(sp)
   231b0:	df000715 	stw	fp,28(sp)
   231b4:	df000704 	addi	fp,sp,28
   231b8:	e13ffd15 	stw	r4,-12(fp)
   231bc:	e17ffc15 	stw	r5,-16(fp)
   231c0:	e1bffb15 	stw	r6,-20(fp)
   231c4:	3807883a 	mov	r3,r7
   231c8:	e0800217 	ldw	r2,8(fp)
   231cc:	e0fffa05 	stb	r3,-24(fp)
   231d0:	e0bff905 	stb	r2,-28(fp)
   231d4:	e03ffe15 	stw	zero,-8(fp)
   231d8:	0149c404 	movi	r5,10000
   231dc:	e13ffb17 	ldw	r4,-20(fp)
   231e0:	00212e40 	call	212e4 <__mulsi3>
   231e4:	e0bfff15 	stw	r2,-4(fp)
   231e8:	e0bffb17 	ldw	r2,-20(fp)
   231ec:	1000021e 	bne	r2,zero,231f8 <alt_avalon_i2c_master_transmit+0x50>
   231f0:	0005883a 	mov	r2,zero
   231f4:	00005706 	br	23354 <alt_avalon_i2c_master_transmit+0x1ac>
   231f8:	e0bffa03 	ldbu	r2,-24(fp)
   231fc:	10000a1e 	bne	r2,zero,23228 <alt_avalon_i2c_master_transmit+0x80>
   23200:	e13ffd17 	ldw	r4,-12(fp)
   23204:	00224180 	call	22418 <alt_avalon_i2c_enable>
   23208:	e0bffe15 	stw	r2,-8(fp)
   2320c:	e0bffe17 	ldw	r2,-8(fp)
   23210:	10000226 	beq	r2,zero,2321c <alt_avalon_i2c_master_transmit+0x74>
   23214:	e0bffe17 	ldw	r2,-8(fp)
   23218:	00004e06 	br	23354 <alt_avalon_i2c_master_transmit+0x1ac>
   2321c:	01400704 	movi	r5,28
   23220:	e13ffd17 	ldw	r4,-12(fp)
   23224:	0023a100 	call	23a10 <alt_avalon_i2c_int_clear>
   23228:	e0bffa03 	ldbu	r2,-24(fp)
   2322c:	100d883a 	mov	r6,r2
   23230:	000b883a 	mov	r5,zero
   23234:	e13ffd17 	ldw	r4,-12(fp)
   23238:	0022a8c0 	call	22a8c <alt_avalon_i2c_send_address>
   2323c:	e0bffe15 	stw	r2,-8(fp)
   23240:	e0bffe17 	ldw	r2,-8(fp)
   23244:	1000271e 	bne	r2,zero,232e4 <alt_avalon_i2c_master_transmit+0x13c>
   23248:	00000f06 	br	23288 <alt_avalon_i2c_master_transmit+0xe0>
   2324c:	e0bffc17 	ldw	r2,-16(fp)
   23250:	10800003 	ldbu	r2,0(r2)
   23254:	10803fcc 	andi	r2,r2,255
   23258:	000f883a 	mov	r7,zero
   2325c:	000d883a 	mov	r6,zero
   23260:	100b883a 	mov	r5,r2
   23264:	e13ffd17 	ldw	r4,-12(fp)
   23268:	00229a00 	call	229a0 <alt_avalon_i2c_cmd_write>
   2326c:	e0bffe15 	stw	r2,-8(fp)
   23270:	e0bffc17 	ldw	r2,-16(fp)
   23274:	10800044 	addi	r2,r2,1
   23278:	e0bffc15 	stw	r2,-16(fp)
   2327c:	e0bffb17 	ldw	r2,-20(fp)
   23280:	10bfffc4 	addi	r2,r2,-1
   23284:	e0bffb15 	stw	r2,-20(fp)
   23288:	e0bffb17 	ldw	r2,-20(fp)
   2328c:	108000b0 	cmpltui	r2,r2,2
   23290:	1000021e 	bne	r2,zero,2329c <alt_avalon_i2c_master_transmit+0xf4>
   23294:	e0bffe17 	ldw	r2,-8(fp)
   23298:	103fec26 	beq	r2,zero,2324c <alt_avalon_i2c_master_transmit+0xa4>
   2329c:	e0bffe17 	ldw	r2,-8(fp)
   232a0:	1000101e 	bne	r2,zero,232e4 <alt_avalon_i2c_master_transmit+0x13c>
   232a4:	e0bffc17 	ldw	r2,-16(fp)
   232a8:	10800003 	ldbu	r2,0(r2)
   232ac:	10803fcc 	andi	r2,r2,255
   232b0:	e0fff903 	ldbu	r3,-28(fp)
   232b4:	180f883a 	mov	r7,r3
   232b8:	000d883a 	mov	r6,zero
   232bc:	100b883a 	mov	r5,r2
   232c0:	e13ffd17 	ldw	r4,-12(fp)
   232c4:	00229a00 	call	229a0 <alt_avalon_i2c_cmd_write>
   232c8:	e0bffe15 	stw	r2,-8(fp)
   232cc:	e0bffc17 	ldw	r2,-16(fp)
   232d0:	10800044 	addi	r2,r2,1
   232d4:	e0bffc15 	stw	r2,-16(fp)
   232d8:	e0bffb17 	ldw	r2,-20(fp)
   232dc:	10bfffc4 	addi	r2,r2,-1
   232e0:	e0bffb15 	stw	r2,-20(fp)
   232e4:	e0bff903 	ldbu	r2,-28(fp)
   232e8:	1000101e 	bne	r2,zero,2332c <alt_avalon_i2c_master_transmit+0x184>
   232ec:	e0bffe17 	ldw	r2,-8(fp)
   232f0:	10001726 	beq	r2,zero,23350 <alt_avalon_i2c_master_transmit+0x1a8>
   232f4:	00000d06 	br	2332c <alt_avalon_i2c_master_transmit+0x184>
   232f8:	e0bfff17 	ldw	r2,-4(fp)
   232fc:	108002a8 	cmpgeui	r2,r2,10
   23300:	1000021e 	bne	r2,zero,2330c <alt_avalon_i2c_master_transmit+0x164>
   23304:	0109c404 	movi	r4,10000
   23308:	0025edc0 	call	25edc <alt_busy_sleep>
   2330c:	e0bfff17 	ldw	r2,-4(fp)
   23310:	10bfffc4 	addi	r2,r2,-1
   23314:	e0bfff15 	stw	r2,-4(fp)
   23318:	e0bfff17 	ldw	r2,-4(fp)
   2331c:	1000031e 	bne	r2,zero,2332c <alt_avalon_i2c_master_transmit+0x184>
   23320:	00bfff84 	movi	r2,-2
   23324:	e0bffe15 	stw	r2,-8(fp)
   23328:	00000306 	br	23338 <alt_avalon_i2c_master_transmit+0x190>
   2332c:	e13ffd17 	ldw	r4,-12(fp)
   23330:	00228080 	call	22808 <alt_avalon_i2c_is_busy>
   23334:	103ff01e 	bne	r2,zero,232f8 <alt_avalon_i2c_master_transmit+0x150>
   23338:	e0bffe04 	addi	r2,fp,-8
   2333c:	100b883a 	mov	r5,r2
   23340:	e13ffd17 	ldw	r4,-12(fp)
   23344:	0022be80 	call	22be8 <alt_avalon_i2c_check_nack>
   23348:	e13ffd17 	ldw	r4,-12(fp)
   2334c:	00224b00 	call	224b0 <alt_avalon_i2c_disable>
   23350:	e0bffe17 	ldw	r2,-8(fp)
   23354:	e037883a 	mov	sp,fp
   23358:	dfc00117 	ldw	ra,4(sp)
   2335c:	df000017 	ldw	fp,0(sp)
   23360:	dec00204 	addi	sp,sp,8
   23364:	f800283a 	ret

00023368 <alt_avalon_i2c_master_transmit_using_interrupts>:
   23368:	defff604 	addi	sp,sp,-40
   2336c:	dfc00915 	stw	ra,36(sp)
   23370:	df000815 	stw	fp,32(sp)
   23374:	df000804 	addi	fp,sp,32
   23378:	e13ffc15 	stw	r4,-16(fp)
   2337c:	e17ffb15 	stw	r5,-20(fp)
   23380:	e1bffa15 	stw	r6,-24(fp)
   23384:	3807883a 	mov	r3,r7
   23388:	e0800217 	ldw	r2,8(fp)
   2338c:	e0fff905 	stb	r3,-28(fp)
   23390:	e0bff805 	stb	r2,-32(fp)
   23394:	e03fff15 	stw	zero,-4(fp)
   23398:	0149c404 	movi	r5,10000
   2339c:	e13ffa17 	ldw	r4,-24(fp)
   233a0:	00212e40 	call	212e4 <__mulsi3>
   233a4:	e0bffe15 	stw	r2,-8(fp)
   233a8:	e0bffc17 	ldw	r2,-16(fp)
   233ac:	10800717 	ldw	r2,28(r2)
   233b0:	e0bffd15 	stw	r2,-12(fp)
   233b4:	e0bffa17 	ldw	r2,-24(fp)
   233b8:	1000021e 	bne	r2,zero,233c4 <alt_avalon_i2c_master_transmit_using_interrupts+0x5c>
   233bc:	0005883a 	mov	r2,zero
   233c0:	00006706 	br	23560 <alt_avalon_i2c_master_transmit_using_interrupts+0x1f8>
   233c4:	e0bffc17 	ldw	r2,-16(fp)
   233c8:	10c00617 	ldw	r3,24(r2)
   233cc:	008000b4 	movhi	r2,2
   233d0:	10882604 	addi	r2,r2,8344
   233d4:	18800226 	beq	r3,r2,233e0 <alt_avalon_i2c_master_transmit_using_interrupts+0x78>
   233d8:	00bfff44 	movi	r2,-3
   233dc:	00006006 	br	23560 <alt_avalon_i2c_master_transmit_using_interrupts+0x1f8>
   233e0:	e0bff903 	ldbu	r2,-28(fp)
   233e4:	10000a1e 	bne	r2,zero,23410 <alt_avalon_i2c_master_transmit_using_interrupts+0xa8>
   233e8:	e13ffc17 	ldw	r4,-16(fp)
   233ec:	00224180 	call	22418 <alt_avalon_i2c_enable>
   233f0:	e0bfff15 	stw	r2,-4(fp)
   233f4:	e0bfff17 	ldw	r2,-4(fp)
   233f8:	10000226 	beq	r2,zero,23404 <alt_avalon_i2c_master_transmit_using_interrupts+0x9c>
   233fc:	e0bfff17 	ldw	r2,-4(fp)
   23400:	00005706 	br	23560 <alt_avalon_i2c_master_transmit_using_interrupts+0x1f8>
   23404:	01400704 	movi	r5,28
   23408:	e13ffc17 	ldw	r4,-16(fp)
   2340c:	0023a100 	call	23a10 <alt_avalon_i2c_int_clear>
   23410:	e0bff903 	ldbu	r2,-28(fp)
   23414:	100d883a 	mov	r6,r2
   23418:	000b883a 	mov	r5,zero
   2341c:	e13ffc17 	ldw	r4,-16(fp)
   23420:	0022a8c0 	call	22a8c <alt_avalon_i2c_send_address>
   23424:	e0bfff15 	stw	r2,-4(fp)
   23428:	e0bfff17 	ldw	r2,-4(fp)
   2342c:	1000271e 	bne	r2,zero,234cc <alt_avalon_i2c_master_transmit_using_interrupts+0x164>
   23430:	00000f06 	br	23470 <alt_avalon_i2c_master_transmit_using_interrupts+0x108>
   23434:	e0bffb17 	ldw	r2,-20(fp)
   23438:	10800003 	ldbu	r2,0(r2)
   2343c:	10803fcc 	andi	r2,r2,255
   23440:	000f883a 	mov	r7,zero
   23444:	000d883a 	mov	r6,zero
   23448:	100b883a 	mov	r5,r2
   2344c:	e13ffc17 	ldw	r4,-16(fp)
   23450:	00229a00 	call	229a0 <alt_avalon_i2c_cmd_write>
   23454:	e0bfff15 	stw	r2,-4(fp)
   23458:	e0bffb17 	ldw	r2,-20(fp)
   2345c:	10800044 	addi	r2,r2,1
   23460:	e0bffb15 	stw	r2,-20(fp)
   23464:	e0bffa17 	ldw	r2,-24(fp)
   23468:	10bfffc4 	addi	r2,r2,-1
   2346c:	e0bffa15 	stw	r2,-24(fp)
   23470:	e0bffa17 	ldw	r2,-24(fp)
   23474:	108000b0 	cmpltui	r2,r2,2
   23478:	1000021e 	bne	r2,zero,23484 <alt_avalon_i2c_master_transmit_using_interrupts+0x11c>
   2347c:	e0bfff17 	ldw	r2,-4(fp)
   23480:	103fec26 	beq	r2,zero,23434 <alt_avalon_i2c_master_transmit_using_interrupts+0xcc>
   23484:	e0bfff17 	ldw	r2,-4(fp)
   23488:	1000101e 	bne	r2,zero,234cc <alt_avalon_i2c_master_transmit_using_interrupts+0x164>
   2348c:	e0bffb17 	ldw	r2,-20(fp)
   23490:	10800003 	ldbu	r2,0(r2)
   23494:	10803fcc 	andi	r2,r2,255
   23498:	e0fff803 	ldbu	r3,-32(fp)
   2349c:	180f883a 	mov	r7,r3
   234a0:	000d883a 	mov	r6,zero
   234a4:	100b883a 	mov	r5,r2
   234a8:	e13ffc17 	ldw	r4,-16(fp)
   234ac:	00229a00 	call	229a0 <alt_avalon_i2c_cmd_write>
   234b0:	e0bfff15 	stw	r2,-4(fp)
   234b4:	e0bffb17 	ldw	r2,-20(fp)
   234b8:	10800044 	addi	r2,r2,1
   234bc:	e0bffb15 	stw	r2,-20(fp)
   234c0:	e0bffa17 	ldw	r2,-24(fp)
   234c4:	10bfffc4 	addi	r2,r2,-1
   234c8:	e0bffa15 	stw	r2,-24(fp)
   234cc:	e0bfff17 	ldw	r2,-4(fp)
   234d0:	10001426 	beq	r2,zero,23524 <alt_avalon_i2c_master_transmit_using_interrupts+0x1bc>
   234d4:	00000d06 	br	2350c <alt_avalon_i2c_master_transmit_using_interrupts+0x1a4>
   234d8:	e0bffe17 	ldw	r2,-8(fp)
   234dc:	108002a8 	cmpgeui	r2,r2,10
   234e0:	1000021e 	bne	r2,zero,234ec <alt_avalon_i2c_master_transmit_using_interrupts+0x184>
   234e4:	0109c404 	movi	r4,10000
   234e8:	0025edc0 	call	25edc <alt_busy_sleep>
   234ec:	e0bffe17 	ldw	r2,-8(fp)
   234f0:	10bfffc4 	addi	r2,r2,-1
   234f4:	e0bffe15 	stw	r2,-8(fp)
   234f8:	e0bffe17 	ldw	r2,-8(fp)
   234fc:	1000031e 	bne	r2,zero,2350c <alt_avalon_i2c_master_transmit_using_interrupts+0x1a4>
   23500:	00bfff84 	movi	r2,-2
   23504:	e0bfff15 	stw	r2,-4(fp)
   23508:	00000306 	br	23518 <alt_avalon_i2c_master_transmit_using_interrupts+0x1b0>
   2350c:	e13ffc17 	ldw	r4,-16(fp)
   23510:	00228080 	call	22808 <alt_avalon_i2c_is_busy>
   23514:	103ff01e 	bne	r2,zero,234d8 <alt_avalon_i2c_master_transmit_using_interrupts+0x170>
   23518:	e13ffc17 	ldw	r4,-16(fp)
   2351c:	00224b00 	call	224b0 <alt_avalon_i2c_disable>
   23520:	00000e06 	br	2355c <alt_avalon_i2c_master_transmit_using_interrupts+0x1f4>
   23524:	e0bff803 	ldbu	r2,-32(fp)
   23528:	10000c26 	beq	r2,zero,2355c <alt_avalon_i2c_master_transmit_using_interrupts+0x1f4>
   2352c:	01400704 	movi	r5,28
   23530:	e13ffc17 	ldw	r4,-16(fp)
   23534:	0023a100 	call	23a10 <alt_avalon_i2c_int_clear>
   23538:	000b883a 	mov	r5,zero
   2353c:	e13ffc17 	ldw	r4,-16(fp)
   23540:	0023c600 	call	23c60 <alt_avalon_i2c_tfr_cmd_fifo_threshold_set>
   23544:	e0bffd17 	ldw	r2,-12(fp)
   23548:	00c00044 	movi	r3,1
   2354c:	10c00215 	stw	r3,8(r2)
   23550:	01400044 	movi	r5,1
   23554:	e13ffc17 	ldw	r4,-16(fp)
   23558:	0023ab80 	call	23ab8 <alt_avalon_i2c_int_enable>
   2355c:	e0bfff17 	ldw	r2,-4(fp)
   23560:	e037883a 	mov	sp,fp
   23564:	dfc00117 	ldw	ra,4(sp)
   23568:	df000017 	ldw	fp,0(sp)
   2356c:	dec00204 	addi	sp,sp,8
   23570:	f800283a 	ret

00023574 <alt_avalon_i2c_master_receive>:
   23574:	defff404 	addi	sp,sp,-48
   23578:	dfc00b15 	stw	ra,44(sp)
   2357c:	df000a15 	stw	fp,40(sp)
   23580:	df000a04 	addi	fp,sp,40
   23584:	e13ffa15 	stw	r4,-24(fp)
   23588:	e17ff915 	stw	r5,-28(fp)
   2358c:	e1bff815 	stw	r6,-32(fp)
   23590:	3807883a 	mov	r3,r7
   23594:	e0800217 	ldw	r2,8(fp)
   23598:	e0fff705 	stb	r3,-36(fp)
   2359c:	e0bff605 	stb	r2,-40(fp)
   235a0:	e03ffc15 	stw	zero,-16(fp)
   235a4:	e03ffe15 	stw	zero,-8(fp)
   235a8:	e03ffd15 	stw	zero,-12(fp)
   235ac:	e0bff817 	ldw	r2,-32(fp)
   235b0:	1000021e 	bne	r2,zero,235bc <alt_avalon_i2c_master_receive+0x48>
   235b4:	0005883a 	mov	r2,zero
   235b8:	00006d06 	br	23770 <alt_avalon_i2c_master_receive+0x1fc>
   235bc:	e0bff703 	ldbu	r2,-36(fp)
   235c0:	10000a1e 	bne	r2,zero,235ec <alt_avalon_i2c_master_receive+0x78>
   235c4:	e13ffa17 	ldw	r4,-24(fp)
   235c8:	00224180 	call	22418 <alt_avalon_i2c_enable>
   235cc:	e0bffc15 	stw	r2,-16(fp)
   235d0:	e0bffc17 	ldw	r2,-16(fp)
   235d4:	10000226 	beq	r2,zero,235e0 <alt_avalon_i2c_master_receive+0x6c>
   235d8:	e0bffc17 	ldw	r2,-16(fp)
   235dc:	00006406 	br	23770 <alt_avalon_i2c_master_receive+0x1fc>
   235e0:	01400704 	movi	r5,28
   235e4:	e13ffa17 	ldw	r4,-24(fp)
   235e8:	0023a100 	call	23a10 <alt_avalon_i2c_int_clear>
   235ec:	e0bff703 	ldbu	r2,-36(fp)
   235f0:	100d883a 	mov	r6,r2
   235f4:	01400044 	movi	r5,1
   235f8:	e13ffa17 	ldw	r4,-24(fp)
   235fc:	0022a8c0 	call	22a8c <alt_avalon_i2c_send_address>
   23600:	e0bffc15 	stw	r2,-16(fp)
   23604:	e0bffc17 	ldw	r2,-16(fp)
   23608:	1000341e 	bne	r2,zero,236dc <alt_avalon_i2c_master_receive+0x168>
   2360c:	00001906 	br	23674 <alt_avalon_i2c_master_receive+0x100>
   23610:	000f883a 	mov	r7,zero
   23614:	000d883a 	mov	r6,zero
   23618:	000b883a 	mov	r5,zero
   2361c:	e13ffa17 	ldw	r4,-24(fp)
   23620:	00229a00 	call	229a0 <alt_avalon_i2c_cmd_write>
   23624:	e0bffc15 	stw	r2,-16(fp)
   23628:	e0bffd17 	ldw	r2,-12(fp)
   2362c:	10800044 	addi	r2,r2,1
   23630:	e0bffd15 	stw	r2,-12(fp)
   23634:	e0bffc17 	ldw	r2,-16(fp)
   23638:	10000e1e 	bne	r2,zero,23674 <alt_avalon_i2c_master_receive+0x100>
   2363c:	e0bffb04 	addi	r2,fp,-20
   23640:	100f883a 	mov	r7,r2
   23644:	000d883a 	mov	r6,zero
   23648:	e17ff917 	ldw	r5,-28(fp)
   2364c:	e13ffa17 	ldw	r4,-24(fp)
   23650:	002284c0 	call	2284c <alt_avalon_i2c_rx_read_available>
   23654:	e0bffb17 	ldw	r2,-20(fp)
   23658:	e0fff917 	ldw	r3,-28(fp)
   2365c:	1885883a 	add	r2,r3,r2
   23660:	e0bff915 	stw	r2,-28(fp)
   23664:	e0bffb17 	ldw	r2,-20(fp)
   23668:	e0fffe17 	ldw	r3,-8(fp)
   2366c:	1885883a 	add	r2,r3,r2
   23670:	e0bffe15 	stw	r2,-8(fp)
   23674:	e0bff817 	ldw	r2,-32(fp)
   23678:	10bfffc4 	addi	r2,r2,-1
   2367c:	e0fffd17 	ldw	r3,-12(fp)
   23680:	1880022e 	bgeu	r3,r2,2368c <alt_avalon_i2c_master_receive+0x118>
   23684:	e0bffc17 	ldw	r2,-16(fp)
   23688:	103fe126 	beq	r2,zero,23610 <alt_avalon_i2c_master_receive+0x9c>
   2368c:	e0bffc17 	ldw	r2,-16(fp)
   23690:	1000121e 	bne	r2,zero,236dc <alt_avalon_i2c_master_receive+0x168>
   23694:	e0bff603 	ldbu	r2,-40(fp)
   23698:	100f883a 	mov	r7,r2
   2369c:	000d883a 	mov	r6,zero
   236a0:	000b883a 	mov	r5,zero
   236a4:	e13ffa17 	ldw	r4,-24(fp)
   236a8:	00229a00 	call	229a0 <alt_avalon_i2c_cmd_write>
   236ac:	e0bffc15 	stw	r2,-16(fp)
   236b0:	00000a06 	br	236dc <alt_avalon_i2c_master_receive+0x168>
   236b4:	e17ff917 	ldw	r5,-28(fp)
   236b8:	e13ffa17 	ldw	r4,-24(fp)
   236bc:	00228f80 	call	228f8 <alt_avalon_i2c_rx_read>
   236c0:	e0bffc15 	stw	r2,-16(fp)
   236c4:	e0bff917 	ldw	r2,-28(fp)
   236c8:	10800044 	addi	r2,r2,1
   236cc:	e0bff915 	stw	r2,-28(fp)
   236d0:	e0bffe17 	ldw	r2,-8(fp)
   236d4:	10800044 	addi	r2,r2,1
   236d8:	e0bffe15 	stw	r2,-8(fp)
   236dc:	e0fffe17 	ldw	r3,-8(fp)
   236e0:	e0bff817 	ldw	r2,-32(fp)
   236e4:	1880022e 	bgeu	r3,r2,236f0 <alt_avalon_i2c_master_receive+0x17c>
   236e8:	e0bffc17 	ldw	r2,-16(fp)
   236ec:	103ff126 	beq	r2,zero,236b4 <alt_avalon_i2c_master_receive+0x140>
   236f0:	e0bff603 	ldbu	r2,-40(fp)
   236f4:	1000021e 	bne	r2,zero,23700 <alt_avalon_i2c_master_receive+0x18c>
   236f8:	e0bffc17 	ldw	r2,-16(fp)
   236fc:	10001b26 	beq	r2,zero,2376c <alt_avalon_i2c_master_receive+0x1f8>
   23700:	0149c404 	movi	r5,10000
   23704:	e13ff817 	ldw	r4,-32(fp)
   23708:	00212e40 	call	212e4 <__mulsi3>
   2370c:	e0bfff15 	stw	r2,-4(fp)
   23710:	00000d06 	br	23748 <alt_avalon_i2c_master_receive+0x1d4>
   23714:	e0bfff17 	ldw	r2,-4(fp)
   23718:	108002a8 	cmpgeui	r2,r2,10
   2371c:	1000021e 	bne	r2,zero,23728 <alt_avalon_i2c_master_receive+0x1b4>
   23720:	0109c404 	movi	r4,10000
   23724:	0025edc0 	call	25edc <alt_busy_sleep>
   23728:	e0bfff17 	ldw	r2,-4(fp)
   2372c:	10bfffc4 	addi	r2,r2,-1
   23730:	e0bfff15 	stw	r2,-4(fp)
   23734:	e0bfff17 	ldw	r2,-4(fp)
   23738:	1000031e 	bne	r2,zero,23748 <alt_avalon_i2c_master_receive+0x1d4>
   2373c:	00bfff84 	movi	r2,-2
   23740:	e0bffc15 	stw	r2,-16(fp)
   23744:	00000306 	br	23754 <alt_avalon_i2c_master_receive+0x1e0>
   23748:	e13ffa17 	ldw	r4,-24(fp)
   2374c:	00228080 	call	22808 <alt_avalon_i2c_is_busy>
   23750:	103ff01e 	bne	r2,zero,23714 <alt_avalon_i2c_master_receive+0x1a0>
   23754:	e0bffc04 	addi	r2,fp,-16
   23758:	100b883a 	mov	r5,r2
   2375c:	e13ffa17 	ldw	r4,-24(fp)
   23760:	0022be80 	call	22be8 <alt_avalon_i2c_check_nack>
   23764:	e13ffa17 	ldw	r4,-24(fp)
   23768:	00224b00 	call	224b0 <alt_avalon_i2c_disable>
   2376c:	e0bffc17 	ldw	r2,-16(fp)
   23770:	e037883a 	mov	sp,fp
   23774:	dfc00117 	ldw	ra,4(sp)
   23778:	df000017 	ldw	fp,0(sp)
   2377c:	dec00204 	addi	sp,sp,8
   23780:	f800283a 	ret

00023784 <alt_avalon_i2c_master_receive_using_interrupts>:
   23784:	defff504 	addi	sp,sp,-44
   23788:	dfc00a15 	stw	ra,40(sp)
   2378c:	df000915 	stw	fp,36(sp)
   23790:	df000904 	addi	fp,sp,36
   23794:	e13ffb15 	stw	r4,-20(fp)
   23798:	e17ffa15 	stw	r5,-24(fp)
   2379c:	e1bff915 	stw	r6,-28(fp)
   237a0:	3807883a 	mov	r3,r7
   237a4:	e0800217 	ldw	r2,8(fp)
   237a8:	e0fff805 	stb	r3,-32(fp)
   237ac:	e0bff705 	stb	r2,-36(fp)
   237b0:	e03fff15 	stw	zero,-4(fp)
   237b4:	e0bffb17 	ldw	r2,-20(fp)
   237b8:	10800717 	ldw	r2,28(r2)
   237bc:	e0bffc15 	stw	r2,-16(fp)
   237c0:	e03ffd15 	stw	zero,-12(fp)
   237c4:	e0bff917 	ldw	r2,-28(fp)
   237c8:	1000021e 	bne	r2,zero,237d4 <alt_avalon_i2c_master_receive_using_interrupts+0x50>
   237cc:	0005883a 	mov	r2,zero
   237d0:	00006306 	br	23960 <alt_avalon_i2c_master_receive_using_interrupts+0x1dc>
   237d4:	e0bffb17 	ldw	r2,-20(fp)
   237d8:	10c00617 	ldw	r3,24(r2)
   237dc:	008000b4 	movhi	r2,2
   237e0:	10882604 	addi	r2,r2,8344
   237e4:	18800226 	beq	r3,r2,237f0 <alt_avalon_i2c_master_receive_using_interrupts+0x6c>
   237e8:	00bfff44 	movi	r2,-3
   237ec:	00005c06 	br	23960 <alt_avalon_i2c_master_receive_using_interrupts+0x1dc>
   237f0:	e0bff803 	ldbu	r2,-32(fp)
   237f4:	10000a1e 	bne	r2,zero,23820 <alt_avalon_i2c_master_receive_using_interrupts+0x9c>
   237f8:	e13ffb17 	ldw	r4,-20(fp)
   237fc:	00224180 	call	22418 <alt_avalon_i2c_enable>
   23800:	e0bfff15 	stw	r2,-4(fp)
   23804:	e0bfff17 	ldw	r2,-4(fp)
   23808:	10000226 	beq	r2,zero,23814 <alt_avalon_i2c_master_receive_using_interrupts+0x90>
   2380c:	e0bfff17 	ldw	r2,-4(fp)
   23810:	00005306 	br	23960 <alt_avalon_i2c_master_receive_using_interrupts+0x1dc>
   23814:	01400704 	movi	r5,28
   23818:	e13ffb17 	ldw	r4,-20(fp)
   2381c:	0023a100 	call	23a10 <alt_avalon_i2c_int_clear>
   23820:	e0bff803 	ldbu	r2,-32(fp)
   23824:	100d883a 	mov	r6,r2
   23828:	01400044 	movi	r5,1
   2382c:	e13ffb17 	ldw	r4,-20(fp)
   23830:	0022a8c0 	call	22a8c <alt_avalon_i2c_send_address>
   23834:	e0bfff15 	stw	r2,-4(fp)
   23838:	e0bfff17 	ldw	r2,-4(fp)
   2383c:	1000191e 	bne	r2,zero,238a4 <alt_avalon_i2c_master_receive_using_interrupts+0x120>
   23840:	00000906 	br	23868 <alt_avalon_i2c_master_receive_using_interrupts+0xe4>
   23844:	000f883a 	mov	r7,zero
   23848:	000d883a 	mov	r6,zero
   2384c:	000b883a 	mov	r5,zero
   23850:	e13ffb17 	ldw	r4,-20(fp)
   23854:	00229a00 	call	229a0 <alt_avalon_i2c_cmd_write>
   23858:	e0bfff15 	stw	r2,-4(fp)
   2385c:	e0bffd17 	ldw	r2,-12(fp)
   23860:	10800044 	addi	r2,r2,1
   23864:	e0bffd15 	stw	r2,-12(fp)
   23868:	e0bff917 	ldw	r2,-28(fp)
   2386c:	10bfffc4 	addi	r2,r2,-1
   23870:	e0fffd17 	ldw	r3,-12(fp)
   23874:	1880022e 	bgeu	r3,r2,23880 <alt_avalon_i2c_master_receive_using_interrupts+0xfc>
   23878:	e0bfff17 	ldw	r2,-4(fp)
   2387c:	103ff126 	beq	r2,zero,23844 <alt_avalon_i2c_master_receive_using_interrupts+0xc0>
   23880:	e0bfff17 	ldw	r2,-4(fp)
   23884:	1000071e 	bne	r2,zero,238a4 <alt_avalon_i2c_master_receive_using_interrupts+0x120>
   23888:	e0bff703 	ldbu	r2,-36(fp)
   2388c:	100f883a 	mov	r7,r2
   23890:	000d883a 	mov	r6,zero
   23894:	000b883a 	mov	r5,zero
   23898:	e13ffb17 	ldw	r4,-20(fp)
   2389c:	00229a00 	call	229a0 <alt_avalon_i2c_cmd_write>
   238a0:	e0bfff15 	stw	r2,-4(fp)
   238a4:	e0bfff17 	ldw	r2,-4(fp)
   238a8:	10001826 	beq	r2,zero,2390c <alt_avalon_i2c_master_receive_using_interrupts+0x188>
   238ac:	0149c404 	movi	r5,10000
   238b0:	e13ff917 	ldw	r4,-28(fp)
   238b4:	00212e40 	call	212e4 <__mulsi3>
   238b8:	e0bffe15 	stw	r2,-8(fp)
   238bc:	00000d06 	br	238f4 <alt_avalon_i2c_master_receive_using_interrupts+0x170>
   238c0:	e0bffe17 	ldw	r2,-8(fp)
   238c4:	108002a8 	cmpgeui	r2,r2,10
   238c8:	1000021e 	bne	r2,zero,238d4 <alt_avalon_i2c_master_receive_using_interrupts+0x150>
   238cc:	0109c404 	movi	r4,10000
   238d0:	0025edc0 	call	25edc <alt_busy_sleep>
   238d4:	e0bffe17 	ldw	r2,-8(fp)
   238d8:	10bfffc4 	addi	r2,r2,-1
   238dc:	e0bffe15 	stw	r2,-8(fp)
   238e0:	e0bffe17 	ldw	r2,-8(fp)
   238e4:	1000031e 	bne	r2,zero,238f4 <alt_avalon_i2c_master_receive_using_interrupts+0x170>
   238e8:	00bfff84 	movi	r2,-2
   238ec:	e0bfff15 	stw	r2,-4(fp)
   238f0:	00000306 	br	23900 <alt_avalon_i2c_master_receive_using_interrupts+0x17c>
   238f4:	e13ffb17 	ldw	r4,-20(fp)
   238f8:	00228080 	call	22808 <alt_avalon_i2c_is_busy>
   238fc:	103ff01e 	bne	r2,zero,238c0 <alt_avalon_i2c_master_receive_using_interrupts+0x13c>
   23900:	e13ffb17 	ldw	r4,-20(fp)
   23904:	00224b00 	call	224b0 <alt_avalon_i2c_disable>
   23908:	00001406 	br	2395c <alt_avalon_i2c_master_receive_using_interrupts+0x1d8>
   2390c:	e0bff703 	ldbu	r2,-36(fp)
   23910:	10001226 	beq	r2,zero,2395c <alt_avalon_i2c_master_receive_using_interrupts+0x1d8>
   23914:	01400704 	movi	r5,28
   23918:	e13ffb17 	ldw	r4,-20(fp)
   2391c:	0023a100 	call	23a10 <alt_avalon_i2c_int_clear>
   23920:	000b883a 	mov	r5,zero
   23924:	e13ffb17 	ldw	r4,-20(fp)
   23928:	0023bb00 	call	23bb0 <alt_avalon_i2c_rx_fifo_threshold_set>
   2392c:	e0bffc17 	ldw	r2,-16(fp)
   23930:	00c00084 	movi	r3,2
   23934:	10c00215 	stw	r3,8(r2)
   23938:	e0bffc17 	ldw	r2,-16(fp)
   2393c:	e0fffa17 	ldw	r3,-24(fp)
   23940:	10c00015 	stw	r3,0(r2)
   23944:	e0bffc17 	ldw	r2,-16(fp)
   23948:	e0fff917 	ldw	r3,-28(fp)
   2394c:	10c00115 	stw	r3,4(r2)
   23950:	01400084 	movi	r5,2
   23954:	e13ffb17 	ldw	r4,-20(fp)
   23958:	0023ab80 	call	23ab8 <alt_avalon_i2c_int_enable>
   2395c:	e0bfff17 	ldw	r2,-4(fp)
   23960:	e037883a 	mov	sp,fp
   23964:	dfc00117 	ldw	ra,4(sp)
   23968:	df000017 	ldw	fp,0(sp)
   2396c:	dec00204 	addi	sp,sp,8
   23970:	f800283a 	ret

00023974 <alt_avalon_i2c_int_status_get>:
   23974:	defffd04 	addi	sp,sp,-12
   23978:	df000215 	stw	fp,8(sp)
   2397c:	df000204 	addi	fp,sp,8
   23980:	e13fff15 	stw	r4,-4(fp)
   23984:	e17ffe15 	stw	r5,-8(fp)
   23988:	e0bfff17 	ldw	r2,-4(fp)
   2398c:	10800317 	ldw	r2,12(r2)
   23990:	10800404 	addi	r2,r2,16
   23994:	10c00037 	ldwio	r3,0(r2)
   23998:	e0bfff17 	ldw	r2,-4(fp)
   2399c:	10800317 	ldw	r2,12(r2)
   239a0:	10800304 	addi	r2,r2,12
   239a4:	10800037 	ldwio	r2,0(r2)
   239a8:	1884703a 	and	r2,r3,r2
   239ac:	1007883a 	mov	r3,r2
   239b0:	e0bffe17 	ldw	r2,-8(fp)
   239b4:	10c00015 	stw	r3,0(r2)
   239b8:	0001883a 	nop
   239bc:	e037883a 	mov	sp,fp
   239c0:	df000017 	ldw	fp,0(sp)
   239c4:	dec00104 	addi	sp,sp,4
   239c8:	f800283a 	ret

000239cc <alt_avalon_i2c_int_raw_status_get>:
   239cc:	defffd04 	addi	sp,sp,-12
   239d0:	df000215 	stw	fp,8(sp)
   239d4:	df000204 	addi	fp,sp,8
   239d8:	e13fff15 	stw	r4,-4(fp)
   239dc:	e17ffe15 	stw	r5,-8(fp)
   239e0:	e0bfff17 	ldw	r2,-4(fp)
   239e4:	10800317 	ldw	r2,12(r2)
   239e8:	10800404 	addi	r2,r2,16
   239ec:	10800037 	ldwio	r2,0(r2)
   239f0:	1007883a 	mov	r3,r2
   239f4:	e0bffe17 	ldw	r2,-8(fp)
   239f8:	10c00015 	stw	r3,0(r2)
   239fc:	0001883a 	nop
   23a00:	e037883a 	mov	sp,fp
   23a04:	df000017 	ldw	fp,0(sp)
   23a08:	dec00104 	addi	sp,sp,4
   23a0c:	f800283a 	ret

00023a10 <alt_avalon_i2c_int_clear>:
   23a10:	defffd04 	addi	sp,sp,-12
   23a14:	df000215 	stw	fp,8(sp)
   23a18:	df000204 	addi	fp,sp,8
   23a1c:	e13fff15 	stw	r4,-4(fp)
   23a20:	e17ffe15 	stw	r5,-8(fp)
   23a24:	e0bfff17 	ldw	r2,-4(fp)
   23a28:	10800317 	ldw	r2,12(r2)
   23a2c:	10800404 	addi	r2,r2,16
   23a30:	e0fffe17 	ldw	r3,-8(fp)
   23a34:	10c00035 	stwio	r3,0(r2)
   23a38:	0001883a 	nop
   23a3c:	e037883a 	mov	sp,fp
   23a40:	df000017 	ldw	fp,0(sp)
   23a44:	dec00104 	addi	sp,sp,4
   23a48:	f800283a 	ret

00023a4c <alt_avalon_i2c_int_disable>:
   23a4c:	defffb04 	addi	sp,sp,-20
   23a50:	dfc00415 	stw	ra,16(sp)
   23a54:	df000315 	stw	fp,12(sp)
   23a58:	df000304 	addi	fp,sp,12
   23a5c:	e13ffe15 	stw	r4,-8(fp)
   23a60:	e17ffd15 	stw	r5,-12(fp)
   23a64:	e0bfff04 	addi	r2,fp,-4
   23a68:	100b883a 	mov	r5,r2
   23a6c:	e13ffe17 	ldw	r4,-8(fp)
   23a70:	0023b200 	call	23b20 <alt_avalon_i2c_enabled_ints_get>
   23a74:	e0bffd17 	ldw	r2,-12(fp)
   23a78:	0086303a 	nor	r3,zero,r2
   23a7c:	e0bfff17 	ldw	r2,-4(fp)
   23a80:	1884703a 	and	r2,r3,r2
   23a84:	e0bfff15 	stw	r2,-4(fp)
   23a88:	e0bffe17 	ldw	r2,-8(fp)
   23a8c:	10800317 	ldw	r2,12(r2)
   23a90:	10800304 	addi	r2,r2,12
   23a94:	e0ffff17 	ldw	r3,-4(fp)
   23a98:	18c007cc 	andi	r3,r3,31
   23a9c:	10c00035 	stwio	r3,0(r2)
   23aa0:	0001883a 	nop
   23aa4:	e037883a 	mov	sp,fp
   23aa8:	dfc00117 	ldw	ra,4(sp)
   23aac:	df000017 	ldw	fp,0(sp)
   23ab0:	dec00204 	addi	sp,sp,8
   23ab4:	f800283a 	ret

00023ab8 <alt_avalon_i2c_int_enable>:
   23ab8:	defffb04 	addi	sp,sp,-20
   23abc:	dfc00415 	stw	ra,16(sp)
   23ac0:	df000315 	stw	fp,12(sp)
   23ac4:	df000304 	addi	fp,sp,12
   23ac8:	e13ffe15 	stw	r4,-8(fp)
   23acc:	e17ffd15 	stw	r5,-12(fp)
   23ad0:	e0bfff04 	addi	r2,fp,-4
   23ad4:	100b883a 	mov	r5,r2
   23ad8:	e13ffe17 	ldw	r4,-8(fp)
   23adc:	0023b200 	call	23b20 <alt_avalon_i2c_enabled_ints_get>
   23ae0:	e0ffff17 	ldw	r3,-4(fp)
   23ae4:	e0bffd17 	ldw	r2,-12(fp)
   23ae8:	1884b03a 	or	r2,r3,r2
   23aec:	e0bfff15 	stw	r2,-4(fp)
   23af0:	e0bffe17 	ldw	r2,-8(fp)
   23af4:	10800317 	ldw	r2,12(r2)
   23af8:	10800304 	addi	r2,r2,12
   23afc:	e0ffff17 	ldw	r3,-4(fp)
   23b00:	18c007cc 	andi	r3,r3,31
   23b04:	10c00035 	stwio	r3,0(r2)
   23b08:	0001883a 	nop
   23b0c:	e037883a 	mov	sp,fp
   23b10:	dfc00117 	ldw	ra,4(sp)
   23b14:	df000017 	ldw	fp,0(sp)
   23b18:	dec00204 	addi	sp,sp,8
   23b1c:	f800283a 	ret

00023b20 <alt_avalon_i2c_enabled_ints_get>:
   23b20:	defffd04 	addi	sp,sp,-12
   23b24:	df000215 	stw	fp,8(sp)
   23b28:	df000204 	addi	fp,sp,8
   23b2c:	e13fff15 	stw	r4,-4(fp)
   23b30:	e17ffe15 	stw	r5,-8(fp)
   23b34:	e0bfff17 	ldw	r2,-4(fp)
   23b38:	10800317 	ldw	r2,12(r2)
   23b3c:	10800304 	addi	r2,r2,12
   23b40:	10800037 	ldwio	r2,0(r2)
   23b44:	10c007cc 	andi	r3,r2,31
   23b48:	e0bffe17 	ldw	r2,-8(fp)
   23b4c:	10c00015 	stw	r3,0(r2)
   23b50:	0001883a 	nop
   23b54:	e037883a 	mov	sp,fp
   23b58:	df000017 	ldw	fp,0(sp)
   23b5c:	dec00104 	addi	sp,sp,4
   23b60:	f800283a 	ret

00023b64 <alt_avalon_i2c_rx_fifo_threshold_get>:
   23b64:	defffd04 	addi	sp,sp,-12
   23b68:	df000215 	stw	fp,8(sp)
   23b6c:	df000204 	addi	fp,sp,8
   23b70:	e13fff15 	stw	r4,-4(fp)
   23b74:	e17ffe15 	stw	r5,-8(fp)
   23b78:	e0bfff17 	ldw	r2,-4(fp)
   23b7c:	10800317 	ldw	r2,12(r2)
   23b80:	10800204 	addi	r2,r2,8
   23b84:	10800037 	ldwio	r2,0(r2)
   23b88:	1005d13a 	srai	r2,r2,4
   23b8c:	108000cc 	andi	r2,r2,3
   23b90:	1007883a 	mov	r3,r2
   23b94:	e0bffe17 	ldw	r2,-8(fp)
   23b98:	10c00015 	stw	r3,0(r2)
   23b9c:	0001883a 	nop
   23ba0:	e037883a 	mov	sp,fp
   23ba4:	df000017 	ldw	fp,0(sp)
   23ba8:	dec00104 	addi	sp,sp,4
   23bac:	f800283a 	ret

00023bb0 <alt_avalon_i2c_rx_fifo_threshold_set>:
   23bb0:	defffd04 	addi	sp,sp,-12
   23bb4:	df000215 	stw	fp,8(sp)
   23bb8:	df000204 	addi	fp,sp,8
   23bbc:	e13fff15 	stw	r4,-4(fp)
   23bc0:	e17ffe15 	stw	r5,-8(fp)
   23bc4:	e0bfff17 	ldw	r2,-4(fp)
   23bc8:	10800317 	ldw	r2,12(r2)
   23bcc:	10800204 	addi	r2,r2,8
   23bd0:	e0ffff17 	ldw	r3,-4(fp)
   23bd4:	18c00317 	ldw	r3,12(r3)
   23bd8:	18c00204 	addi	r3,r3,8
   23bdc:	18c00037 	ldwio	r3,0(r3)
   23be0:	1809883a 	mov	r4,r3
   23be4:	00fff3c4 	movi	r3,-49
   23be8:	20c8703a 	and	r4,r4,r3
   23bec:	e0fffe17 	ldw	r3,-8(fp)
   23bf0:	1806913a 	slli	r3,r3,4
   23bf4:	18c00c0c 	andi	r3,r3,48
   23bf8:	20c6b03a 	or	r3,r4,r3
   23bfc:	10c00035 	stwio	r3,0(r2)
   23c00:	0001883a 	nop
   23c04:	e037883a 	mov	sp,fp
   23c08:	df000017 	ldw	fp,0(sp)
   23c0c:	dec00104 	addi	sp,sp,4
   23c10:	f800283a 	ret

00023c14 <alt_avalon_i2c_tfr_cmd_fifo_threshold_get>:
   23c14:	defffd04 	addi	sp,sp,-12
   23c18:	df000215 	stw	fp,8(sp)
   23c1c:	df000204 	addi	fp,sp,8
   23c20:	e13fff15 	stw	r4,-4(fp)
   23c24:	e17ffe15 	stw	r5,-8(fp)
   23c28:	e0bfff17 	ldw	r2,-4(fp)
   23c2c:	10800317 	ldw	r2,12(r2)
   23c30:	10800204 	addi	r2,r2,8
   23c34:	10800037 	ldwio	r2,0(r2)
   23c38:	1005d0ba 	srai	r2,r2,2
   23c3c:	108000cc 	andi	r2,r2,3
   23c40:	1007883a 	mov	r3,r2
   23c44:	e0bffe17 	ldw	r2,-8(fp)
   23c48:	10c00015 	stw	r3,0(r2)
   23c4c:	0001883a 	nop
   23c50:	e037883a 	mov	sp,fp
   23c54:	df000017 	ldw	fp,0(sp)
   23c58:	dec00104 	addi	sp,sp,4
   23c5c:	f800283a 	ret

00023c60 <alt_avalon_i2c_tfr_cmd_fifo_threshold_set>:
   23c60:	defffd04 	addi	sp,sp,-12
   23c64:	df000215 	stw	fp,8(sp)
   23c68:	df000204 	addi	fp,sp,8
   23c6c:	e13fff15 	stw	r4,-4(fp)
   23c70:	e17ffe15 	stw	r5,-8(fp)
   23c74:	e0bfff17 	ldw	r2,-4(fp)
   23c78:	10800317 	ldw	r2,12(r2)
   23c7c:	10800204 	addi	r2,r2,8
   23c80:	e0ffff17 	ldw	r3,-4(fp)
   23c84:	18c00317 	ldw	r3,12(r3)
   23c88:	18c00204 	addi	r3,r3,8
   23c8c:	18c00037 	ldwio	r3,0(r3)
   23c90:	1809883a 	mov	r4,r3
   23c94:	00fffcc4 	movi	r3,-13
   23c98:	20c8703a 	and	r4,r4,r3
   23c9c:	e0fffe17 	ldw	r3,-8(fp)
   23ca0:	180690ba 	slli	r3,r3,2
   23ca4:	18c0030c 	andi	r3,r3,12
   23ca8:	20c6b03a 	or	r3,r4,r3
   23cac:	10c00035 	stwio	r3,0(r2)
   23cb0:	0001883a 	nop
   23cb4:	e037883a 	mov	sp,fp
   23cb8:	df000017 	ldw	fp,0(sp)
   23cbc:	dec00104 	addi	sp,sp,4
   23cc0:	f800283a 	ret

00023cc4 <altera_avalon_jtag_uart_read_fd>:
   23cc4:	defffa04 	addi	sp,sp,-24
   23cc8:	dfc00515 	stw	ra,20(sp)
   23ccc:	df000415 	stw	fp,16(sp)
   23cd0:	df000404 	addi	fp,sp,16
   23cd4:	e13ffe15 	stw	r4,-8(fp)
   23cd8:	e17ffd15 	stw	r5,-12(fp)
   23cdc:	e1bffc15 	stw	r6,-16(fp)
   23ce0:	e0bffe17 	ldw	r2,-8(fp)
   23ce4:	10800017 	ldw	r2,0(r2)
   23ce8:	e0bfff15 	stw	r2,-4(fp)
   23cec:	e0bfff17 	ldw	r2,-4(fp)
   23cf0:	10c00a04 	addi	r3,r2,40
   23cf4:	e0bffe17 	ldw	r2,-8(fp)
   23cf8:	10800217 	ldw	r2,8(r2)
   23cfc:	100f883a 	mov	r7,r2
   23d00:	e1bffc17 	ldw	r6,-16(fp)
   23d04:	e17ffd17 	ldw	r5,-12(fp)
   23d08:	1809883a 	mov	r4,r3
   23d0c:	0023d840 	call	23d84 <altera_avalon_jtag_uart_read>
   23d10:	e037883a 	mov	sp,fp
   23d14:	dfc00117 	ldw	ra,4(sp)
   23d18:	df000017 	ldw	fp,0(sp)
   23d1c:	dec00204 	addi	sp,sp,8
   23d20:	f800283a 	ret

00023d24 <altera_avalon_jtag_uart_write_fd>:
   23d24:	defffa04 	addi	sp,sp,-24
   23d28:	dfc00515 	stw	ra,20(sp)
   23d2c:	df000415 	stw	fp,16(sp)
   23d30:	df000404 	addi	fp,sp,16
   23d34:	e13ffe15 	stw	r4,-8(fp)
   23d38:	e17ffd15 	stw	r5,-12(fp)
   23d3c:	e1bffc15 	stw	r6,-16(fp)
   23d40:	e0bffe17 	ldw	r2,-8(fp)
   23d44:	10800017 	ldw	r2,0(r2)
   23d48:	e0bfff15 	stw	r2,-4(fp)
   23d4c:	e0bfff17 	ldw	r2,-4(fp)
   23d50:	10c00a04 	addi	r3,r2,40
   23d54:	e0bffe17 	ldw	r2,-8(fp)
   23d58:	10800217 	ldw	r2,8(r2)
   23d5c:	100f883a 	mov	r7,r2
   23d60:	e1bffc17 	ldw	r6,-16(fp)
   23d64:	e17ffd17 	ldw	r5,-12(fp)
   23d68:	1809883a 	mov	r4,r3
   23d6c:	0023e700 	call	23e70 <altera_avalon_jtag_uart_write>
   23d70:	e037883a 	mov	sp,fp
   23d74:	dfc00117 	ldw	ra,4(sp)
   23d78:	df000017 	ldw	fp,0(sp)
   23d7c:	dec00204 	addi	sp,sp,8
   23d80:	f800283a 	ret

00023d84 <altera_avalon_jtag_uart_read>:
   23d84:	defff704 	addi	sp,sp,-36
   23d88:	df000815 	stw	fp,32(sp)
   23d8c:	df000804 	addi	fp,sp,32
   23d90:	e13ffb15 	stw	r4,-20(fp)
   23d94:	e17ffa15 	stw	r5,-24(fp)
   23d98:	e1bff915 	stw	r6,-28(fp)
   23d9c:	e1fff815 	stw	r7,-32(fp)
   23da0:	e0bffb17 	ldw	r2,-20(fp)
   23da4:	10800017 	ldw	r2,0(r2)
   23da8:	e0bffe15 	stw	r2,-8(fp)
   23dac:	e0bffa17 	ldw	r2,-24(fp)
   23db0:	e0bfff15 	stw	r2,-4(fp)
   23db4:	e0bff917 	ldw	r2,-28(fp)
   23db8:	e0fffa17 	ldw	r3,-24(fp)
   23dbc:	1885883a 	add	r2,r3,r2
   23dc0:	e0bffd15 	stw	r2,-12(fp)
   23dc4:	00001206 	br	23e10 <altera_avalon_jtag_uart_read+0x8c>
   23dc8:	e0bffe17 	ldw	r2,-8(fp)
   23dcc:	10800037 	ldwio	r2,0(r2)
   23dd0:	e0bffc15 	stw	r2,-16(fp)
   23dd4:	e0bffc17 	ldw	r2,-16(fp)
   23dd8:	10a0000c 	andi	r2,r2,32768
   23ddc:	10000626 	beq	r2,zero,23df8 <altera_avalon_jtag_uart_read+0x74>
   23de0:	e0bfff17 	ldw	r2,-4(fp)
   23de4:	10c00044 	addi	r3,r2,1
   23de8:	e0ffff15 	stw	r3,-4(fp)
   23dec:	e0fffc17 	ldw	r3,-16(fp)
   23df0:	10c00005 	stb	r3,0(r2)
   23df4:	00000606 	br	23e10 <altera_avalon_jtag_uart_read+0x8c>
   23df8:	e0ffff17 	ldw	r3,-4(fp)
   23dfc:	e0bffa17 	ldw	r2,-24(fp)
   23e00:	1880071e 	bne	r3,r2,23e20 <altera_avalon_jtag_uart_read+0x9c>
   23e04:	e0bff817 	ldw	r2,-32(fp)
   23e08:	1090000c 	andi	r2,r2,16384
   23e0c:	1000061e 	bne	r2,zero,23e28 <altera_avalon_jtag_uart_read+0xa4>
   23e10:	e0ffff17 	ldw	r3,-4(fp)
   23e14:	e0bffd17 	ldw	r2,-12(fp)
   23e18:	18bfeb36 	bltu	r3,r2,23dc8 <altera_avalon_jtag_uart_read+0x44>
   23e1c:	00000306 	br	23e2c <altera_avalon_jtag_uart_read+0xa8>
   23e20:	0001883a 	nop
   23e24:	00000106 	br	23e2c <altera_avalon_jtag_uart_read+0xa8>
   23e28:	0001883a 	nop
   23e2c:	e0ffff17 	ldw	r3,-4(fp)
   23e30:	e0bffa17 	ldw	r2,-24(fp)
   23e34:	18800426 	beq	r3,r2,23e48 <altera_avalon_jtag_uart_read+0xc4>
   23e38:	e0ffff17 	ldw	r3,-4(fp)
   23e3c:	e0bffa17 	ldw	r2,-24(fp)
   23e40:	1885c83a 	sub	r2,r3,r2
   23e44:	00000606 	br	23e60 <altera_avalon_jtag_uart_read+0xdc>
   23e48:	e0bff817 	ldw	r2,-32(fp)
   23e4c:	1090000c 	andi	r2,r2,16384
   23e50:	10000226 	beq	r2,zero,23e5c <altera_avalon_jtag_uart_read+0xd8>
   23e54:	00bffd44 	movi	r2,-11
   23e58:	00000106 	br	23e60 <altera_avalon_jtag_uart_read+0xdc>
   23e5c:	00bffec4 	movi	r2,-5
   23e60:	e037883a 	mov	sp,fp
   23e64:	df000017 	ldw	fp,0(sp)
   23e68:	dec00104 	addi	sp,sp,4
   23e6c:	f800283a 	ret

00023e70 <altera_avalon_jtag_uart_write>:
   23e70:	defff904 	addi	sp,sp,-28
   23e74:	df000615 	stw	fp,24(sp)
   23e78:	df000604 	addi	fp,sp,24
   23e7c:	e13ffd15 	stw	r4,-12(fp)
   23e80:	e17ffc15 	stw	r5,-16(fp)
   23e84:	e1bffb15 	stw	r6,-20(fp)
   23e88:	e1fffa15 	stw	r7,-24(fp)
   23e8c:	e0bffd17 	ldw	r2,-12(fp)
   23e90:	10800017 	ldw	r2,0(r2)
   23e94:	e0bfff15 	stw	r2,-4(fp)
   23e98:	e0bffb17 	ldw	r2,-20(fp)
   23e9c:	e0fffc17 	ldw	r3,-16(fp)
   23ea0:	1885883a 	add	r2,r3,r2
   23ea4:	e0bffe15 	stw	r2,-8(fp)
   23ea8:	00000e06 	br	23ee4 <altera_avalon_jtag_uart_write+0x74>
   23eac:	e0bfff17 	ldw	r2,-4(fp)
   23eb0:	10800104 	addi	r2,r2,4
   23eb4:	10800037 	ldwio	r2,0(r2)
   23eb8:	10bfffec 	andhi	r2,r2,65535
   23ebc:	10000926 	beq	r2,zero,23ee4 <altera_avalon_jtag_uart_write+0x74>
   23ec0:	e0ffff17 	ldw	r3,-4(fp)
   23ec4:	e0bffc17 	ldw	r2,-16(fp)
   23ec8:	11000044 	addi	r4,r2,1
   23ecc:	e13ffc15 	stw	r4,-16(fp)
   23ed0:	10800003 	ldbu	r2,0(r2)
   23ed4:	10803fcc 	andi	r2,r2,255
   23ed8:	1080201c 	xori	r2,r2,128
   23edc:	10bfe004 	addi	r2,r2,-128
   23ee0:	18800035 	stwio	r2,0(r3)
   23ee4:	e0fffc17 	ldw	r3,-16(fp)
   23ee8:	e0bffe17 	ldw	r2,-8(fp)
   23eec:	18bfef36 	bltu	r3,r2,23eac <altera_avalon_jtag_uart_write+0x3c>
   23ef0:	e0bffb17 	ldw	r2,-20(fp)
   23ef4:	e037883a 	mov	sp,fp
   23ef8:	df000017 	ldw	fp,0(sp)
   23efc:	dec00104 	addi	sp,sp,4
   23f00:	f800283a 	ret

00023f04 <alt_get_errno>:
   23f04:	defffe04 	addi	sp,sp,-8
   23f08:	dfc00115 	stw	ra,4(sp)
   23f0c:	df000015 	stw	fp,0(sp)
   23f10:	d839883a 	mov	fp,sp
   23f14:	d0a00c17 	ldw	r2,-32720(gp)
   23f18:	10000326 	beq	r2,zero,23f28 <alt_get_errno+0x24>
   23f1c:	d0a00c17 	ldw	r2,-32720(gp)
   23f20:	103ee83a 	callr	r2
   23f24:	00000106 	br	23f2c <alt_get_errno+0x28>
   23f28:	d0a0f404 	addi	r2,gp,-31792
   23f2c:	e037883a 	mov	sp,fp
   23f30:	dfc00117 	ldw	ra,4(sp)
   23f34:	df000017 	ldw	fp,0(sp)
   23f38:	dec00204 	addi	sp,sp,8
   23f3c:	f800283a 	ret

00023f40 <alt_msgdma_write_standard_descriptor>:
   23f40:	defffc04 	addi	sp,sp,-16
   23f44:	df000315 	stw	fp,12(sp)
   23f48:	df000304 	addi	fp,sp,12
   23f4c:	e13fff15 	stw	r4,-4(fp)
   23f50:	e17ffe15 	stw	r5,-8(fp)
   23f54:	e1bffd15 	stw	r6,-12(fp)
   23f58:	e0bfff17 	ldw	r2,-4(fp)
   23f5c:	10800037 	ldwio	r2,0(r2)
   23f60:	1080010c 	andi	r2,r2,4
   23f64:	10000226 	beq	r2,zero,23f70 <alt_msgdma_write_standard_descriptor+0x30>
   23f68:	00bff904 	movi	r2,-28
   23f6c:	00001506 	br	23fc4 <alt_msgdma_write_standard_descriptor+0x84>
   23f70:	e0bffd17 	ldw	r2,-12(fp)
   23f74:	10800017 	ldw	r2,0(r2)
   23f78:	1007883a 	mov	r3,r2
   23f7c:	e0bffe17 	ldw	r2,-8(fp)
   23f80:	10c00035 	stwio	r3,0(r2)
   23f84:	e0bffe17 	ldw	r2,-8(fp)
   23f88:	10800104 	addi	r2,r2,4
   23f8c:	e0fffd17 	ldw	r3,-12(fp)
   23f90:	18c00117 	ldw	r3,4(r3)
   23f94:	10c00035 	stwio	r3,0(r2)
   23f98:	e0bffe17 	ldw	r2,-8(fp)
   23f9c:	10800204 	addi	r2,r2,8
   23fa0:	e0fffd17 	ldw	r3,-12(fp)
   23fa4:	18c00217 	ldw	r3,8(r3)
   23fa8:	10c00035 	stwio	r3,0(r2)
   23fac:	e0bffe17 	ldw	r2,-8(fp)
   23fb0:	10800304 	addi	r2,r2,12
   23fb4:	e0fffd17 	ldw	r3,-12(fp)
   23fb8:	18c00317 	ldw	r3,12(r3)
   23fbc:	10c00035 	stwio	r3,0(r2)
   23fc0:	0005883a 	mov	r2,zero
   23fc4:	e037883a 	mov	sp,fp
   23fc8:	df000017 	ldw	fp,0(sp)
   23fcc:	dec00104 	addi	sp,sp,4
   23fd0:	f800283a 	ret

00023fd4 <alt_msgdma_write_extended_descriptor>:
   23fd4:	defffc04 	addi	sp,sp,-16
   23fd8:	df000315 	stw	fp,12(sp)
   23fdc:	df000304 	addi	fp,sp,12
   23fe0:	e13fff15 	stw	r4,-4(fp)
   23fe4:	e17ffe15 	stw	r5,-8(fp)
   23fe8:	e1bffd15 	stw	r6,-12(fp)
   23fec:	e0bfff17 	ldw	r2,-4(fp)
   23ff0:	10800037 	ldwio	r2,0(r2)
   23ff4:	1080010c 	andi	r2,r2,4
   23ff8:	10000226 	beq	r2,zero,24004 <alt_msgdma_write_extended_descriptor+0x30>
   23ffc:	00bff904 	movi	r2,-28
   24000:	00003b06 	br	240f0 <alt_msgdma_write_extended_descriptor+0x11c>
   24004:	e0bffd17 	ldw	r2,-12(fp)
   24008:	10800017 	ldw	r2,0(r2)
   2400c:	1007883a 	mov	r3,r2
   24010:	e0bffe17 	ldw	r2,-8(fp)
   24014:	10c00035 	stwio	r3,0(r2)
   24018:	e0bffe17 	ldw	r2,-8(fp)
   2401c:	10800104 	addi	r2,r2,4
   24020:	e0fffd17 	ldw	r3,-12(fp)
   24024:	18c00117 	ldw	r3,4(r3)
   24028:	10c00035 	stwio	r3,0(r2)
   2402c:	e0bffe17 	ldw	r2,-8(fp)
   24030:	10800204 	addi	r2,r2,8
   24034:	e0fffd17 	ldw	r3,-12(fp)
   24038:	18c00217 	ldw	r3,8(r3)
   2403c:	10c00035 	stwio	r3,0(r2)
   24040:	e0bffe17 	ldw	r2,-8(fp)
   24044:	10800304 	addi	r2,r2,12
   24048:	e0fffd17 	ldw	r3,-12(fp)
   2404c:	18c0030b 	ldhu	r3,12(r3)
   24050:	18ffffcc 	andi	r3,r3,65535
   24054:	10c0002d 	sthio	r3,0(r2)
   24058:	e0bffe17 	ldw	r2,-8(fp)
   2405c:	10800384 	addi	r2,r2,14
   24060:	e0fffd17 	ldw	r3,-12(fp)
   24064:	18c00383 	ldbu	r3,14(r3)
   24068:	18c03fcc 	andi	r3,r3,255
   2406c:	10c00025 	stbio	r3,0(r2)
   24070:	e0bffe17 	ldw	r2,-8(fp)
   24074:	108003c4 	addi	r2,r2,15
   24078:	e0fffd17 	ldw	r3,-12(fp)
   2407c:	18c003c3 	ldbu	r3,15(r3)
   24080:	18c03fcc 	andi	r3,r3,255
   24084:	10c00025 	stbio	r3,0(r2)
   24088:	e0bffe17 	ldw	r2,-8(fp)
   2408c:	10800404 	addi	r2,r2,16
   24090:	e0fffd17 	ldw	r3,-12(fp)
   24094:	18c0040b 	ldhu	r3,16(r3)
   24098:	18ffffcc 	andi	r3,r3,65535
   2409c:	10c0002d 	sthio	r3,0(r2)
   240a0:	e0bffe17 	ldw	r2,-8(fp)
   240a4:	10800484 	addi	r2,r2,18
   240a8:	e0fffd17 	ldw	r3,-12(fp)
   240ac:	18c0048b 	ldhu	r3,18(r3)
   240b0:	18ffffcc 	andi	r3,r3,65535
   240b4:	10c0002d 	sthio	r3,0(r2)
   240b8:	e0bffe17 	ldw	r2,-8(fp)
   240bc:	10800504 	addi	r2,r2,20
   240c0:	0007883a 	mov	r3,zero
   240c4:	10c00035 	stwio	r3,0(r2)
   240c8:	e0bffe17 	ldw	r2,-8(fp)
   240cc:	10800604 	addi	r2,r2,24
   240d0:	0007883a 	mov	r3,zero
   240d4:	10c00035 	stwio	r3,0(r2)
   240d8:	e0bffe17 	ldw	r2,-8(fp)
   240dc:	10800704 	addi	r2,r2,28
   240e0:	e0fffd17 	ldw	r3,-12(fp)
   240e4:	18c00717 	ldw	r3,28(r3)
   240e8:	10c00035 	stwio	r3,0(r2)
   240ec:	0005883a 	mov	r2,zero
   240f0:	e037883a 	mov	sp,fp
   240f4:	df000017 	ldw	fp,0(sp)
   240f8:	dec00104 	addi	sp,sp,4
   240fc:	f800283a 	ret

00024100 <alt_msgdma_irq>:
   24100:	defff804 	addi	sp,sp,-32
   24104:	dfc00715 	stw	ra,28(sp)
   24108:	df000615 	stw	fp,24(sp)
   2410c:	df000604 	addi	fp,sp,24
   24110:	e13ffa15 	stw	r4,-24(fp)
   24114:	e0bffa17 	ldw	r2,-24(fp)
   24118:	e0bfff15 	stw	r2,-4(fp)
   2411c:	e0bfff17 	ldw	r2,-4(fp)
   24120:	10801783 	ldbu	r2,94(r2)
   24124:	10803fcc 	andi	r2,r2,255
   24128:	10001126 	beq	r2,zero,24170 <alt_msgdma_irq+0x70>
   2412c:	e0bfff17 	ldw	r2,-4(fp)
   24130:	10800617 	ldw	r2,24(r2)
   24134:	10800037 	ldwio	r2,0(r2)
   24138:	1007883a 	mov	r3,r2
   2413c:	00bffdc4 	movi	r2,-9
   24140:	1884703a 	and	r2,r3,r2
   24144:	e0bffe15 	stw	r2,-8(fp)
   24148:	e0bfff17 	ldw	r2,-4(fp)
   2414c:	10800617 	ldw	r2,24(r2)
   24150:	e0fffe17 	ldw	r3,-8(fp)
   24154:	10c00035 	stwio	r3,0(r2)
   24158:	e0bfff17 	ldw	r2,-4(fp)
   2415c:	10800617 	ldw	r2,24(r2)
   24160:	10800404 	addi	r2,r2,16
   24164:	00c00044 	movi	r3,1
   24168:	10c00035 	stwio	r3,0(r2)
   2416c:	00001106 	br	241b4 <alt_msgdma_irq+0xb4>
   24170:	e0bfff17 	ldw	r2,-4(fp)
   24174:	10800317 	ldw	r2,12(r2)
   24178:	10800104 	addi	r2,r2,4
   2417c:	10800037 	ldwio	r2,0(r2)
   24180:	1007883a 	mov	r3,r2
   24184:	00bffbc4 	movi	r2,-17
   24188:	1884703a 	and	r2,r3,r2
   2418c:	e0bffe15 	stw	r2,-8(fp)
   24190:	e0bfff17 	ldw	r2,-4(fp)
   24194:	10800317 	ldw	r2,12(r2)
   24198:	10800104 	addi	r2,r2,4
   2419c:	e0fffe17 	ldw	r3,-8(fp)
   241a0:	10c00035 	stwio	r3,0(r2)
   241a4:	e0bfff17 	ldw	r2,-4(fp)
   241a8:	10800317 	ldw	r2,12(r2)
   241ac:	00c08004 	movi	r3,512
   241b0:	10c00035 	stwio	r3,0(r2)
   241b4:	e0bfff17 	ldw	r2,-4(fp)
   241b8:	10800b17 	ldw	r2,44(r2)
   241bc:	10001326 	beq	r2,zero,2420c <alt_msgdma_irq+0x10c>
   241c0:	0005303a 	rdctl	r2,status
   241c4:	e0bffb15 	stw	r2,-20(fp)
   241c8:	e0fffb17 	ldw	r3,-20(fp)
   241cc:	00bfff84 	movi	r2,-2
   241d0:	1884703a 	and	r2,r3,r2
   241d4:	1001703a 	wrctl	status,r2
   241d8:	e0bffb17 	ldw	r2,-20(fp)
   241dc:	e0bffd15 	stw	r2,-12(fp)
   241e0:	e0bfff17 	ldw	r2,-4(fp)
   241e4:	10800b17 	ldw	r2,44(r2)
   241e8:	e0ffff17 	ldw	r3,-4(fp)
   241ec:	18c00c17 	ldw	r3,48(r3)
   241f0:	1809883a 	mov	r4,r3
   241f4:	103ee83a 	callr	r2
   241f8:	e0bffd17 	ldw	r2,-12(fp)
   241fc:	e0bffc15 	stw	r2,-16(fp)
   24200:	e0bffc17 	ldw	r2,-16(fp)
   24204:	1001703a 	wrctl	status,r2
   24208:	0001883a 	nop
   2420c:	e0bfff17 	ldw	r2,-4(fp)
   24210:	10801783 	ldbu	r2,94(r2)
   24214:	10803fcc 	andi	r2,r2,255
   24218:	10000a26 	beq	r2,zero,24244 <alt_msgdma_irq+0x144>
   2421c:	e0bfff17 	ldw	r2,-4(fp)
   24220:	10800617 	ldw	r2,24(r2)
   24224:	10800037 	ldwio	r2,0(r2)
   24228:	10800214 	ori	r2,r2,8
   2422c:	e0bffe15 	stw	r2,-8(fp)
   24230:	e0bfff17 	ldw	r2,-4(fp)
   24234:	10800617 	ldw	r2,24(r2)
   24238:	e0fffe17 	ldw	r3,-8(fp)
   2423c:	10c00035 	stwio	r3,0(r2)
   24240:	00000c06 	br	24274 <alt_msgdma_irq+0x174>
   24244:	e0bfff17 	ldw	r2,-4(fp)
   24248:	10800317 	ldw	r2,12(r2)
   2424c:	10800104 	addi	r2,r2,4
   24250:	10800037 	ldwio	r2,0(r2)
   24254:	10800414 	ori	r2,r2,16
   24258:	e0bffe15 	stw	r2,-8(fp)
   2425c:	e0bfff17 	ldw	r2,-4(fp)
   24260:	10800317 	ldw	r2,12(r2)
   24264:	10800104 	addi	r2,r2,4
   24268:	e0fffe17 	ldw	r3,-8(fp)
   2426c:	10c00035 	stwio	r3,0(r2)
   24270:	0001883a 	nop
   24274:	e037883a 	mov	sp,fp
   24278:	dfc00117 	ldw	ra,4(sp)
   2427c:	df000017 	ldw	fp,0(sp)
   24280:	dec00204 	addi	sp,sp,8
   24284:	f800283a 	ret

00024288 <alt_msgdma_construct_standard_descriptor>:
   24288:	defffb04 	addi	sp,sp,-20
   2428c:	df000415 	stw	fp,16(sp)
   24290:	df000404 	addi	fp,sp,16
   24294:	e13fff15 	stw	r4,-4(fp)
   24298:	e17ffe15 	stw	r5,-8(fp)
   2429c:	e1bffd15 	stw	r6,-12(fp)
   242a0:	e1fffc15 	stw	r7,-16(fp)
   242a4:	e0bfff17 	ldw	r2,-4(fp)
   242a8:	10c01217 	ldw	r3,72(r2)
   242ac:	e0800117 	ldw	r2,4(fp)
   242b0:	18800436 	bltu	r3,r2,242c4 <alt_msgdma_construct_standard_descriptor+0x3c>
   242b4:	e0bfff17 	ldw	r2,-4(fp)
   242b8:	10801703 	ldbu	r2,92(r2)
   242bc:	10803fcc 	andi	r2,r2,255
   242c0:	10000226 	beq	r2,zero,242cc <alt_msgdma_construct_standard_descriptor+0x44>
   242c4:	00bffa84 	movi	r2,-22
   242c8:	00000e06 	br	24304 <alt_msgdma_construct_standard_descriptor+0x7c>
   242cc:	e0bffe17 	ldw	r2,-8(fp)
   242d0:	e0fffd17 	ldw	r3,-12(fp)
   242d4:	10c00015 	stw	r3,0(r2)
   242d8:	e0bffe17 	ldw	r2,-8(fp)
   242dc:	e0fffc17 	ldw	r3,-16(fp)
   242e0:	10c00115 	stw	r3,4(r2)
   242e4:	e0bffe17 	ldw	r2,-8(fp)
   242e8:	e0c00117 	ldw	r3,4(fp)
   242ec:	10c00215 	stw	r3,8(r2)
   242f0:	e0800217 	ldw	r2,8(fp)
   242f4:	10e00034 	orhi	r3,r2,32768
   242f8:	e0bffe17 	ldw	r2,-8(fp)
   242fc:	10c00315 	stw	r3,12(r2)
   24300:	0005883a 	mov	r2,zero
   24304:	e037883a 	mov	sp,fp
   24308:	df000017 	ldw	fp,0(sp)
   2430c:	dec00104 	addi	sp,sp,4
   24310:	f800283a 	ret

00024314 <alt_msgdma_construct_extended_descriptor>:
   24314:	defff604 	addi	sp,sp,-40
   24318:	df000915 	stw	fp,36(sp)
   2431c:	df000904 	addi	fp,sp,36
   24320:	e13fff15 	stw	r4,-4(fp)
   24324:	e17ffe15 	stw	r5,-8(fp)
   24328:	e1bffd15 	stw	r6,-12(fp)
   2432c:	e1fffc15 	stw	r7,-16(fp)
   24330:	e1800317 	ldw	r6,12(fp)
   24334:	e1400417 	ldw	r5,16(fp)
   24338:	e1000517 	ldw	r4,20(fp)
   2433c:	e0c00617 	ldw	r3,24(fp)
   24340:	e0800717 	ldw	r2,28(fp)
   24344:	e1bffb0d 	sth	r6,-20(fp)
   24348:	e17ffa05 	stb	r5,-24(fp)
   2434c:	e13ff905 	stb	r4,-28(fp)
   24350:	e0fff80d 	sth	r3,-32(fp)
   24354:	e0bff70d 	sth	r2,-36(fp)
   24358:	e0bfff17 	ldw	r2,-4(fp)
   2435c:	10c01217 	ldw	r3,72(r2)
   24360:	e0800117 	ldw	r2,4(fp)
   24364:	18801936 	bltu	r3,r2,243cc <alt_msgdma_construct_extended_descriptor+0xb8>
   24368:	e13fff17 	ldw	r4,-4(fp)
   2436c:	20801317 	ldw	r2,76(r4)
   24370:	20c01417 	ldw	r3,80(r4)
   24374:	e13ff80b 	ldhu	r4,-32(fp)
   24378:	213fffcc 	andi	r4,r4,65535
   2437c:	2015883a 	mov	r10,r4
   24380:	0017883a 	mov	r11,zero
   24384:	1ac01136 	bltu	r3,r11,243cc <alt_msgdma_construct_extended_descriptor+0xb8>
   24388:	58c0011e 	bne	r11,r3,24390 <alt_msgdma_construct_extended_descriptor+0x7c>
   2438c:	12800f36 	bltu	r2,r10,243cc <alt_msgdma_construct_extended_descriptor+0xb8>
   24390:	e13fff17 	ldw	r4,-4(fp)
   24394:	20801317 	ldw	r2,76(r4)
   24398:	20c01417 	ldw	r3,80(r4)
   2439c:	e13ff70b 	ldhu	r4,-36(fp)
   243a0:	213fffcc 	andi	r4,r4,65535
   243a4:	2011883a 	mov	r8,r4
   243a8:	0013883a 	mov	r9,zero
   243ac:	1a400736 	bltu	r3,r9,243cc <alt_msgdma_construct_extended_descriptor+0xb8>
   243b0:	48c0011e 	bne	r9,r3,243b8 <alt_msgdma_construct_extended_descriptor+0xa4>
   243b4:	12000536 	bltu	r2,r8,243cc <alt_msgdma_construct_extended_descriptor+0xb8>
   243b8:	e0bfff17 	ldw	r2,-4(fp)
   243bc:	10801703 	ldbu	r2,92(r2)
   243c0:	10803fcc 	andi	r2,r2,255
   243c4:	10800060 	cmpeqi	r2,r2,1
   243c8:	1000021e 	bne	r2,zero,243d4 <alt_msgdma_construct_extended_descriptor+0xc0>
   243cc:	00bffa84 	movi	r2,-22
   243d0:	00002106 	br	24458 <alt_msgdma_construct_extended_descriptor+0x144>
   243d4:	e0bffe17 	ldw	r2,-8(fp)
   243d8:	e0fffd17 	ldw	r3,-12(fp)
   243dc:	10c00015 	stw	r3,0(r2)
   243e0:	e0bffe17 	ldw	r2,-8(fp)
   243e4:	e0fffc17 	ldw	r3,-16(fp)
   243e8:	10c00115 	stw	r3,4(r2)
   243ec:	e0bffe17 	ldw	r2,-8(fp)
   243f0:	e0c00117 	ldw	r3,4(fp)
   243f4:	10c00215 	stw	r3,8(r2)
   243f8:	e0bffe17 	ldw	r2,-8(fp)
   243fc:	e0fffb0b 	ldhu	r3,-20(fp)
   24400:	10c0030d 	sth	r3,12(r2)
   24404:	e0bffe17 	ldw	r2,-8(fp)
   24408:	e0fffa03 	ldbu	r3,-24(fp)
   2440c:	10c00385 	stb	r3,14(r2)
   24410:	e0bffe17 	ldw	r2,-8(fp)
   24414:	e0fff903 	ldbu	r3,-28(fp)
   24418:	10c003c5 	stb	r3,15(r2)
   2441c:	e0bffe17 	ldw	r2,-8(fp)
   24420:	e0fff80b 	ldhu	r3,-32(fp)
   24424:	10c0040d 	sth	r3,16(r2)
   24428:	e0bffe17 	ldw	r2,-8(fp)
   2442c:	e0fff70b 	ldhu	r3,-36(fp)
   24430:	10c0048d 	sth	r3,18(r2)
   24434:	e0bffe17 	ldw	r2,-8(fp)
   24438:	10000515 	stw	zero,20(r2)
   2443c:	e0bffe17 	ldw	r2,-8(fp)
   24440:	10000615 	stw	zero,24(r2)
   24444:	e0800217 	ldw	r2,8(fp)
   24448:	10e00034 	orhi	r3,r2,32768
   2444c:	e0bffe17 	ldw	r2,-8(fp)
   24450:	10c00715 	stw	r3,28(r2)
   24454:	0005883a 	mov	r2,zero
   24458:	e037883a 	mov	sp,fp
   2445c:	df000017 	ldw	fp,0(sp)
   24460:	dec00104 	addi	sp,sp,4
   24464:	f800283a 	ret

00024468 <alt_msgdma_descriptor_async_transfer>:
   24468:	defff004 	addi	sp,sp,-64
   2446c:	dfc00f15 	stw	ra,60(sp)
   24470:	df000e15 	stw	fp,56(sp)
   24474:	df000e04 	addi	fp,sp,56
   24478:	e13ff415 	stw	r4,-48(fp)
   2447c:	e17ff315 	stw	r5,-52(fp)
   24480:	e1bff215 	stw	r6,-56(fp)
   24484:	e03ffe15 	stw	zero,-8(fp)
   24488:	e03ffd15 	stw	zero,-12(fp)
   2448c:	e03fff8d 	sth	zero,-2(fp)
   24490:	e0bff417 	ldw	r2,-48(fp)
   24494:	10800317 	ldw	r2,12(r2)
   24498:	10800204 	addi	r2,r2,8
   2449c:	10800037 	ldwio	r2,0(r2)
   244a0:	10bfffcc 	andi	r2,r2,65535
   244a4:	e0bffc15 	stw	r2,-16(fp)
   244a8:	e0bff417 	ldw	r2,-48(fp)
   244ac:	10800317 	ldw	r2,12(r2)
   244b0:	10800204 	addi	r2,r2,8
   244b4:	10800037 	ldwio	r2,0(r2)
   244b8:	1004d43a 	srli	r2,r2,16
   244bc:	10bfffcc 	andi	r2,r2,65535
   244c0:	e0bffb15 	stw	r2,-20(fp)
   244c4:	e0bff417 	ldw	r2,-48(fp)
   244c8:	10800917 	ldw	r2,36(r2)
   244cc:	e0fffb17 	ldw	r3,-20(fp)
   244d0:	1880042e 	bgeu	r3,r2,244e4 <alt_msgdma_descriptor_async_transfer+0x7c>
   244d4:	e0bff417 	ldw	r2,-48(fp)
   244d8:	10800917 	ldw	r2,36(r2)
   244dc:	e0fffc17 	ldw	r3,-16(fp)
   244e0:	18800236 	bltu	r3,r2,244ec <alt_msgdma_descriptor_async_transfer+0x84>
   244e4:	00bff904 	movi	r2,-28
   244e8:	00009106 	br	24730 <alt_msgdma_descriptor_async_transfer+0x2c8>
   244ec:	00800804 	movi	r2,32
   244f0:	e0bffe15 	stw	r2,-8(fp)
   244f4:	0005303a 	rdctl	r2,status
   244f8:	e0bff915 	stw	r2,-28(fp)
   244fc:	e0fff917 	ldw	r3,-28(fp)
   24500:	00bfff84 	movi	r2,-2
   24504:	1884703a 	and	r2,r3,r2
   24508:	1001703a 	wrctl	status,r2
   2450c:	e0bff917 	ldw	r2,-28(fp)
   24510:	e0bffd15 	stw	r2,-12(fp)
   24514:	e0bff417 	ldw	r2,-48(fp)
   24518:	10800317 	ldw	r2,12(r2)
   2451c:	10800104 	addi	r2,r2,4
   24520:	e0fffe17 	ldw	r3,-8(fp)
   24524:	10c00035 	stwio	r3,0(r2)
   24528:	e0bff417 	ldw	r2,-48(fp)
   2452c:	10800317 	ldw	r2,12(r2)
   24530:	e0fff417 	ldw	r3,-48(fp)
   24534:	18c00317 	ldw	r3,12(r3)
   24538:	18c00037 	ldwio	r3,0(r3)
   2453c:	10c00035 	stwio	r3,0(r2)
   24540:	e0bffd17 	ldw	r2,-12(fp)
   24544:	e0bffa15 	stw	r2,-24(fp)
   24548:	e0bffa17 	ldw	r2,-24(fp)
   2454c:	1001703a 	wrctl	status,r2
   24550:	0001883a 	nop
   24554:	e0bff317 	ldw	r2,-52(fp)
   24558:	10001a26 	beq	r2,zero,245c4 <alt_msgdma_descriptor_async_transfer+0x15c>
   2455c:	e0bff217 	ldw	r2,-56(fp)
   24560:	1000181e 	bne	r2,zero,245c4 <alt_msgdma_descriptor_async_transfer+0x15c>
   24564:	00000d06 	br	2459c <alt_msgdma_descriptor_async_transfer+0x134>
   24568:	01000044 	movi	r4,1
   2456c:	0025edc0 	call	25edc <alt_busy_sleep>
   24570:	e0bfff8b 	ldhu	r2,-2(fp)
   24574:	1084e230 	cmpltui	r2,r2,5000
   24578:	1000051e 	bne	r2,zero,24590 <alt_msgdma_descriptor_async_transfer+0x128>
   2457c:	010000b4 	movhi	r4,2
   24580:	211bde04 	addi	r4,r4,28536
   24584:	002172c0 	call	2172c <alt_printf>
   24588:	00bff084 	movi	r2,-62
   2458c:	00006806 	br	24730 <alt_msgdma_descriptor_async_transfer+0x2c8>
   24590:	e0bfff8b 	ldhu	r2,-2(fp)
   24594:	10800044 	addi	r2,r2,1
   24598:	e0bfff8d 	sth	r2,-2(fp)
   2459c:	e0bff417 	ldw	r2,-48(fp)
   245a0:	10c00317 	ldw	r3,12(r2)
   245a4:	e0bff417 	ldw	r2,-48(fp)
   245a8:	10800417 	ldw	r2,16(r2)
   245ac:	e1bff317 	ldw	r6,-52(fp)
   245b0:	100b883a 	mov	r5,r2
   245b4:	1809883a 	mov	r4,r3
   245b8:	0023f400 	call	23f40 <alt_msgdma_write_standard_descriptor>
   245bc:	103fea1e 	bne	r2,zero,24568 <alt_msgdma_descriptor_async_transfer+0x100>
   245c0:	00001f06 	br	24640 <alt_msgdma_descriptor_async_transfer+0x1d8>
   245c4:	e0bff317 	ldw	r2,-52(fp)
   245c8:	10001b1e 	bne	r2,zero,24638 <alt_msgdma_descriptor_async_transfer+0x1d0>
   245cc:	e0bff217 	ldw	r2,-56(fp)
   245d0:	10001926 	beq	r2,zero,24638 <alt_msgdma_descriptor_async_transfer+0x1d0>
   245d4:	e03fff8d 	sth	zero,-2(fp)
   245d8:	00000d06 	br	24610 <alt_msgdma_descriptor_async_transfer+0x1a8>
   245dc:	01000044 	movi	r4,1
   245e0:	0025edc0 	call	25edc <alt_busy_sleep>
   245e4:	e0bfff8b 	ldhu	r2,-2(fp)
   245e8:	1084e230 	cmpltui	r2,r2,5000
   245ec:	1000051e 	bne	r2,zero,24604 <alt_msgdma_descriptor_async_transfer+0x19c>
   245f0:	010000b4 	movhi	r4,2
   245f4:	211bf404 	addi	r4,r4,28624
   245f8:	002172c0 	call	2172c <alt_printf>
   245fc:	00bff084 	movi	r2,-62
   24600:	00004b06 	br	24730 <alt_msgdma_descriptor_async_transfer+0x2c8>
   24604:	e0bfff8b 	ldhu	r2,-2(fp)
   24608:	10800044 	addi	r2,r2,1
   2460c:	e0bfff8d 	sth	r2,-2(fp)
   24610:	e0bff417 	ldw	r2,-48(fp)
   24614:	10c00317 	ldw	r3,12(r2)
   24618:	e0bff417 	ldw	r2,-48(fp)
   2461c:	10800417 	ldw	r2,16(r2)
   24620:	e1bff217 	ldw	r6,-56(fp)
   24624:	100b883a 	mov	r5,r2
   24628:	1809883a 	mov	r4,r3
   2462c:	0023fd40 	call	23fd4 <alt_msgdma_write_extended_descriptor>
   24630:	103fea1e 	bne	r2,zero,245dc <alt_msgdma_descriptor_async_transfer+0x174>
   24634:	00000206 	br	24640 <alt_msgdma_descriptor_async_transfer+0x1d8>
   24638:	00bfffc4 	movi	r2,-1
   2463c:	00003c06 	br	24730 <alt_msgdma_descriptor_async_transfer+0x2c8>
   24640:	e0bff417 	ldw	r2,-48(fp)
   24644:	10800b17 	ldw	r2,44(r2)
   24648:	10001c26 	beq	r2,zero,246bc <alt_msgdma_descriptor_async_transfer+0x254>
   2464c:	e0bff417 	ldw	r2,-48(fp)
   24650:	10c00d17 	ldw	r3,52(r2)
   24654:	e0bffe17 	ldw	r2,-8(fp)
   24658:	1884b03a 	or	r2,r3,r2
   2465c:	10800514 	ori	r2,r2,20
   24660:	e0bffe15 	stw	r2,-8(fp)
   24664:	e0fffe17 	ldw	r3,-8(fp)
   24668:	00bff7c4 	movi	r2,-33
   2466c:	1884703a 	and	r2,r3,r2
   24670:	e0bffe15 	stw	r2,-8(fp)
   24674:	0005303a 	rdctl	r2,status
   24678:	e0bff715 	stw	r2,-36(fp)
   2467c:	e0fff717 	ldw	r3,-36(fp)
   24680:	00bfff84 	movi	r2,-2
   24684:	1884703a 	and	r2,r3,r2
   24688:	1001703a 	wrctl	status,r2
   2468c:	e0bff717 	ldw	r2,-36(fp)
   24690:	e0bffd15 	stw	r2,-12(fp)
   24694:	e0bff417 	ldw	r2,-48(fp)
   24698:	10800317 	ldw	r2,12(r2)
   2469c:	10800104 	addi	r2,r2,4
   246a0:	e0fffe17 	ldw	r3,-8(fp)
   246a4:	10c00035 	stwio	r3,0(r2)
   246a8:	e0bffd17 	ldw	r2,-12(fp)
   246ac:	e0bff815 	stw	r2,-32(fp)
   246b0:	e0bff817 	ldw	r2,-32(fp)
   246b4:	1001703a 	wrctl	status,r2
   246b8:	00001c06 	br	2472c <alt_msgdma_descriptor_async_transfer+0x2c4>
   246bc:	e0bff417 	ldw	r2,-48(fp)
   246c0:	10c00d17 	ldw	r3,52(r2)
   246c4:	e0bffe17 	ldw	r2,-8(fp)
   246c8:	1884b03a 	or	r2,r3,r2
   246cc:	10800114 	ori	r2,r2,4
   246d0:	e0bffe15 	stw	r2,-8(fp)
   246d4:	e0fffe17 	ldw	r3,-8(fp)
   246d8:	00bff3c4 	movi	r2,-49
   246dc:	1884703a 	and	r2,r3,r2
   246e0:	e0bffe15 	stw	r2,-8(fp)
   246e4:	0005303a 	rdctl	r2,status
   246e8:	e0bff515 	stw	r2,-44(fp)
   246ec:	e0fff517 	ldw	r3,-44(fp)
   246f0:	00bfff84 	movi	r2,-2
   246f4:	1884703a 	and	r2,r3,r2
   246f8:	1001703a 	wrctl	status,r2
   246fc:	e0bff517 	ldw	r2,-44(fp)
   24700:	e0bffd15 	stw	r2,-12(fp)
   24704:	e0bff417 	ldw	r2,-48(fp)
   24708:	10800317 	ldw	r2,12(r2)
   2470c:	10800104 	addi	r2,r2,4
   24710:	e0fffe17 	ldw	r3,-8(fp)
   24714:	10c00035 	stwio	r3,0(r2)
   24718:	e0bffd17 	ldw	r2,-12(fp)
   2471c:	e0bff615 	stw	r2,-40(fp)
   24720:	e0bff617 	ldw	r2,-40(fp)
   24724:	1001703a 	wrctl	status,r2
   24728:	0001883a 	nop
   2472c:	0005883a 	mov	r2,zero
   24730:	e037883a 	mov	sp,fp
   24734:	dfc00117 	ldw	ra,4(sp)
   24738:	df000017 	ldw	fp,0(sp)
   2473c:	dec00204 	addi	sp,sp,8
   24740:	f800283a 	ret

00024744 <alt_msgdma_descriptor_sync_transfer>:
   24744:	defff004 	addi	sp,sp,-64
   24748:	dfc00f15 	stw	ra,60(sp)
   2474c:	df000e15 	stw	fp,56(sp)
   24750:	df000e04 	addi	fp,sp,56
   24754:	e13ff415 	stw	r4,-48(fp)
   24758:	e17ff315 	stw	r5,-52(fp)
   2475c:	e1bff215 	stw	r6,-56(fp)
   24760:	e03ffb15 	stw	zero,-20(fp)
   24764:	e03ffa15 	stw	zero,-24(fp)
   24768:	e03fff15 	stw	zero,-4(fp)
   2476c:	e03ffe8d 	sth	zero,-6(fp)
   24770:	e0bff417 	ldw	r2,-48(fp)
   24774:	10800317 	ldw	r2,12(r2)
   24778:	10800204 	addi	r2,r2,8
   2477c:	10800037 	ldwio	r2,0(r2)
   24780:	10bfffcc 	andi	r2,r2,65535
   24784:	e0bffd15 	stw	r2,-12(fp)
   24788:	e0bff417 	ldw	r2,-48(fp)
   2478c:	10800317 	ldw	r2,12(r2)
   24790:	10800204 	addi	r2,r2,8
   24794:	10800037 	ldwio	r2,0(r2)
   24798:	1004d43a 	srli	r2,r2,16
   2479c:	10bfffcc 	andi	r2,r2,65535
   247a0:	e0bffc15 	stw	r2,-16(fp)
   247a4:	00807804 	movi	r2,480
   247a8:	e0bff915 	stw	r2,-28(fp)
   247ac:	00001a06 	br	24818 <alt_msgdma_descriptor_sync_transfer+0xd4>
   247b0:	01000044 	movi	r4,1
   247b4:	0025edc0 	call	25edc <alt_busy_sleep>
   247b8:	e0bffe8b 	ldhu	r2,-6(fp)
   247bc:	1084e230 	cmpltui	r2,r2,5000
   247c0:	1000051e 	bne	r2,zero,247d8 <alt_msgdma_descriptor_sync_transfer+0x94>
   247c4:	010000b4 	movhi	r4,2
   247c8:	211c0a04 	addi	r4,r4,28712
   247cc:	002172c0 	call	2172c <alt_printf>
   247d0:	00bff084 	movi	r2,-62
   247d4:	0000b806 	br	24ab8 <alt_msgdma_descriptor_sync_transfer+0x374>
   247d8:	e0bffe8b 	ldhu	r2,-6(fp)
   247dc:	10800044 	addi	r2,r2,1
   247e0:	e0bffe8d 	sth	r2,-6(fp)
   247e4:	e0bff417 	ldw	r2,-48(fp)
   247e8:	10800317 	ldw	r2,12(r2)
   247ec:	10800204 	addi	r2,r2,8
   247f0:	10800037 	ldwio	r2,0(r2)
   247f4:	10bfffcc 	andi	r2,r2,65535
   247f8:	e0bffd15 	stw	r2,-12(fp)
   247fc:	e0bff417 	ldw	r2,-48(fp)
   24800:	10800317 	ldw	r2,12(r2)
   24804:	10800204 	addi	r2,r2,8
   24808:	10800037 	ldwio	r2,0(r2)
   2480c:	1004d43a 	srli	r2,r2,16
   24810:	10bfffcc 	andi	r2,r2,65535
   24814:	e0bffc15 	stw	r2,-16(fp)
   24818:	e0bff417 	ldw	r2,-48(fp)
   2481c:	10800917 	ldw	r2,36(r2)
   24820:	e0fffc17 	ldw	r3,-16(fp)
   24824:	18bfe22e 	bgeu	r3,r2,247b0 <alt_msgdma_descriptor_sync_transfer+0x6c>
   24828:	e0bff417 	ldw	r2,-48(fp)
   2482c:	10800917 	ldw	r2,36(r2)
   24830:	e0fffd17 	ldw	r3,-12(fp)
   24834:	18bfde2e 	bgeu	r3,r2,247b0 <alt_msgdma_descriptor_sync_transfer+0x6c>
   24838:	0005303a 	rdctl	r2,status
   2483c:	e0bff815 	stw	r2,-32(fp)
   24840:	e0fff817 	ldw	r3,-32(fp)
   24844:	00bfff84 	movi	r2,-2
   24848:	1884703a 	and	r2,r3,r2
   2484c:	1001703a 	wrctl	status,r2
   24850:	e0bff817 	ldw	r2,-32(fp)
   24854:	e0bffa15 	stw	r2,-24(fp)
   24858:	e0bff417 	ldw	r2,-48(fp)
   2485c:	10800317 	ldw	r2,12(r2)
   24860:	10800104 	addi	r2,r2,4
   24864:	00c00804 	movi	r3,32
   24868:	10c00035 	stwio	r3,0(r2)
   2486c:	e0bff417 	ldw	r2,-48(fp)
   24870:	10800317 	ldw	r2,12(r2)
   24874:	e0fff417 	ldw	r3,-48(fp)
   24878:	18c00317 	ldw	r3,12(r3)
   2487c:	18c00037 	ldwio	r3,0(r3)
   24880:	10c00035 	stwio	r3,0(r2)
   24884:	e0bff317 	ldw	r2,-52(fp)
   24888:	10001b26 	beq	r2,zero,248f8 <alt_msgdma_descriptor_sync_transfer+0x1b4>
   2488c:	e0bff217 	ldw	r2,-56(fp)
   24890:	1000191e 	bne	r2,zero,248f8 <alt_msgdma_descriptor_sync_transfer+0x1b4>
   24894:	e03ffe8d 	sth	zero,-6(fp)
   24898:	00000d06 	br	248d0 <alt_msgdma_descriptor_sync_transfer+0x18c>
   2489c:	01000044 	movi	r4,1
   248a0:	0025edc0 	call	25edc <alt_busy_sleep>
   248a4:	e0bffe8b 	ldhu	r2,-6(fp)
   248a8:	1084e230 	cmpltui	r2,r2,5000
   248ac:	1000051e 	bne	r2,zero,248c4 <alt_msgdma_descriptor_sync_transfer+0x180>
   248b0:	010000b4 	movhi	r4,2
   248b4:	211c1e04 	addi	r4,r4,28792
   248b8:	002172c0 	call	2172c <alt_printf>
   248bc:	00bff084 	movi	r2,-62
   248c0:	00007d06 	br	24ab8 <alt_msgdma_descriptor_sync_transfer+0x374>
   248c4:	e0bffe8b 	ldhu	r2,-6(fp)
   248c8:	10800044 	addi	r2,r2,1
   248cc:	e0bffe8d 	sth	r2,-6(fp)
   248d0:	e0bff417 	ldw	r2,-48(fp)
   248d4:	10c00317 	ldw	r3,12(r2)
   248d8:	e0bff417 	ldw	r2,-48(fp)
   248dc:	10800417 	ldw	r2,16(r2)
   248e0:	e1bff317 	ldw	r6,-52(fp)
   248e4:	100b883a 	mov	r5,r2
   248e8:	1809883a 	mov	r4,r3
   248ec:	0023f400 	call	23f40 <alt_msgdma_write_standard_descriptor>
   248f0:	103fea1e 	bne	r2,zero,2489c <alt_msgdma_descriptor_sync_transfer+0x158>
   248f4:	00001f06 	br	24974 <alt_msgdma_descriptor_sync_transfer+0x230>
   248f8:	e0bff317 	ldw	r2,-52(fp)
   248fc:	10001b1e 	bne	r2,zero,2496c <alt_msgdma_descriptor_sync_transfer+0x228>
   24900:	e0bff217 	ldw	r2,-56(fp)
   24904:	10001926 	beq	r2,zero,2496c <alt_msgdma_descriptor_sync_transfer+0x228>
   24908:	e03ffe8d 	sth	zero,-6(fp)
   2490c:	00000d06 	br	24944 <alt_msgdma_descriptor_sync_transfer+0x200>
   24910:	01000044 	movi	r4,1
   24914:	0025edc0 	call	25edc <alt_busy_sleep>
   24918:	e0bffe8b 	ldhu	r2,-6(fp)
   2491c:	1084e230 	cmpltui	r2,r2,5000
   24920:	1000051e 	bne	r2,zero,24938 <alt_msgdma_descriptor_sync_transfer+0x1f4>
   24924:	010000b4 	movhi	r4,2
   24928:	211c2f04 	addi	r4,r4,28860
   2492c:	002172c0 	call	2172c <alt_printf>
   24930:	00bff084 	movi	r2,-62
   24934:	00006006 	br	24ab8 <alt_msgdma_descriptor_sync_transfer+0x374>
   24938:	e0bffe8b 	ldhu	r2,-6(fp)
   2493c:	10800044 	addi	r2,r2,1
   24940:	e0bffe8d 	sth	r2,-6(fp)
   24944:	e0bff417 	ldw	r2,-48(fp)
   24948:	10c00317 	ldw	r3,12(r2)
   2494c:	e0bff417 	ldw	r2,-48(fp)
   24950:	10800417 	ldw	r2,16(r2)
   24954:	e1bff217 	ldw	r6,-56(fp)
   24958:	100b883a 	mov	r5,r2
   2495c:	1809883a 	mov	r4,r3
   24960:	0023fd40 	call	23fd4 <alt_msgdma_write_extended_descriptor>
   24964:	103fea1e 	bne	r2,zero,24910 <alt_msgdma_descriptor_sync_transfer+0x1cc>
   24968:	00000206 	br	24974 <alt_msgdma_descriptor_sync_transfer+0x230>
   2496c:	00bfffc4 	movi	r2,-1
   24970:	00005106 	br	24ab8 <alt_msgdma_descriptor_sync_transfer+0x374>
   24974:	e0bff417 	ldw	r2,-48(fp)
   24978:	10800317 	ldw	r2,12(r2)
   2497c:	10800104 	addi	r2,r2,4
   24980:	e0fff417 	ldw	r3,-48(fp)
   24984:	19000d17 	ldw	r4,52(r3)
   24988:	00fff2c4 	movi	r3,-53
   2498c:	20c6703a 	and	r3,r4,r3
   24990:	18c00114 	ori	r3,r3,4
   24994:	10c00035 	stwio	r3,0(r2)
   24998:	e0bffa17 	ldw	r2,-24(fp)
   2499c:	e0bff715 	stw	r2,-36(fp)
   249a0:	e0bff717 	ldw	r2,-36(fp)
   249a4:	1001703a 	wrctl	status,r2
   249a8:	0001883a 	nop
   249ac:	e03ffe8d 	sth	zero,-6(fp)
   249b0:	e0bff417 	ldw	r2,-48(fp)
   249b4:	10800317 	ldw	r2,12(r2)
   249b8:	10800037 	ldwio	r2,0(r2)
   249bc:	e0bfff15 	stw	r2,-4(fp)
   249c0:	00001106 	br	24a08 <alt_msgdma_descriptor_sync_transfer+0x2c4>
   249c4:	01000044 	movi	r4,1
   249c8:	0025edc0 	call	25edc <alt_busy_sleep>
   249cc:	e0bffe8b 	ldhu	r2,-6(fp)
   249d0:	1084e230 	cmpltui	r2,r2,5000
   249d4:	1000051e 	bne	r2,zero,249ec <alt_msgdma_descriptor_sync_transfer+0x2a8>
   249d8:	010000b4 	movhi	r4,2
   249dc:	211c4004 	addi	r4,r4,28928
   249e0:	002172c0 	call	2172c <alt_printf>
   249e4:	00bff084 	movi	r2,-62
   249e8:	00003306 	br	24ab8 <alt_msgdma_descriptor_sync_transfer+0x374>
   249ec:	e0bffe8b 	ldhu	r2,-6(fp)
   249f0:	10800044 	addi	r2,r2,1
   249f4:	e0bffe8d 	sth	r2,-6(fp)
   249f8:	e0bff417 	ldw	r2,-48(fp)
   249fc:	10800317 	ldw	r2,12(r2)
   24a00:	10800037 	ldwio	r2,0(r2)
   24a04:	e0bfff15 	stw	r2,-4(fp)
   24a08:	e0ffff17 	ldw	r3,-4(fp)
   24a0c:	e0bff917 	ldw	r2,-28(fp)
   24a10:	1884703a 	and	r2,r3,r2
   24a14:	1000031e 	bne	r2,zero,24a24 <alt_msgdma_descriptor_sync_transfer+0x2e0>
   24a18:	e0bfff17 	ldw	r2,-4(fp)
   24a1c:	1080004c 	andi	r2,r2,1
   24a20:	103fe81e 	bne	r2,zero,249c4 <alt_msgdma_descriptor_sync_transfer+0x280>
   24a24:	e0ffff17 	ldw	r3,-4(fp)
   24a28:	e0bff917 	ldw	r2,-28(fp)
   24a2c:	1884703a 	and	r2,r3,r2
   24a30:	10000226 	beq	r2,zero,24a3c <alt_msgdma_descriptor_sync_transfer+0x2f8>
   24a34:	e0bff917 	ldw	r2,-28(fp)
   24a38:	00001f06 	br	24ab8 <alt_msgdma_descriptor_sync_transfer+0x374>
   24a3c:	e0bff417 	ldw	r2,-48(fp)
   24a40:	10800317 	ldw	r2,12(r2)
   24a44:	10800104 	addi	r2,r2,4
   24a48:	10800037 	ldwio	r2,0(r2)
   24a4c:	10800814 	ori	r2,r2,32
   24a50:	e0bffb15 	stw	r2,-20(fp)
   24a54:	0005303a 	rdctl	r2,status
   24a58:	e0bff515 	stw	r2,-44(fp)
   24a5c:	e0fff517 	ldw	r3,-44(fp)
   24a60:	00bfff84 	movi	r2,-2
   24a64:	1884703a 	and	r2,r3,r2
   24a68:	1001703a 	wrctl	status,r2
   24a6c:	e0bff517 	ldw	r2,-44(fp)
   24a70:	e0bffa15 	stw	r2,-24(fp)
   24a74:	e0bff417 	ldw	r2,-48(fp)
   24a78:	10800317 	ldw	r2,12(r2)
   24a7c:	10800104 	addi	r2,r2,4
   24a80:	e0fffb17 	ldw	r3,-20(fp)
   24a84:	10c00035 	stwio	r3,0(r2)
   24a88:	e0bff417 	ldw	r2,-48(fp)
   24a8c:	10800317 	ldw	r2,12(r2)
   24a90:	e0fff417 	ldw	r3,-48(fp)
   24a94:	18c00317 	ldw	r3,12(r3)
   24a98:	18c00037 	ldwio	r3,0(r3)
   24a9c:	10c00035 	stwio	r3,0(r2)
   24aa0:	e0bffa17 	ldw	r2,-24(fp)
   24aa4:	e0bff615 	stw	r2,-40(fp)
   24aa8:	e0bff617 	ldw	r2,-40(fp)
   24aac:	1001703a 	wrctl	status,r2
   24ab0:	0001883a 	nop
   24ab4:	0005883a 	mov	r2,zero
   24ab8:	e037883a 	mov	sp,fp
   24abc:	dfc00117 	ldw	ra,4(sp)
   24ac0:	df000017 	ldw	fp,0(sp)
   24ac4:	dec00204 	addi	sp,sp,8
   24ac8:	f800283a 	ret

00024acc <alt_msgdma_construct_standard_st_to_mm_descriptor>:
   24acc:	defff804 	addi	sp,sp,-32
   24ad0:	dfc00715 	stw	ra,28(sp)
   24ad4:	df000615 	stw	fp,24(sp)
   24ad8:	df000604 	addi	fp,sp,24
   24adc:	e13fff15 	stw	r4,-4(fp)
   24ae0:	e17ffe15 	stw	r5,-8(fp)
   24ae4:	e1bffd15 	stw	r6,-12(fp)
   24ae8:	e1fffc15 	stw	r7,-16(fp)
   24aec:	e0800217 	ldw	r2,8(fp)
   24af0:	d8800115 	stw	r2,4(sp)
   24af4:	e0bffc17 	ldw	r2,-16(fp)
   24af8:	d8800015 	stw	r2,0(sp)
   24afc:	e1fffd17 	ldw	r7,-12(fp)
   24b00:	000d883a 	mov	r6,zero
   24b04:	e17ffe17 	ldw	r5,-8(fp)
   24b08:	e13fff17 	ldw	r4,-4(fp)
   24b0c:	00242880 	call	24288 <alt_msgdma_construct_standard_descriptor>
   24b10:	e037883a 	mov	sp,fp
   24b14:	dfc00117 	ldw	ra,4(sp)
   24b18:	df000017 	ldw	fp,0(sp)
   24b1c:	dec00204 	addi	sp,sp,8
   24b20:	f800283a 	ret

00024b24 <alt_msgdma_construct_standard_mm_to_st_descriptor>:
   24b24:	defff804 	addi	sp,sp,-32
   24b28:	dfc00715 	stw	ra,28(sp)
   24b2c:	df000615 	stw	fp,24(sp)
   24b30:	df000604 	addi	fp,sp,24
   24b34:	e13fff15 	stw	r4,-4(fp)
   24b38:	e17ffe15 	stw	r5,-8(fp)
   24b3c:	e1bffd15 	stw	r6,-12(fp)
   24b40:	e1fffc15 	stw	r7,-16(fp)
   24b44:	e0800217 	ldw	r2,8(fp)
   24b48:	d8800115 	stw	r2,4(sp)
   24b4c:	e0bffc17 	ldw	r2,-16(fp)
   24b50:	d8800015 	stw	r2,0(sp)
   24b54:	000f883a 	mov	r7,zero
   24b58:	e1bffd17 	ldw	r6,-12(fp)
   24b5c:	e17ffe17 	ldw	r5,-8(fp)
   24b60:	e13fff17 	ldw	r4,-4(fp)
   24b64:	00242880 	call	24288 <alt_msgdma_construct_standard_descriptor>
   24b68:	e037883a 	mov	sp,fp
   24b6c:	dfc00117 	ldw	ra,4(sp)
   24b70:	df000017 	ldw	fp,0(sp)
   24b74:	dec00204 	addi	sp,sp,8
   24b78:	f800283a 	ret

00024b7c <alt_msgdma_construct_standard_mm_to_mm_descriptor>:
   24b7c:	defff804 	addi	sp,sp,-32
   24b80:	dfc00715 	stw	ra,28(sp)
   24b84:	df000615 	stw	fp,24(sp)
   24b88:	df000604 	addi	fp,sp,24
   24b8c:	e13fff15 	stw	r4,-4(fp)
   24b90:	e17ffe15 	stw	r5,-8(fp)
   24b94:	e1bffd15 	stw	r6,-12(fp)
   24b98:	e1fffc15 	stw	r7,-16(fp)
   24b9c:	e0800317 	ldw	r2,12(fp)
   24ba0:	d8800115 	stw	r2,4(sp)
   24ba4:	e0800217 	ldw	r2,8(fp)
   24ba8:	d8800015 	stw	r2,0(sp)
   24bac:	e1fffc17 	ldw	r7,-16(fp)
   24bb0:	e1bffd17 	ldw	r6,-12(fp)
   24bb4:	e17ffe17 	ldw	r5,-8(fp)
   24bb8:	e13fff17 	ldw	r4,-4(fp)
   24bbc:	00242880 	call	24288 <alt_msgdma_construct_standard_descriptor>
   24bc0:	e037883a 	mov	sp,fp
   24bc4:	dfc00117 	ldw	ra,4(sp)
   24bc8:	df000017 	ldw	fp,0(sp)
   24bcc:	dec00204 	addi	sp,sp,8
   24bd0:	f800283a 	ret

00024bd4 <alt_msgdma_construct_extended_st_to_mm_descriptor>:
   24bd4:	defff004 	addi	sp,sp,-64
   24bd8:	dfc00f15 	stw	ra,60(sp)
   24bdc:	df000e15 	stw	fp,56(sp)
   24be0:	df000e04 	addi	fp,sp,56
   24be4:	e13fff15 	stw	r4,-4(fp)
   24be8:	e17ffe15 	stw	r5,-8(fp)
   24bec:	e1bffd15 	stw	r6,-12(fp)
   24bf0:	e1fffc15 	stw	r7,-16(fp)
   24bf4:	e1000317 	ldw	r4,12(fp)
   24bf8:	e0c00417 	ldw	r3,16(fp)
   24bfc:	e0800517 	ldw	r2,20(fp)
   24c00:	e13ffb0d 	sth	r4,-20(fp)
   24c04:	e0fffa05 	stb	r3,-24(fp)
   24c08:	e0bff90d 	sth	r2,-28(fp)
   24c0c:	e0bffb0b 	ldhu	r2,-20(fp)
   24c10:	e0fffa03 	ldbu	r3,-24(fp)
   24c14:	e13ff90b 	ldhu	r4,-28(fp)
   24c18:	d9000615 	stw	r4,24(sp)
   24c1c:	d8000515 	stw	zero,20(sp)
   24c20:	d8c00415 	stw	r3,16(sp)
   24c24:	d8000315 	stw	zero,12(sp)
   24c28:	d8800215 	stw	r2,8(sp)
   24c2c:	e0800217 	ldw	r2,8(fp)
   24c30:	d8800115 	stw	r2,4(sp)
   24c34:	e0bffc17 	ldw	r2,-16(fp)
   24c38:	d8800015 	stw	r2,0(sp)
   24c3c:	e1fffd17 	ldw	r7,-12(fp)
   24c40:	000d883a 	mov	r6,zero
   24c44:	e17ffe17 	ldw	r5,-8(fp)
   24c48:	e13fff17 	ldw	r4,-4(fp)
   24c4c:	00243140 	call	24314 <alt_msgdma_construct_extended_descriptor>
   24c50:	e037883a 	mov	sp,fp
   24c54:	dfc00117 	ldw	ra,4(sp)
   24c58:	df000017 	ldw	fp,0(sp)
   24c5c:	dec00204 	addi	sp,sp,8
   24c60:	f800283a 	ret

00024c64 <alt_msgdma_construct_extended_mm_to_st_descriptor>:
   24c64:	defff004 	addi	sp,sp,-64
   24c68:	dfc00f15 	stw	ra,60(sp)
   24c6c:	df000e15 	stw	fp,56(sp)
   24c70:	df000e04 	addi	fp,sp,56
   24c74:	e13fff15 	stw	r4,-4(fp)
   24c78:	e17ffe15 	stw	r5,-8(fp)
   24c7c:	e1bffd15 	stw	r6,-12(fp)
   24c80:	e1fffc15 	stw	r7,-16(fp)
   24c84:	e1000317 	ldw	r4,12(fp)
   24c88:	e0c00417 	ldw	r3,16(fp)
   24c8c:	e0800517 	ldw	r2,20(fp)
   24c90:	e13ffb0d 	sth	r4,-20(fp)
   24c94:	e0fffa05 	stb	r3,-24(fp)
   24c98:	e0bff90d 	sth	r2,-28(fp)
   24c9c:	e0bffb0b 	ldhu	r2,-20(fp)
   24ca0:	e0fffa03 	ldbu	r3,-24(fp)
   24ca4:	e13ff90b 	ldhu	r4,-28(fp)
   24ca8:	d8000615 	stw	zero,24(sp)
   24cac:	d9000515 	stw	r4,20(sp)
   24cb0:	d8000415 	stw	zero,16(sp)
   24cb4:	d8c00315 	stw	r3,12(sp)
   24cb8:	d8800215 	stw	r2,8(sp)
   24cbc:	e0800217 	ldw	r2,8(fp)
   24cc0:	d8800115 	stw	r2,4(sp)
   24cc4:	e0bffc17 	ldw	r2,-16(fp)
   24cc8:	d8800015 	stw	r2,0(sp)
   24ccc:	000f883a 	mov	r7,zero
   24cd0:	e1bffd17 	ldw	r6,-12(fp)
   24cd4:	e17ffe17 	ldw	r5,-8(fp)
   24cd8:	e13fff17 	ldw	r4,-4(fp)
   24cdc:	00243140 	call	24314 <alt_msgdma_construct_extended_descriptor>
   24ce0:	e037883a 	mov	sp,fp
   24ce4:	dfc00117 	ldw	ra,4(sp)
   24ce8:	df000017 	ldw	fp,0(sp)
   24cec:	dec00204 	addi	sp,sp,8
   24cf0:	f800283a 	ret

00024cf4 <alt_msgdma_construct_extended_mm_to_mm_descriptor>:
   24cf4:	deffee04 	addi	sp,sp,-72
   24cf8:	dfc01115 	stw	ra,68(sp)
   24cfc:	df001015 	stw	fp,64(sp)
   24d00:	df001004 	addi	fp,sp,64
   24d04:	e13fff15 	stw	r4,-4(fp)
   24d08:	e17ffe15 	stw	r5,-8(fp)
   24d0c:	e1bffd15 	stw	r6,-12(fp)
   24d10:	e1fffc15 	stw	r7,-16(fp)
   24d14:	e1800417 	ldw	r6,16(fp)
   24d18:	e1400517 	ldw	r5,20(fp)
   24d1c:	e1000617 	ldw	r4,24(fp)
   24d20:	e0c00717 	ldw	r3,28(fp)
   24d24:	e0800817 	ldw	r2,32(fp)
   24d28:	e1bffb0d 	sth	r6,-20(fp)
   24d2c:	e17ffa05 	stb	r5,-24(fp)
   24d30:	e13ff905 	stb	r4,-28(fp)
   24d34:	e0fff80d 	sth	r3,-32(fp)
   24d38:	e0bff70d 	sth	r2,-36(fp)
   24d3c:	e0bffb0b 	ldhu	r2,-20(fp)
   24d40:	e0fffa03 	ldbu	r3,-24(fp)
   24d44:	e13ff903 	ldbu	r4,-28(fp)
   24d48:	e17ff80b 	ldhu	r5,-32(fp)
   24d4c:	e1bff70b 	ldhu	r6,-36(fp)
   24d50:	d9800615 	stw	r6,24(sp)
   24d54:	d9400515 	stw	r5,20(sp)
   24d58:	d9000415 	stw	r4,16(sp)
   24d5c:	d8c00315 	stw	r3,12(sp)
   24d60:	d8800215 	stw	r2,8(sp)
   24d64:	e0800317 	ldw	r2,12(fp)
   24d68:	d8800115 	stw	r2,4(sp)
   24d6c:	e0800217 	ldw	r2,8(fp)
   24d70:	d8800015 	stw	r2,0(sp)
   24d74:	e1fffc17 	ldw	r7,-16(fp)
   24d78:	e1bffd17 	ldw	r6,-12(fp)
   24d7c:	e17ffe17 	ldw	r5,-8(fp)
   24d80:	e13fff17 	ldw	r4,-4(fp)
   24d84:	00243140 	call	24314 <alt_msgdma_construct_extended_descriptor>
   24d88:	e037883a 	mov	sp,fp
   24d8c:	dfc00117 	ldw	ra,4(sp)
   24d90:	df000017 	ldw	fp,0(sp)
   24d94:	dec00204 	addi	sp,sp,8
   24d98:	f800283a 	ret

00024d9c <alt_msgdma_construct_prefetcher_standard_descriptor>:
   24d9c:	defffb04 	addi	sp,sp,-20
   24da0:	df000415 	stw	fp,16(sp)
   24da4:	df000404 	addi	fp,sp,16
   24da8:	e13fff15 	stw	r4,-4(fp)
   24dac:	e17ffe15 	stw	r5,-8(fp)
   24db0:	e1bffd15 	stw	r6,-12(fp)
   24db4:	e1fffc15 	stw	r7,-16(fp)
   24db8:	e0bfff17 	ldw	r2,-4(fp)
   24dbc:	10c01217 	ldw	r3,72(r2)
   24dc0:	e0800117 	ldw	r2,4(fp)
   24dc4:	18800436 	bltu	r3,r2,24dd8 <alt_msgdma_construct_prefetcher_standard_descriptor+0x3c>
   24dc8:	e0bfff17 	ldw	r2,-4(fp)
   24dcc:	10801703 	ldbu	r2,92(r2)
   24dd0:	10803fcc 	andi	r2,r2,255
   24dd4:	10000226 	beq	r2,zero,24de0 <alt_msgdma_construct_prefetcher_standard_descriptor+0x44>
   24dd8:	00bffa84 	movi	r2,-22
   24ddc:	00001406 	br	24e30 <alt_msgdma_construct_prefetcher_standard_descriptor+0x94>
   24de0:	e0bffe17 	ldw	r2,-8(fp)
   24de4:	e0fffd17 	ldw	r3,-12(fp)
   24de8:	10c00015 	stw	r3,0(r2)
   24dec:	e0bffe17 	ldw	r2,-8(fp)
   24df0:	e0fffc17 	ldw	r3,-16(fp)
   24df4:	10c00115 	stw	r3,4(r2)
   24df8:	e0bffe17 	ldw	r2,-8(fp)
   24dfc:	e0c00117 	ldw	r3,4(fp)
   24e00:	10c00215 	stw	r3,8(r2)
   24e04:	e0fffe17 	ldw	r3,-8(fp)
   24e08:	e0bffe17 	ldw	r2,-8(fp)
   24e0c:	10c00315 	stw	r3,12(r2)
   24e10:	e0c00217 	ldw	r3,8(fp)
   24e14:	00900034 	movhi	r2,16384
   24e18:	10bfffc4 	addi	r2,r2,-1
   24e1c:	1884703a 	and	r2,r3,r2
   24e20:	10e00034 	orhi	r3,r2,32768
   24e24:	e0bffe17 	ldw	r2,-8(fp)
   24e28:	10c00715 	stw	r3,28(r2)
   24e2c:	0005883a 	mov	r2,zero
   24e30:	e037883a 	mov	sp,fp
   24e34:	df000017 	ldw	fp,0(sp)
   24e38:	dec00104 	addi	sp,sp,4
   24e3c:	f800283a 	ret

00024e40 <alt_msgdma_construct_prefetcher_extended_descriptor>:
   24e40:	defff404 	addi	sp,sp,-48
   24e44:	df000b15 	stw	fp,44(sp)
   24e48:	df000b04 	addi	fp,sp,44
   24e4c:	e13ffd15 	stw	r4,-12(fp)
   24e50:	e17ffc15 	stw	r5,-16(fp)
   24e54:	e1bffb15 	stw	r6,-20(fp)
   24e58:	e1fffa15 	stw	r7,-24(fp)
   24e5c:	e1800517 	ldw	r6,20(fp)
   24e60:	e1400617 	ldw	r5,24(fp)
   24e64:	e1000717 	ldw	r4,28(fp)
   24e68:	e0c00817 	ldw	r3,32(fp)
   24e6c:	e0800917 	ldw	r2,36(fp)
   24e70:	e1bff90d 	sth	r6,-28(fp)
   24e74:	e17ff805 	stb	r5,-32(fp)
   24e78:	e13ff705 	stb	r4,-36(fp)
   24e7c:	e0fff60d 	sth	r3,-40(fp)
   24e80:	e0bff50d 	sth	r2,-44(fp)
   24e84:	e0bffd17 	ldw	r2,-12(fp)
   24e88:	10c01217 	ldw	r3,72(r2)
   24e8c:	e0800317 	ldw	r2,12(fp)
   24e90:	18801936 	bltu	r3,r2,24ef8 <alt_msgdma_construct_prefetcher_extended_descriptor+0xb8>
   24e94:	e13ffd17 	ldw	r4,-12(fp)
   24e98:	20801317 	ldw	r2,76(r4)
   24e9c:	20c01417 	ldw	r3,80(r4)
   24ea0:	e13ff60b 	ldhu	r4,-40(fp)
   24ea4:	213fffcc 	andi	r4,r4,65535
   24ea8:	2015883a 	mov	r10,r4
   24eac:	0017883a 	mov	r11,zero
   24eb0:	1ac01136 	bltu	r3,r11,24ef8 <alt_msgdma_construct_prefetcher_extended_descriptor+0xb8>
   24eb4:	58c0011e 	bne	r11,r3,24ebc <alt_msgdma_construct_prefetcher_extended_descriptor+0x7c>
   24eb8:	12800f36 	bltu	r2,r10,24ef8 <alt_msgdma_construct_prefetcher_extended_descriptor+0xb8>
   24ebc:	e13ffd17 	ldw	r4,-12(fp)
   24ec0:	20801317 	ldw	r2,76(r4)
   24ec4:	20c01417 	ldw	r3,80(r4)
   24ec8:	e13ff50b 	ldhu	r4,-44(fp)
   24ecc:	213fffcc 	andi	r4,r4,65535
   24ed0:	2011883a 	mov	r8,r4
   24ed4:	0013883a 	mov	r9,zero
   24ed8:	1a400736 	bltu	r3,r9,24ef8 <alt_msgdma_construct_prefetcher_extended_descriptor+0xb8>
   24edc:	48c0011e 	bne	r9,r3,24ee4 <alt_msgdma_construct_prefetcher_extended_descriptor+0xa4>
   24ee0:	12000536 	bltu	r2,r8,24ef8 <alt_msgdma_construct_prefetcher_extended_descriptor+0xb8>
   24ee4:	e0bffd17 	ldw	r2,-12(fp)
   24ee8:	10801703 	ldbu	r2,92(r2)
   24eec:	10803fcc 	andi	r2,r2,255
   24ef0:	10800060 	cmpeqi	r2,r2,1
   24ef4:	1000021e 	bne	r2,zero,24f00 <alt_msgdma_construct_prefetcher_extended_descriptor+0xc0>
   24ef8:	00bffa84 	movi	r2,-22
   24efc:	00003106 	br	24fc4 <alt_msgdma_construct_prefetcher_extended_descriptor+0x184>
   24f00:	e0bffc17 	ldw	r2,-16(fp)
   24f04:	e0fffb17 	ldw	r3,-20(fp)
   24f08:	10c00915 	stw	r3,36(r2)
   24f0c:	e0bffc17 	ldw	r2,-16(fp)
   24f10:	e0fffa17 	ldw	r3,-24(fp)
   24f14:	10c00015 	stw	r3,0(r2)
   24f18:	e0bffc17 	ldw	r2,-16(fp)
   24f1c:	e0c00117 	ldw	r3,4(fp)
   24f20:	10c00a15 	stw	r3,40(r2)
   24f24:	e0bffc17 	ldw	r2,-16(fp)
   24f28:	e0c00217 	ldw	r3,8(fp)
   24f2c:	10c00115 	stw	r3,4(r2)
   24f30:	e0bffc17 	ldw	r2,-16(fp)
   24f34:	e0c00317 	ldw	r3,12(fp)
   24f38:	10c00215 	stw	r3,8(r2)
   24f3c:	e0bffc17 	ldw	r2,-16(fp)
   24f40:	e0fff90b 	ldhu	r3,-28(fp)
   24f44:	10c0070d 	sth	r3,28(r2)
   24f48:	e0bffc17 	ldw	r2,-16(fp)
   24f4c:	e0fff803 	ldbu	r3,-32(fp)
   24f50:	10c00785 	stb	r3,30(r2)
   24f54:	e0bffc17 	ldw	r2,-16(fp)
   24f58:	e0fff703 	ldbu	r3,-36(fp)
   24f5c:	10c007c5 	stb	r3,31(r2)
   24f60:	e0bffc17 	ldw	r2,-16(fp)
   24f64:	e0fff60b 	ldhu	r3,-40(fp)
   24f68:	10c0080d 	sth	r3,32(r2)
   24f6c:	e0bffc17 	ldw	r2,-16(fp)
   24f70:	e0fff50b 	ldhu	r3,-44(fp)
   24f74:	10c0088d 	sth	r3,34(r2)
   24f78:	e0bffc17 	ldw	r2,-16(fp)
   24f7c:	1019883a 	mov	r12,r2
   24f80:	001b883a 	mov	r13,zero
   24f84:	e33ffe15 	stw	r12,-8(fp)
   24f88:	e37fff15 	stw	r13,-4(fp)
   24f8c:	e0fffe17 	ldw	r3,-8(fp)
   24f90:	e0bffc17 	ldw	r2,-16(fp)
   24f94:	10c00315 	stw	r3,12(r2)
   24f98:	e0ffff17 	ldw	r3,-4(fp)
   24f9c:	e0bffc17 	ldw	r2,-16(fp)
   24fa0:	10c00b15 	stw	r3,44(r2)
   24fa4:	e0c00417 	ldw	r3,16(fp)
   24fa8:	00900034 	movhi	r2,16384
   24fac:	10bfffc4 	addi	r2,r2,-1
   24fb0:	1884703a 	and	r2,r3,r2
   24fb4:	10e00034 	orhi	r3,r2,32768
   24fb8:	e0bffc17 	ldw	r2,-16(fp)
   24fbc:	10c00f15 	stw	r3,60(r2)
   24fc0:	0005883a 	mov	r2,zero
   24fc4:	e037883a 	mov	sp,fp
   24fc8:	df000017 	ldw	fp,0(sp)
   24fcc:	dec00104 	addi	sp,sp,4
   24fd0:	f800283a 	ret

00024fd4 <alt_msgdma_construct_prefetcher_standard_mm_to_mm_descriptor>:
   24fd4:	defff804 	addi	sp,sp,-32
   24fd8:	dfc00715 	stw	ra,28(sp)
   24fdc:	df000615 	stw	fp,24(sp)
   24fe0:	df000604 	addi	fp,sp,24
   24fe4:	e13fff15 	stw	r4,-4(fp)
   24fe8:	e17ffe15 	stw	r5,-8(fp)
   24fec:	e1bffd15 	stw	r6,-12(fp)
   24ff0:	e1fffc15 	stw	r7,-16(fp)
   24ff4:	e0800317 	ldw	r2,12(fp)
   24ff8:	d8800115 	stw	r2,4(sp)
   24ffc:	e0800217 	ldw	r2,8(fp)
   25000:	d8800015 	stw	r2,0(sp)
   25004:	e1fffc17 	ldw	r7,-16(fp)
   25008:	e1bffd17 	ldw	r6,-12(fp)
   2500c:	e17ffe17 	ldw	r5,-8(fp)
   25010:	e13fff17 	ldw	r4,-4(fp)
   25014:	0024d9c0 	call	24d9c <alt_msgdma_construct_prefetcher_standard_descriptor>
   25018:	e037883a 	mov	sp,fp
   2501c:	dfc00117 	ldw	ra,4(sp)
   25020:	df000017 	ldw	fp,0(sp)
   25024:	dec00204 	addi	sp,sp,8
   25028:	f800283a 	ret

0002502c <alt_msgdma_construct_prefetcher_standard_st_to_mm_descriptor>:
   2502c:	defff804 	addi	sp,sp,-32
   25030:	dfc00715 	stw	ra,28(sp)
   25034:	df000615 	stw	fp,24(sp)
   25038:	df000604 	addi	fp,sp,24
   2503c:	e13fff15 	stw	r4,-4(fp)
   25040:	e17ffe15 	stw	r5,-8(fp)
   25044:	e1bffd15 	stw	r6,-12(fp)
   25048:	e1fffc15 	stw	r7,-16(fp)
   2504c:	e0800217 	ldw	r2,8(fp)
   25050:	d8800115 	stw	r2,4(sp)
   25054:	e0bffc17 	ldw	r2,-16(fp)
   25058:	d8800015 	stw	r2,0(sp)
   2505c:	e1fffd17 	ldw	r7,-12(fp)
   25060:	000d883a 	mov	r6,zero
   25064:	e17ffe17 	ldw	r5,-8(fp)
   25068:	e13fff17 	ldw	r4,-4(fp)
   2506c:	0024d9c0 	call	24d9c <alt_msgdma_construct_prefetcher_standard_descriptor>
   25070:	e037883a 	mov	sp,fp
   25074:	dfc00117 	ldw	ra,4(sp)
   25078:	df000017 	ldw	fp,0(sp)
   2507c:	dec00204 	addi	sp,sp,8
   25080:	f800283a 	ret

00025084 <alt_msgdma_construct_prefetcher_standard_mm_to_st_descriptor>:
   25084:	defff804 	addi	sp,sp,-32
   25088:	dfc00715 	stw	ra,28(sp)
   2508c:	df000615 	stw	fp,24(sp)
   25090:	df000604 	addi	fp,sp,24
   25094:	e13fff15 	stw	r4,-4(fp)
   25098:	e17ffe15 	stw	r5,-8(fp)
   2509c:	e1bffd15 	stw	r6,-12(fp)
   250a0:	e1fffc15 	stw	r7,-16(fp)
   250a4:	e0800217 	ldw	r2,8(fp)
   250a8:	d8800115 	stw	r2,4(sp)
   250ac:	e0bffc17 	ldw	r2,-16(fp)
   250b0:	d8800015 	stw	r2,0(sp)
   250b4:	000f883a 	mov	r7,zero
   250b8:	e1bffd17 	ldw	r6,-12(fp)
   250bc:	e17ffe17 	ldw	r5,-8(fp)
   250c0:	e13fff17 	ldw	r4,-4(fp)
   250c4:	0024d9c0 	call	24d9c <alt_msgdma_construct_prefetcher_standard_descriptor>
   250c8:	e037883a 	mov	sp,fp
   250cc:	dfc00117 	ldw	ra,4(sp)
   250d0:	df000017 	ldw	fp,0(sp)
   250d4:	dec00204 	addi	sp,sp,8
   250d8:	f800283a 	ret

000250dc <alt_msgdma_construct_prefetcher_extended_st_to_mm_descriptor>:
   250dc:	deffee04 	addi	sp,sp,-72
   250e0:	dfc01115 	stw	ra,68(sp)
   250e4:	df001015 	stw	fp,64(sp)
   250e8:	df001004 	addi	fp,sp,64
   250ec:	e13fff15 	stw	r4,-4(fp)
   250f0:	e17ffe15 	stw	r5,-8(fp)
   250f4:	e1bffd15 	stw	r6,-12(fp)
   250f8:	e1fffc15 	stw	r7,-16(fp)
   250fc:	e1000417 	ldw	r4,16(fp)
   25100:	e0c00517 	ldw	r3,20(fp)
   25104:	e0800617 	ldw	r2,24(fp)
   25108:	e13ffb0d 	sth	r4,-20(fp)
   2510c:	e0fffa05 	stb	r3,-24(fp)
   25110:	e0bff90d 	sth	r2,-28(fp)
   25114:	e0bffb0b 	ldhu	r2,-20(fp)
   25118:	e0fffa03 	ldbu	r3,-24(fp)
   2511c:	e13ff90b 	ldhu	r4,-28(fp)
   25120:	d9000815 	stw	r4,32(sp)
   25124:	d8000715 	stw	zero,28(sp)
   25128:	d8c00615 	stw	r3,24(sp)
   2512c:	d8000515 	stw	zero,20(sp)
   25130:	d8800415 	stw	r2,16(sp)
   25134:	e0800317 	ldw	r2,12(fp)
   25138:	d8800315 	stw	r2,12(sp)
   2513c:	e0800217 	ldw	r2,8(fp)
   25140:	d8800215 	stw	r2,8(sp)
   25144:	e0bffc17 	ldw	r2,-16(fp)
   25148:	d8800115 	stw	r2,4(sp)
   2514c:	e0bffd17 	ldw	r2,-12(fp)
   25150:	d8800015 	stw	r2,0(sp)
   25154:	000f883a 	mov	r7,zero
   25158:	000d883a 	mov	r6,zero
   2515c:	e17ffe17 	ldw	r5,-8(fp)
   25160:	e13fff17 	ldw	r4,-4(fp)
   25164:	0024e400 	call	24e40 <alt_msgdma_construct_prefetcher_extended_descriptor>
   25168:	e037883a 	mov	sp,fp
   2516c:	dfc00117 	ldw	ra,4(sp)
   25170:	df000017 	ldw	fp,0(sp)
   25174:	dec00204 	addi	sp,sp,8
   25178:	f800283a 	ret

0002517c <alt_msgdma_construct_prefetcher_extended_mm_to_st_descriptor>:
   2517c:	deffee04 	addi	sp,sp,-72
   25180:	dfc01115 	stw	ra,68(sp)
   25184:	df001015 	stw	fp,64(sp)
   25188:	df001004 	addi	fp,sp,64
   2518c:	e13fff15 	stw	r4,-4(fp)
   25190:	e17ffe15 	stw	r5,-8(fp)
   25194:	e1bffd15 	stw	r6,-12(fp)
   25198:	e1fffc15 	stw	r7,-16(fp)
   2519c:	e1000417 	ldw	r4,16(fp)
   251a0:	e0c00517 	ldw	r3,20(fp)
   251a4:	e0800617 	ldw	r2,24(fp)
   251a8:	e13ffb0d 	sth	r4,-20(fp)
   251ac:	e0fffa05 	stb	r3,-24(fp)
   251b0:	e0bff90d 	sth	r2,-28(fp)
   251b4:	e0bffb0b 	ldhu	r2,-20(fp)
   251b8:	e0fffa03 	ldbu	r3,-24(fp)
   251bc:	e13ff90b 	ldhu	r4,-28(fp)
   251c0:	d8000815 	stw	zero,32(sp)
   251c4:	d9000715 	stw	r4,28(sp)
   251c8:	d8000615 	stw	zero,24(sp)
   251cc:	d8c00515 	stw	r3,20(sp)
   251d0:	d8800415 	stw	r2,16(sp)
   251d4:	e0800317 	ldw	r2,12(fp)
   251d8:	d8800315 	stw	r2,12(sp)
   251dc:	e0800217 	ldw	r2,8(fp)
   251e0:	d8800215 	stw	r2,8(sp)
   251e4:	d8000115 	stw	zero,4(sp)
   251e8:	d8000015 	stw	zero,0(sp)
   251ec:	e1fffc17 	ldw	r7,-16(fp)
   251f0:	e1bffd17 	ldw	r6,-12(fp)
   251f4:	e17ffe17 	ldw	r5,-8(fp)
   251f8:	e13fff17 	ldw	r4,-4(fp)
   251fc:	0024e400 	call	24e40 <alt_msgdma_construct_prefetcher_extended_descriptor>
   25200:	e037883a 	mov	sp,fp
   25204:	dfc00117 	ldw	ra,4(sp)
   25208:	df000017 	ldw	fp,0(sp)
   2520c:	dec00204 	addi	sp,sp,8
   25210:	f800283a 	ret

00025214 <alt_msgdma_construct_prefetcher_extended_mm_to_mm_descriptor>:
   25214:	deffec04 	addi	sp,sp,-80
   25218:	dfc01315 	stw	ra,76(sp)
   2521c:	df001215 	stw	fp,72(sp)
   25220:	df001204 	addi	fp,sp,72
   25224:	e13fff15 	stw	r4,-4(fp)
   25228:	e17ffe15 	stw	r5,-8(fp)
   2522c:	e1bffd15 	stw	r6,-12(fp)
   25230:	e1fffc15 	stw	r7,-16(fp)
   25234:	e1800617 	ldw	r6,24(fp)
   25238:	e1400717 	ldw	r5,28(fp)
   2523c:	e1000817 	ldw	r4,32(fp)
   25240:	e0c00917 	ldw	r3,36(fp)
   25244:	e0800a17 	ldw	r2,40(fp)
   25248:	e1bffb0d 	sth	r6,-20(fp)
   2524c:	e17ffa05 	stb	r5,-24(fp)
   25250:	e13ff905 	stb	r4,-28(fp)
   25254:	e0fff80d 	sth	r3,-32(fp)
   25258:	e0bff70d 	sth	r2,-36(fp)
   2525c:	e0bffb0b 	ldhu	r2,-20(fp)
   25260:	e0fffa03 	ldbu	r3,-24(fp)
   25264:	e13ff903 	ldbu	r4,-28(fp)
   25268:	e17ff80b 	ldhu	r5,-32(fp)
   2526c:	e1bff70b 	ldhu	r6,-36(fp)
   25270:	d9800815 	stw	r6,32(sp)
   25274:	d9400715 	stw	r5,28(sp)
   25278:	d9000615 	stw	r4,24(sp)
   2527c:	d8c00515 	stw	r3,20(sp)
   25280:	d8800415 	stw	r2,16(sp)
   25284:	e0800517 	ldw	r2,20(fp)
   25288:	d8800315 	stw	r2,12(sp)
   2528c:	e0800417 	ldw	r2,16(fp)
   25290:	d8800215 	stw	r2,8(sp)
   25294:	e0800317 	ldw	r2,12(fp)
   25298:	d8800115 	stw	r2,4(sp)
   2529c:	e0800217 	ldw	r2,8(fp)
   252a0:	d8800015 	stw	r2,0(sp)
   252a4:	e1fffc17 	ldw	r7,-16(fp)
   252a8:	e1bffd17 	ldw	r6,-12(fp)
   252ac:	e17ffe17 	ldw	r5,-8(fp)
   252b0:	e13fff17 	ldw	r4,-4(fp)
   252b4:	0024e400 	call	24e40 <alt_msgdma_construct_prefetcher_extended_descriptor>
   252b8:	e037883a 	mov	sp,fp
   252bc:	dfc00117 	ldw	ra,4(sp)
   252c0:	df000017 	ldw	fp,0(sp)
   252c4:	dec00204 	addi	sp,sp,8
   252c8:	f800283a 	ret

000252cc <alt_msgdma_prefetcher_add_standard_desc_to_list>:
   252cc:	defffc04 	addi	sp,sp,-16
   252d0:	df000315 	stw	fp,12(sp)
   252d4:	df000304 	addi	fp,sp,12
   252d8:	e13ffe15 	stw	r4,-8(fp)
   252dc:	e17ffd15 	stw	r5,-12(fp)
   252e0:	e0bffd17 	ldw	r2,-12(fp)
   252e4:	1000021e 	bne	r2,zero,252f0 <alt_msgdma_prefetcher_add_standard_desc_to_list+0x24>
   252e8:	00bffa84 	movi	r2,-22
   252ec:	00002f06 	br	253ac <alt_msgdma_prefetcher_add_standard_desc_to_list+0xe0>
   252f0:	e0bffd17 	ldw	r2,-12(fp)
   252f4:	10c00317 	ldw	r3,12(r2)
   252f8:	e0bffd17 	ldw	r2,-12(fp)
   252fc:	18800226 	beq	r3,r2,25308 <alt_msgdma_prefetcher_add_standard_desc_to_list+0x3c>
   25300:	00bffa84 	movi	r2,-22
   25304:	00002906 	br	253ac <alt_msgdma_prefetcher_add_standard_desc_to_list+0xe0>
   25308:	e0bffe17 	ldw	r2,-8(fp)
   2530c:	10800017 	ldw	r2,0(r2)
   25310:	1000051e 	bne	r2,zero,25328 <alt_msgdma_prefetcher_add_standard_desc_to_list+0x5c>
   25314:	e0bffe17 	ldw	r2,-8(fp)
   25318:	e0fffd17 	ldw	r3,-12(fp)
   2531c:	10c00015 	stw	r3,0(r2)
   25320:	0005883a 	mov	r2,zero
   25324:	00002106 	br	253ac <alt_msgdma_prefetcher_add_standard_desc_to_list+0xe0>
   25328:	e0bffe17 	ldw	r2,-8(fp)
   2532c:	10800017 	ldw	r2,0(r2)
   25330:	e0fffd17 	ldw	r3,-12(fp)
   25334:	1880021e 	bne	r3,r2,25340 <alt_msgdma_prefetcher_add_standard_desc_to_list+0x74>
   25338:	00bffa84 	movi	r2,-22
   2533c:	00001b06 	br	253ac <alt_msgdma_prefetcher_add_standard_desc_to_list+0xe0>
   25340:	e0bffe17 	ldw	r2,-8(fp)
   25344:	10800017 	ldw	r2,0(r2)
   25348:	e0bfff15 	stw	r2,-4(fp)
   2534c:	00000906 	br	25374 <alt_msgdma_prefetcher_add_standard_desc_to_list+0xa8>
   25350:	e0bfff17 	ldw	r2,-4(fp)
   25354:	10c00317 	ldw	r3,12(r2)
   25358:	e0bffd17 	ldw	r2,-12(fp)
   2535c:	1880021e 	bne	r3,r2,25368 <alt_msgdma_prefetcher_add_standard_desc_to_list+0x9c>
   25360:	00bffa84 	movi	r2,-22
   25364:	00001106 	br	253ac <alt_msgdma_prefetcher_add_standard_desc_to_list+0xe0>
   25368:	e0bfff17 	ldw	r2,-4(fp)
   2536c:	10800317 	ldw	r2,12(r2)
   25370:	e0bfff15 	stw	r2,-4(fp)
   25374:	e0bfff17 	ldw	r2,-4(fp)
   25378:	10800317 	ldw	r2,12(r2)
   2537c:	e0fffe17 	ldw	r3,-8(fp)
   25380:	18c00017 	ldw	r3,0(r3)
   25384:	10fff21e 	bne	r2,r3,25350 <alt_msgdma_prefetcher_add_standard_desc_to_list+0x84>
   25388:	e0fffd17 	ldw	r3,-12(fp)
   2538c:	e0bfff17 	ldw	r2,-4(fp)
   25390:	10c00315 	stw	r3,12(r2)
   25394:	e0bffe17 	ldw	r2,-8(fp)
   25398:	10800017 	ldw	r2,0(r2)
   2539c:	1007883a 	mov	r3,r2
   253a0:	e0bffd17 	ldw	r2,-12(fp)
   253a4:	10c00315 	stw	r3,12(r2)
   253a8:	0005883a 	mov	r2,zero
   253ac:	e037883a 	mov	sp,fp
   253b0:	df000017 	ldw	fp,0(sp)
   253b4:	dec00104 	addi	sp,sp,4
   253b8:	f800283a 	ret

000253bc <alt_msgdma_prefetcher_add_extended_desc_to_list>:
   253bc:	defff804 	addi	sp,sp,-32
   253c0:	df000715 	stw	fp,28(sp)
   253c4:	df000704 	addi	fp,sp,28
   253c8:	e13ffa15 	stw	r4,-24(fp)
   253cc:	e17ff915 	stw	r5,-28(fp)
   253d0:	e13ff917 	ldw	r4,-28(fp)
   253d4:	2000021e 	bne	r4,zero,253e0 <alt_msgdma_prefetcher_add_extended_desc_to_list+0x24>
   253d8:	00bffa84 	movi	r2,-22
   253dc:	00005906 	br	25544 <alt_msgdma_prefetcher_add_extended_desc_to_list+0x188>
   253e0:	e13ff917 	ldw	r4,-28(fp)
   253e4:	2015883a 	mov	r10,r4
   253e8:	0017883a 	mov	r11,zero
   253ec:	e2bffb15 	stw	r10,-20(fp)
   253f0:	e2fffc15 	stw	r11,-16(fp)
   253f4:	e13ff917 	ldw	r4,-28(fp)
   253f8:	21400317 	ldw	r5,12(r4)
   253fc:	e13ffb17 	ldw	r4,-20(fp)
   25400:	2900041e 	bne	r5,r4,25414 <alt_msgdma_prefetcher_add_extended_desc_to_list+0x58>
   25404:	e13ff917 	ldw	r4,-28(fp)
   25408:	21400b17 	ldw	r5,44(r4)
   2540c:	e13ffc17 	ldw	r4,-16(fp)
   25410:	29000226 	beq	r5,r4,2541c <alt_msgdma_prefetcher_add_extended_desc_to_list+0x60>
   25414:	00bffa84 	movi	r2,-22
   25418:	00004a06 	br	25544 <alt_msgdma_prefetcher_add_extended_desc_to_list+0x188>
   2541c:	e13ffa17 	ldw	r4,-24(fp)
   25420:	21000017 	ldw	r4,0(r4)
   25424:	2000051e 	bne	r4,zero,2543c <alt_msgdma_prefetcher_add_extended_desc_to_list+0x80>
   25428:	e0bffa17 	ldw	r2,-24(fp)
   2542c:	e0fff917 	ldw	r3,-28(fp)
   25430:	10c00015 	stw	r3,0(r2)
   25434:	0005883a 	mov	r2,zero
   25438:	00004206 	br	25544 <alt_msgdma_prefetcher_add_extended_desc_to_list+0x188>
   2543c:	e13ffa17 	ldw	r4,-24(fp)
   25440:	21000017 	ldw	r4,0(r4)
   25444:	e17ff917 	ldw	r5,-28(fp)
   25448:	2900021e 	bne	r5,r4,25454 <alt_msgdma_prefetcher_add_extended_desc_to_list+0x98>
   2544c:	00bffa84 	movi	r2,-22
   25450:	00003c06 	br	25544 <alt_msgdma_prefetcher_add_extended_desc_to_list+0x188>
   25454:	e13ffa17 	ldw	r4,-24(fp)
   25458:	21000017 	ldw	r4,0(r4)
   2545c:	e13fff15 	stw	r4,-4(fp)
   25460:	e13ffa17 	ldw	r4,-24(fp)
   25464:	21000017 	ldw	r4,0(r4)
   25468:	2011883a 	mov	r8,r4
   2546c:	0013883a 	mov	r9,zero
   25470:	e23ffd15 	stw	r8,-12(fp)
   25474:	e27ffe15 	stw	r9,-8(fp)
   25478:	00001806 	br	254dc <alt_msgdma_prefetcher_add_extended_desc_to_list+0x120>
   2547c:	e13ff917 	ldw	r4,-28(fp)
   25480:	200d883a 	mov	r6,r4
   25484:	000f883a 	mov	r7,zero
   25488:	e1bffb15 	stw	r6,-20(fp)
   2548c:	e1fffc15 	stw	r7,-16(fp)
   25490:	e13fff17 	ldw	r4,-4(fp)
   25494:	21400317 	ldw	r5,12(r4)
   25498:	e13ffb17 	ldw	r4,-20(fp)
   2549c:	2900061e 	bne	r5,r4,254b8 <alt_msgdma_prefetcher_add_extended_desc_to_list+0xfc>
   254a0:	e13fff17 	ldw	r4,-4(fp)
   254a4:	21400b17 	ldw	r5,44(r4)
   254a8:	e13ffc17 	ldw	r4,-16(fp)
   254ac:	2900021e 	bne	r5,r4,254b8 <alt_msgdma_prefetcher_add_extended_desc_to_list+0xfc>
   254b0:	00bffa84 	movi	r2,-22
   254b4:	00002306 	br	25544 <alt_msgdma_prefetcher_add_extended_desc_to_list+0x188>
   254b8:	e13fff17 	ldw	r4,-4(fp)
   254bc:	21000317 	ldw	r4,12(r4)
   254c0:	e13ffb15 	stw	r4,-20(fp)
   254c4:	e13fff17 	ldw	r4,-4(fp)
   254c8:	21000b17 	ldw	r4,44(r4)
   254cc:	e13ffc15 	stw	r4,-16(fp)
   254d0:	e13ffb17 	ldw	r4,-20(fp)
   254d4:	e17ffc17 	ldw	r5,-16(fp)
   254d8:	e13fff15 	stw	r4,-4(fp)
   254dc:	e13fff17 	ldw	r4,-4(fp)
   254e0:	21400317 	ldw	r5,12(r4)
   254e4:	e13ffd17 	ldw	r4,-12(fp)
   254e8:	293fe41e 	bne	r5,r4,2547c <alt_msgdma_prefetcher_add_extended_desc_to_list+0xc0>
   254ec:	e13fff17 	ldw	r4,-4(fp)
   254f0:	21400b17 	ldw	r5,44(r4)
   254f4:	e13ffe17 	ldw	r4,-8(fp)
   254f8:	293fe01e 	bne	r5,r4,2547c <alt_msgdma_prefetcher_add_extended_desc_to_list+0xc0>
   254fc:	e13ff917 	ldw	r4,-28(fp)
   25500:	2005883a 	mov	r2,r4
   25504:	0007883a 	mov	r3,zero
   25508:	e0bffb15 	stw	r2,-20(fp)
   2550c:	e0fffc15 	stw	r3,-16(fp)
   25510:	e0fffb17 	ldw	r3,-20(fp)
   25514:	e0bfff17 	ldw	r2,-4(fp)
   25518:	10c00315 	stw	r3,12(r2)
   2551c:	e0fffc17 	ldw	r3,-16(fp)
   25520:	e0bfff17 	ldw	r2,-4(fp)
   25524:	10c00b15 	stw	r3,44(r2)
   25528:	e0fffd17 	ldw	r3,-12(fp)
   2552c:	e0bff917 	ldw	r2,-28(fp)
   25530:	10c00315 	stw	r3,12(r2)
   25534:	e0fffe17 	ldw	r3,-8(fp)
   25538:	e0bff917 	ldw	r2,-28(fp)
   2553c:	10c00b15 	stw	r3,44(r2)
   25540:	0005883a 	mov	r2,zero
   25544:	e037883a 	mov	sp,fp
   25548:	df000017 	ldw	fp,0(sp)
   2554c:	dec00104 	addi	sp,sp,4
   25550:	f800283a 	ret

00025554 <alt_msgdma_prefetcher_set_std_list_own_by_hw_bits>:
   25554:	defff804 	addi	sp,sp,-32
   25558:	dfc00715 	stw	ra,28(sp)
   2555c:	df000615 	stw	fp,24(sp)
   25560:	df000604 	addi	fp,sp,24
   25564:	e13ffc15 	stw	r4,-16(fp)
   25568:	2805883a 	mov	r2,r5
   2556c:	3007883a 	mov	r3,r6
   25570:	e0bffb05 	stb	r2,-20(fp)
   25574:	1805883a 	mov	r2,r3
   25578:	e0bffa05 	stb	r2,-24(fp)
   2557c:	e03ffd15 	stw	zero,-12(fp)
   25580:	e03ffe15 	stw	zero,-8(fp)
   25584:	e0bffc17 	ldw	r2,-16(fp)
   25588:	1000021e 	bne	r2,zero,25594 <alt_msgdma_prefetcher_set_std_list_own_by_hw_bits+0x40>
   2558c:	00bffa84 	movi	r2,-22
   25590:	00002f06 	br	25650 <alt_msgdma_prefetcher_set_std_list_own_by_hw_bits+0xfc>
   25594:	e0bffc17 	ldw	r2,-16(fp)
   25598:	e0bfff15 	stw	r2,-4(fp)
   2559c:	00000d06 	br	255d4 <alt_msgdma_prefetcher_set_std_list_own_by_hw_bits+0x80>
   255a0:	e0bfff17 	ldw	r2,-4(fp)
   255a4:	10800717 	ldw	r2,28(r2)
   255a8:	e0bffd15 	stw	r2,-12(fp)
   255ac:	e0bffd17 	ldw	r2,-12(fp)
   255b0:	10d00034 	orhi	r3,r2,16384
   255b4:	e0bfff17 	ldw	r2,-4(fp)
   255b8:	10c00715 	stw	r3,28(r2)
   255bc:	e0bfff17 	ldw	r2,-4(fp)
   255c0:	10800317 	ldw	r2,12(r2)
   255c4:	e0bfff15 	stw	r2,-4(fp)
   255c8:	e0bffe17 	ldw	r2,-8(fp)
   255cc:	10800044 	addi	r2,r2,1
   255d0:	e0bffe15 	stw	r2,-8(fp)
   255d4:	e0bfff17 	ldw	r2,-4(fp)
   255d8:	10c00317 	ldw	r3,12(r2)
   255dc:	e0bffc17 	ldw	r2,-16(fp)
   255e0:	18bfef1e 	bne	r3,r2,255a0 <alt_msgdma_prefetcher_set_std_list_own_by_hw_bits+0x4c>
   255e4:	e0bfff17 	ldw	r2,-4(fp)
   255e8:	10800717 	ldw	r2,28(r2)
   255ec:	e0bffd15 	stw	r2,-12(fp)
   255f0:	e0bffb03 	ldbu	r2,-20(fp)
   255f4:	10000726 	beq	r2,zero,25614 <alt_msgdma_prefetcher_set_std_list_own_by_hw_bits+0xc0>
   255f8:	e0fffd17 	ldw	r3,-12(fp)
   255fc:	00b00034 	movhi	r2,49152
   25600:	10bfffc4 	addi	r2,r2,-1
   25604:	1886703a 	and	r3,r3,r2
   25608:	e0bfff17 	ldw	r2,-4(fp)
   2560c:	10c00715 	stw	r3,28(r2)
   25610:	00000406 	br	25624 <alt_msgdma_prefetcher_set_std_list_own_by_hw_bits+0xd0>
   25614:	e0bffd17 	ldw	r2,-12(fp)
   25618:	10d00034 	orhi	r3,r2,16384
   2561c:	e0bfff17 	ldw	r2,-4(fp)
   25620:	10c00715 	stw	r3,28(r2)
   25624:	e0bffe17 	ldw	r2,-8(fp)
   25628:	10800044 	addi	r2,r2,1
   2562c:	e0bffe15 	stw	r2,-8(fp)
   25630:	e0bffa03 	ldbu	r2,-24(fp)
   25634:	10000526 	beq	r2,zero,2564c <alt_msgdma_prefetcher_set_std_list_own_by_hw_bits+0xf8>
   25638:	e0bffe17 	ldw	r2,-8(fp)
   2563c:	1004917a 	slli	r2,r2,5
   25640:	100b883a 	mov	r5,r2
   25644:	e13ffc17 	ldw	r4,-16(fp)
   25648:	002614c0 	call	2614c <alt_dcache_flush>
   2564c:	0005883a 	mov	r2,zero
   25650:	e037883a 	mov	sp,fp
   25654:	dfc00117 	ldw	ra,4(sp)
   25658:	df000017 	ldw	fp,0(sp)
   2565c:	dec00204 	addi	sp,sp,8
   25660:	f800283a 	ret

00025664 <alt_msgdma_prefetcher_set_extd_list_own_by_hw_bits>:
   25664:	defff404 	addi	sp,sp,-48
   25668:	dfc00b15 	stw	ra,44(sp)
   2566c:	df000a15 	stw	fp,40(sp)
   25670:	df000a04 	addi	fp,sp,40
   25674:	e13ff815 	stw	r4,-32(fp)
   25678:	2809883a 	mov	r4,r5
   2567c:	300b883a 	mov	r5,r6
   25680:	e13ff705 	stb	r4,-36(fp)
   25684:	2809883a 	mov	r4,r5
   25688:	e13ff605 	stb	r4,-40(fp)
   2568c:	e03ffd15 	stw	zero,-12(fp)
   25690:	e03ffe15 	stw	zero,-8(fp)
   25694:	e13ff817 	ldw	r4,-32(fp)
   25698:	2000021e 	bne	r4,zero,256a4 <alt_msgdma_prefetcher_set_extd_list_own_by_hw_bits+0x40>
   2569c:	00bffa84 	movi	r2,-22
   256a0:	00003e06 	br	2579c <alt_msgdma_prefetcher_set_extd_list_own_by_hw_bits+0x138>
   256a4:	e13ff817 	ldw	r4,-32(fp)
   256a8:	e13fff15 	stw	r4,-4(fp)
   256ac:	e13ff817 	ldw	r4,-32(fp)
   256b0:	2005883a 	mov	r2,r4
   256b4:	0007883a 	mov	r3,zero
   256b8:	e0bffb15 	stw	r2,-20(fp)
   256bc:	e0fffc15 	stw	r3,-16(fp)
   256c0:	00001306 	br	25710 <alt_msgdma_prefetcher_set_extd_list_own_by_hw_bits+0xac>
   256c4:	e0bfff17 	ldw	r2,-4(fp)
   256c8:	10800f17 	ldw	r2,60(r2)
   256cc:	e0bffd15 	stw	r2,-12(fp)
   256d0:	e0bffd17 	ldw	r2,-12(fp)
   256d4:	10d00034 	orhi	r3,r2,16384
   256d8:	e0bfff17 	ldw	r2,-4(fp)
   256dc:	10c00f15 	stw	r3,60(r2)
   256e0:	e0bfff17 	ldw	r2,-4(fp)
   256e4:	10800317 	ldw	r2,12(r2)
   256e8:	e0bff915 	stw	r2,-28(fp)
   256ec:	e0bfff17 	ldw	r2,-4(fp)
   256f0:	10800b17 	ldw	r2,44(r2)
   256f4:	e0bffa15 	stw	r2,-24(fp)
   256f8:	e0bff917 	ldw	r2,-28(fp)
   256fc:	e0fffa17 	ldw	r3,-24(fp)
   25700:	e0bfff15 	stw	r2,-4(fp)
   25704:	e0bffe17 	ldw	r2,-8(fp)
   25708:	10800044 	addi	r2,r2,1
   2570c:	e0bffe15 	stw	r2,-8(fp)
   25710:	e0bfff17 	ldw	r2,-4(fp)
   25714:	10c00317 	ldw	r3,12(r2)
   25718:	e0bffb17 	ldw	r2,-20(fp)
   2571c:	18bfe91e 	bne	r3,r2,256c4 <alt_msgdma_prefetcher_set_extd_list_own_by_hw_bits+0x60>
   25720:	e0bfff17 	ldw	r2,-4(fp)
   25724:	10c00b17 	ldw	r3,44(r2)
   25728:	e0bffc17 	ldw	r2,-16(fp)
   2572c:	18bfe51e 	bne	r3,r2,256c4 <alt_msgdma_prefetcher_set_extd_list_own_by_hw_bits+0x60>
   25730:	e0bfff17 	ldw	r2,-4(fp)
   25734:	10800f17 	ldw	r2,60(r2)
   25738:	e0bffd15 	stw	r2,-12(fp)
   2573c:	e0bff703 	ldbu	r2,-36(fp)
   25740:	10000726 	beq	r2,zero,25760 <alt_msgdma_prefetcher_set_extd_list_own_by_hw_bits+0xfc>
   25744:	e0fffd17 	ldw	r3,-12(fp)
   25748:	00b00034 	movhi	r2,49152
   2574c:	10bfffc4 	addi	r2,r2,-1
   25750:	1886703a 	and	r3,r3,r2
   25754:	e0bfff17 	ldw	r2,-4(fp)
   25758:	10c00f15 	stw	r3,60(r2)
   2575c:	00000406 	br	25770 <alt_msgdma_prefetcher_set_extd_list_own_by_hw_bits+0x10c>
   25760:	e0bffd17 	ldw	r2,-12(fp)
   25764:	10d00034 	orhi	r3,r2,16384
   25768:	e0bfff17 	ldw	r2,-4(fp)
   2576c:	10c00f15 	stw	r3,60(r2)
   25770:	e0bffe17 	ldw	r2,-8(fp)
   25774:	10800044 	addi	r2,r2,1
   25778:	e0bffe15 	stw	r2,-8(fp)
   2577c:	e0bff603 	ldbu	r2,-40(fp)
   25780:	10000526 	beq	r2,zero,25798 <alt_msgdma_prefetcher_set_extd_list_own_by_hw_bits+0x134>
   25784:	e0bffe17 	ldw	r2,-8(fp)
   25788:	100491ba 	slli	r2,r2,6
   2578c:	100b883a 	mov	r5,r2
   25790:	e13ff817 	ldw	r4,-32(fp)
   25794:	002614c0 	call	2614c <alt_dcache_flush>
   25798:	0005883a 	mov	r2,zero
   2579c:	e037883a 	mov	sp,fp
   257a0:	dfc00117 	ldw	ra,4(sp)
   257a4:	df000017 	ldw	fp,0(sp)
   257a8:	dec00204 	addi	sp,sp,8
   257ac:	f800283a 	ret

000257b0 <alt_msgdma_start_prefetcher_with_list_addr>:
   257b0:	deffef04 	addi	sp,sp,-68
   257b4:	df001015 	stw	fp,64(sp)
   257b8:	df001004 	addi	fp,sp,64
   257bc:	e13ff415 	stw	r4,-48(fp)
   257c0:	e17ff215 	stw	r5,-56(fp)
   257c4:	e1bff315 	stw	r6,-52(fp)
   257c8:	3807883a 	mov	r3,r7
   257cc:	e0800117 	ldw	r2,4(fp)
   257d0:	e0fff105 	stb	r3,-60(fp)
   257d4:	e0bff005 	stb	r2,-64(fp)
   257d8:	e03fff15 	stw	zero,-4(fp)
   257dc:	e03ffe15 	stw	zero,-8(fp)
   257e0:	e03ffd15 	stw	zero,-12(fp)
   257e4:	e0bff217 	ldw	r2,-56(fp)
   257e8:	e0bff515 	stw	r2,-44(fp)
   257ec:	e0bff317 	ldw	r2,-52(fp)
   257f0:	e0bff615 	stw	r2,-40(fp)
   257f4:	e0bff417 	ldw	r2,-48(fp)
   257f8:	10800617 	ldw	r2,24(r2)
   257fc:	10800037 	ldwio	r2,0(r2)
   25800:	e0bfff15 	stw	r2,-4(fp)
   25804:	e0bfff17 	ldw	r2,-4(fp)
   25808:	1080004c 	andi	r2,r2,1
   2580c:	10000226 	beq	r2,zero,25818 <alt_msgdma_start_prefetcher_with_list_addr+0x68>
   25810:	00bffc04 	movi	r2,-16
   25814:	00009406 	br	25a68 <alt_msgdma_start_prefetcher_with_list_addr+0x2b8>
   25818:	00800804 	movi	r2,32
   2581c:	e0bffe15 	stw	r2,-8(fp)
   25820:	0005303a 	rdctl	r2,status
   25824:	e0bffb15 	stw	r2,-20(fp)
   25828:	e0fffb17 	ldw	r3,-20(fp)
   2582c:	00bfff84 	movi	r2,-2
   25830:	1884703a 	and	r2,r3,r2
   25834:	1001703a 	wrctl	status,r2
   25838:	e0bffb17 	ldw	r2,-20(fp)
   2583c:	e0bffd15 	stw	r2,-12(fp)
   25840:	e0bff417 	ldw	r2,-48(fp)
   25844:	10800317 	ldw	r2,12(r2)
   25848:	10800104 	addi	r2,r2,4
   2584c:	e0fffe17 	ldw	r3,-8(fp)
   25850:	10c00035 	stwio	r3,0(r2)
   25854:	e0bff417 	ldw	r2,-48(fp)
   25858:	10800317 	ldw	r2,12(r2)
   2585c:	e0fff417 	ldw	r3,-48(fp)
   25860:	18c00317 	ldw	r3,12(r3)
   25864:	18c00037 	ldwio	r3,0(r3)
   25868:	10c00035 	stwio	r3,0(r2)
   2586c:	e0bffd17 	ldw	r2,-12(fp)
   25870:	e0bffc15 	stw	r2,-16(fp)
   25874:	e0bffc17 	ldw	r2,-16(fp)
   25878:	1001703a 	wrctl	status,r2
   2587c:	0001883a 	nop
   25880:	e0bff417 	ldw	r2,-48(fp)
   25884:	10800b17 	ldw	r2,44(r2)
   25888:	10002326 	beq	r2,zero,25918 <alt_msgdma_start_prefetcher_with_list_addr+0x168>
   2588c:	e0bff417 	ldw	r2,-48(fp)
   25890:	10c00d17 	ldw	r3,52(r2)
   25894:	e0bffe17 	ldw	r2,-8(fp)
   25898:	1884b03a 	or	r2,r3,r2
   2589c:	10800514 	ori	r2,r2,20
   258a0:	e0bffe15 	stw	r2,-8(fp)
   258a4:	e0fffe17 	ldw	r3,-8(fp)
   258a8:	00bff7c4 	movi	r2,-33
   258ac:	1884703a 	and	r2,r3,r2
   258b0:	e0bffe15 	stw	r2,-8(fp)
   258b4:	e0bfff17 	ldw	r2,-4(fp)
   258b8:	10800214 	ori	r2,r2,8
   258bc:	e0bfff15 	stw	r2,-4(fp)
   258c0:	0005303a 	rdctl	r2,status
   258c4:	e0bff915 	stw	r2,-28(fp)
   258c8:	e0fff917 	ldw	r3,-28(fp)
   258cc:	00bfff84 	movi	r2,-2
   258d0:	1884703a 	and	r2,r3,r2
   258d4:	1001703a 	wrctl	status,r2
   258d8:	e0bff917 	ldw	r2,-28(fp)
   258dc:	e0bffd15 	stw	r2,-12(fp)
   258e0:	e0bff417 	ldw	r2,-48(fp)
   258e4:	10800317 	ldw	r2,12(r2)
   258e8:	10800104 	addi	r2,r2,4
   258ec:	e0fffe17 	ldw	r3,-8(fp)
   258f0:	10c00035 	stwio	r3,0(r2)
   258f4:	e0bff417 	ldw	r2,-48(fp)
   258f8:	10800617 	ldw	r2,24(r2)
   258fc:	e0ffff17 	ldw	r3,-4(fp)
   25900:	10c00035 	stwio	r3,0(r2)
   25904:	e0bffd17 	ldw	r2,-12(fp)
   25908:	e0bffa15 	stw	r2,-24(fp)
   2590c:	e0bffa17 	ldw	r2,-24(fp)
   25910:	1001703a 	wrctl	status,r2
   25914:	00002406 	br	259a8 <alt_msgdma_start_prefetcher_with_list_addr+0x1f8>
   25918:	e0bff417 	ldw	r2,-48(fp)
   2591c:	10c00d17 	ldw	r3,52(r2)
   25920:	e0bffe17 	ldw	r2,-8(fp)
   25924:	1884b03a 	or	r2,r3,r2
   25928:	10800114 	ori	r2,r2,4
   2592c:	e0bffe15 	stw	r2,-8(fp)
   25930:	e0fffe17 	ldw	r3,-8(fp)
   25934:	00bff3c4 	movi	r2,-49
   25938:	1884703a 	and	r2,r3,r2
   2593c:	e0bffe15 	stw	r2,-8(fp)
   25940:	e0ffff17 	ldw	r3,-4(fp)
   25944:	00bffdc4 	movi	r2,-9
   25948:	1884703a 	and	r2,r3,r2
   2594c:	e0bfff15 	stw	r2,-4(fp)
   25950:	0005303a 	rdctl	r2,status
   25954:	e0bff715 	stw	r2,-36(fp)
   25958:	e0fff717 	ldw	r3,-36(fp)
   2595c:	00bfff84 	movi	r2,-2
   25960:	1884703a 	and	r2,r3,r2
   25964:	1001703a 	wrctl	status,r2
   25968:	e0bff717 	ldw	r2,-36(fp)
   2596c:	e0bffd15 	stw	r2,-12(fp)
   25970:	e0bff417 	ldw	r2,-48(fp)
   25974:	10800317 	ldw	r2,12(r2)
   25978:	10800104 	addi	r2,r2,4
   2597c:	e0fffe17 	ldw	r3,-8(fp)
   25980:	10c00035 	stwio	r3,0(r2)
   25984:	e0bff417 	ldw	r2,-48(fp)
   25988:	10800617 	ldw	r2,24(r2)
   2598c:	e0ffff17 	ldw	r3,-4(fp)
   25990:	10c00035 	stwio	r3,0(r2)
   25994:	e0bffd17 	ldw	r2,-12(fp)
   25998:	e0bff815 	stw	r2,-32(fp)
   2599c:	e0bff817 	ldw	r2,-32(fp)
   259a0:	1001703a 	wrctl	status,r2
   259a4:	0001883a 	nop
   259a8:	e0bff417 	ldw	r2,-48(fp)
   259ac:	10800617 	ldw	r2,24(r2)
   259b0:	10800104 	addi	r2,r2,4
   259b4:	e0fff517 	ldw	r3,-44(fp)
   259b8:	10c00035 	stwio	r3,0(r2)
   259bc:	e0bff417 	ldw	r2,-48(fp)
   259c0:	10800617 	ldw	r2,24(r2)
   259c4:	10800204 	addi	r2,r2,8
   259c8:	e0fff617 	ldw	r3,-40(fp)
   259cc:	10c00035 	stwio	r3,0(r2)
   259d0:	e0bff103 	ldbu	r2,-60(fp)
   259d4:	10000426 	beq	r2,zero,259e8 <alt_msgdma_start_prefetcher_with_list_addr+0x238>
   259d8:	e0bfff17 	ldw	r2,-4(fp)
   259dc:	10800414 	ori	r2,r2,16
   259e0:	e0bfff15 	stw	r2,-4(fp)
   259e4:	00000406 	br	259f8 <alt_msgdma_start_prefetcher_with_list_addr+0x248>
   259e8:	e0ffff17 	ldw	r3,-4(fp)
   259ec:	00bffbc4 	movi	r2,-17
   259f0:	1884703a 	and	r2,r3,r2
   259f4:	e0bfff15 	stw	r2,-4(fp)
   259f8:	e0bff003 	ldbu	r2,-64(fp)
   259fc:	10000e26 	beq	r2,zero,25a38 <alt_msgdma_start_prefetcher_with_list_addr+0x288>
   25a00:	e0bfff17 	ldw	r2,-4(fp)
   25a04:	10800094 	ori	r2,r2,2
   25a08:	e0bfff15 	stw	r2,-4(fp)
   25a0c:	e0bff417 	ldw	r2,-48(fp)
   25a10:	10800617 	ldw	r2,24(r2)
   25a14:	10800304 	addi	r2,r2,12
   25a18:	10800037 	ldwio	r2,0(r2)
   25a1c:	10000a1e 	bne	r2,zero,25a48 <alt_msgdma_start_prefetcher_with_list_addr+0x298>
   25a20:	e0bff417 	ldw	r2,-48(fp)
   25a24:	10800617 	ldw	r2,24(r2)
   25a28:	10800304 	addi	r2,r2,12
   25a2c:	00c03fc4 	movi	r3,255
   25a30:	10c00035 	stwio	r3,0(r2)
   25a34:	00000406 	br	25a48 <alt_msgdma_start_prefetcher_with_list_addr+0x298>
   25a38:	e0ffff17 	ldw	r3,-4(fp)
   25a3c:	00bfff44 	movi	r2,-3
   25a40:	1884703a 	and	r2,r3,r2
   25a44:	e0bfff15 	stw	r2,-4(fp)
   25a48:	e0bfff17 	ldw	r2,-4(fp)
   25a4c:	10800054 	ori	r2,r2,1
   25a50:	e0bfff15 	stw	r2,-4(fp)
   25a54:	e0bff417 	ldw	r2,-48(fp)
   25a58:	10800617 	ldw	r2,24(r2)
   25a5c:	e0ffff17 	ldw	r3,-4(fp)
   25a60:	10c00035 	stwio	r3,0(r2)
   25a64:	0005883a 	mov	r2,zero
   25a68:	e037883a 	mov	sp,fp
   25a6c:	df000017 	ldw	fp,0(sp)
   25a70:	dec00104 	addi	sp,sp,4
   25a74:	f800283a 	ret

00025a78 <alt_msgdma_start_prefetcher_with_std_desc_list>:
   25a78:	defff504 	addi	sp,sp,-44
   25a7c:	dfc00a15 	stw	ra,40(sp)
   25a80:	df000915 	stw	fp,36(sp)
   25a84:	dc400815 	stw	r17,32(sp)
   25a88:	dc000715 	stw	r16,28(sp)
   25a8c:	df000904 	addi	fp,sp,36
   25a90:	e13ffd15 	stw	r4,-12(fp)
   25a94:	e17ffc15 	stw	r5,-16(fp)
   25a98:	3009883a 	mov	r4,r6
   25a9c:	380b883a 	mov	r5,r7
   25aa0:	e0c00217 	ldw	r3,8(fp)
   25aa4:	e0800317 	ldw	r2,12(fp)
   25aa8:	e13ffb05 	stb	r4,-20(fp)
   25aac:	2809883a 	mov	r4,r5
   25ab0:	e13ffa05 	stb	r4,-24(fp)
   25ab4:	e0fff905 	stb	r3,-28(fp)
   25ab8:	e0bff805 	stb	r2,-32(fp)
   25abc:	e0bff903 	ldbu	r2,-28(fp)
   25ac0:	e0fff803 	ldbu	r3,-32(fp)
   25ac4:	180d883a 	mov	r6,r3
   25ac8:	100b883a 	mov	r5,r2
   25acc:	e13ffc17 	ldw	r4,-16(fp)
   25ad0:	00255540 	call	25554 <alt_msgdma_prefetcher_set_std_list_own_by_hw_bits>
   25ad4:	10000226 	beq	r2,zero,25ae0 <alt_msgdma_start_prefetcher_with_std_desc_list+0x68>
   25ad8:	00bffa84 	movi	r2,-22
   25adc:	00000b06 	br	25b0c <alt_msgdma_start_prefetcher_with_std_desc_list+0x94>
   25ae0:	e0bffc17 	ldw	r2,-16(fp)
   25ae4:	1021883a 	mov	r16,r2
   25ae8:	0023883a 	mov	r17,zero
   25aec:	e0fffb03 	ldbu	r3,-20(fp)
   25af0:	e0bffa03 	ldbu	r2,-24(fp)
   25af4:	d8800015 	stw	r2,0(sp)
   25af8:	180f883a 	mov	r7,r3
   25afc:	800b883a 	mov	r5,r16
   25b00:	880d883a 	mov	r6,r17
   25b04:	e13ffd17 	ldw	r4,-12(fp)
   25b08:	00257b00 	call	257b0 <alt_msgdma_start_prefetcher_with_list_addr>
   25b0c:	e6fffe04 	addi	sp,fp,-8
   25b10:	dfc00317 	ldw	ra,12(sp)
   25b14:	df000217 	ldw	fp,8(sp)
   25b18:	dc400117 	ldw	r17,4(sp)
   25b1c:	dc000017 	ldw	r16,0(sp)
   25b20:	dec00404 	addi	sp,sp,16
   25b24:	f800283a 	ret

00025b28 <alt_msgdma_start_prefetcher_with_extd_desc_list>:
   25b28:	defff504 	addi	sp,sp,-44
   25b2c:	dfc00a15 	stw	ra,40(sp)
   25b30:	df000915 	stw	fp,36(sp)
   25b34:	dc400815 	stw	r17,32(sp)
   25b38:	dc000715 	stw	r16,28(sp)
   25b3c:	df000904 	addi	fp,sp,36
   25b40:	e13ffd15 	stw	r4,-12(fp)
   25b44:	e17ffc15 	stw	r5,-16(fp)
   25b48:	3009883a 	mov	r4,r6
   25b4c:	380b883a 	mov	r5,r7
   25b50:	e0c00217 	ldw	r3,8(fp)
   25b54:	e0800317 	ldw	r2,12(fp)
   25b58:	e13ffb05 	stb	r4,-20(fp)
   25b5c:	2809883a 	mov	r4,r5
   25b60:	e13ffa05 	stb	r4,-24(fp)
   25b64:	e0fff905 	stb	r3,-28(fp)
   25b68:	e0bff805 	stb	r2,-32(fp)
   25b6c:	e0bff903 	ldbu	r2,-28(fp)
   25b70:	e0fff803 	ldbu	r3,-32(fp)
   25b74:	180d883a 	mov	r6,r3
   25b78:	100b883a 	mov	r5,r2
   25b7c:	e13ffc17 	ldw	r4,-16(fp)
   25b80:	00256640 	call	25664 <alt_msgdma_prefetcher_set_extd_list_own_by_hw_bits>
   25b84:	10000226 	beq	r2,zero,25b90 <alt_msgdma_start_prefetcher_with_extd_desc_list+0x68>
   25b88:	00bffa84 	movi	r2,-22
   25b8c:	00000b06 	br	25bbc <alt_msgdma_start_prefetcher_with_extd_desc_list+0x94>
   25b90:	e0bffc17 	ldw	r2,-16(fp)
   25b94:	1021883a 	mov	r16,r2
   25b98:	0023883a 	mov	r17,zero
   25b9c:	e0fffb03 	ldbu	r3,-20(fp)
   25ba0:	e0bffa03 	ldbu	r2,-24(fp)
   25ba4:	d8800015 	stw	r2,0(sp)
   25ba8:	180f883a 	mov	r7,r3
   25bac:	800b883a 	mov	r5,r16
   25bb0:	880d883a 	mov	r6,r17
   25bb4:	e13ffd17 	ldw	r4,-12(fp)
   25bb8:	00257b00 	call	257b0 <alt_msgdma_start_prefetcher_with_list_addr>
   25bbc:	e6fffe04 	addi	sp,fp,-8
   25bc0:	dfc00317 	ldw	ra,12(sp)
   25bc4:	df000217 	ldw	fp,8(sp)
   25bc8:	dc400117 	ldw	r17,4(sp)
   25bcc:	dc000017 	ldw	r16,0(sp)
   25bd0:	dec00404 	addi	sp,sp,16
   25bd4:	f800283a 	ret

00025bd8 <alt_msgdma_open>:
   25bd8:	defffc04 	addi	sp,sp,-16
   25bdc:	dfc00315 	stw	ra,12(sp)
   25be0:	df000215 	stw	fp,8(sp)
   25be4:	df000204 	addi	fp,sp,8
   25be8:	e13ffe15 	stw	r4,-8(fp)
   25bec:	e03fff15 	stw	zero,-4(fp)
   25bf0:	d1600504 	addi	r5,gp,-32748
   25bf4:	e13ffe17 	ldw	r4,-8(fp)
   25bf8:	002634c0 	call	2634c <alt_find_dev>
   25bfc:	e0bfff15 	stw	r2,-4(fp)
   25c00:	e0bfff17 	ldw	r2,-4(fp)
   25c04:	1000041e 	bne	r2,zero,25c18 <alt_msgdma_open+0x40>
   25c08:	0023f040 	call	23f04 <alt_get_errno>
   25c0c:	1007883a 	mov	r3,r2
   25c10:	008004c4 	movi	r2,19
   25c14:	18800015 	stw	r2,0(r3)
   25c18:	e0bfff17 	ldw	r2,-4(fp)
   25c1c:	e037883a 	mov	sp,fp
   25c20:	dfc00117 	ldw	ra,4(sp)
   25c24:	df000017 	ldw	fp,0(sp)
   25c28:	dec00204 	addi	sp,sp,8
   25c2c:	f800283a 	ret

00025c30 <alt_msgdma_init>:
   25c30:	defff804 	addi	sp,sp,-32
   25c34:	dfc00715 	stw	ra,28(sp)
   25c38:	df000615 	stw	fp,24(sp)
   25c3c:	df000604 	addi	fp,sp,24
   25c40:	e13ffd15 	stw	r4,-12(fp)
   25c44:	e17ffc15 	stw	r5,-16(fp)
   25c48:	e1bffb15 	stw	r6,-20(fp)
   25c4c:	e0bffd17 	ldw	r2,-12(fp)
   25c50:	10801783 	ldbu	r2,94(r2)
   25c54:	10803fcc 	andi	r2,r2,255
   25c58:	10000a26 	beq	r2,zero,25c84 <alt_msgdma_init+0x54>
   25c5c:	e0bffd17 	ldw	r2,-12(fp)
   25c60:	10800617 	ldw	r2,24(r2)
   25c64:	00c00104 	movi	r3,4
   25c68:	10c00035 	stwio	r3,0(r2)
   25c6c:	0001883a 	nop
   25c70:	e0bffd17 	ldw	r2,-12(fp)
   25c74:	10800617 	ldw	r2,24(r2)
   25c78:	10800037 	ldwio	r2,0(r2)
   25c7c:	1080010c 	andi	r2,r2,4
   25c80:	103ffb1e 	bne	r2,zero,25c70 <alt_msgdma_init+0x40>
   25c84:	e0bffd17 	ldw	r2,-12(fp)
   25c88:	10800317 	ldw	r2,12(r2)
   25c8c:	10800104 	addi	r2,r2,4
   25c90:	00c00084 	movi	r3,2
   25c94:	10c00035 	stwio	r3,0(r2)
   25c98:	0001883a 	nop
   25c9c:	e0bffd17 	ldw	r2,-12(fp)
   25ca0:	10800317 	ldw	r2,12(r2)
   25ca4:	10800037 	ldwio	r2,0(r2)
   25ca8:	1080100c 	andi	r2,r2,64
   25cac:	103ffb1e 	bne	r2,zero,25c9c <alt_msgdma_init+0x6c>
   25cb0:	e0bffd17 	ldw	r2,-12(fp)
   25cb4:	10800317 	ldw	r2,12(r2)
   25cb8:	10800104 	addi	r2,r2,4
   25cbc:	10800037 	ldwio	r2,0(r2)
   25cc0:	1007883a 	mov	r3,r2
   25cc4:	00bffbc4 	movi	r2,-17
   25cc8:	1884703a 	and	r2,r3,r2
   25ccc:	e0bfff15 	stw	r2,-4(fp)
   25cd0:	e0bfff17 	ldw	r2,-4(fp)
   25cd4:	10800814 	ori	r2,r2,32
   25cd8:	e0bfff15 	stw	r2,-4(fp)
   25cdc:	e0bffd17 	ldw	r2,-12(fp)
   25ce0:	10800317 	ldw	r2,12(r2)
   25ce4:	10800104 	addi	r2,r2,4
   25ce8:	e0ffff17 	ldw	r3,-4(fp)
   25cec:	10c00035 	stwio	r3,0(r2)
   25cf0:	e0bffd17 	ldw	r2,-12(fp)
   25cf4:	10800317 	ldw	r2,12(r2)
   25cf8:	e0fffd17 	ldw	r3,-12(fp)
   25cfc:	18c00317 	ldw	r3,12(r3)
   25d00:	18c00037 	ldwio	r3,0(r3)
   25d04:	10c00035 	stwio	r3,0(r2)
   25d08:	e0bffd17 	ldw	r2,-12(fp)
