
GreenPAKWriter.elf:     file format elf32-littlenios2
GreenPAKWriter.elf
architecture: nios2:r1, flags 0x00000112:
EXEC_P, HAS_SYMS, D_PAGED
start address 0x00020224

Program Header:
    LOAD off    0x00001000 vaddr 0x00020000 paddr 0x00020000 align 2**12
         filesz 0x00000020 memsz 0x00000020 flags r-x
    LOAD off    0x00001020 vaddr 0x00020020 paddr 0x00020020 align 2**12
         filesz 0x00007cb4 memsz 0x00007cb4 flags r-x
    LOAD off    0x00008cd4 vaddr 0x00027cd4 paddr 0x000280cc align 2**12
         filesz 0x000003f8 memsz 0x000003f8 flags rw-
    LOAD off    0x000004c4 vaddr 0x000284c4 paddr 0x000284c4 align 2**12
         filesz 0x00000000 memsz 0x000002ec flags rw-

Sections:
Idx Name          Size      VMA       LMA       File off  Algn
  0 .entry        00000020  00020000  00020000  00001000  2**5
                  CONTENTS, ALLOC, LOAD, READONLY, CODE
  1 .exceptions   00000204  00020020  00020020  00001020  2**2
                  CONTENTS, ALLOC, LOAD, READONLY, CODE
  2 .text         00007670  00020224  00020224  00001224  2**2
                  CONTENTS, ALLOC, LOAD, READONLY, CODE
  3 .rodata       00000440  00027894  00027894  00008894  2**2
                  CONTENTS, ALLOC, LOAD, READONLY, DATA
  4 .rwdata       000003f8  00027cd4  000280cc  00008cd4  2**2
                  CONTENTS, ALLOC, LOAD, DATA, SMALL_DATA
  5 .bss          000002ec  000284c4  000284c4  000094c4  2**2
                  ALLOC, SMALL_DATA
  6 .onchip_memory 00000000  000287b0  000287b0  000090cc  2**0
                  CONTENTS
  7 .textram      00000000  00050000  00050000  000090cc  2**0
                  CONTENTS
  8 .onchip_NVM_ROM 00000000  00060000  00060000  000090cc  2**0
                  CONTENTS
  9 .comment      0000002d  00000000  00000000  000090cc  2**0
                  CONTENTS, READONLY
 10 .debug_aranges 00000760  00000000  00000000  00009100  2**3
                  CONTENTS, READONLY, DEBUGGING, OCTETS
 11 .debug_info   0000d692  00000000  00000000  00009860  2**0
                  CONTENTS, READONLY, DEBUGGING, OCTETS
 12 .debug_abbrev 00003ee4  00000000  00000000  00016ef2  2**0
                  CONTENTS, READONLY, DEBUGGING, OCTETS
 13 .debug_line   00006336  00000000  00000000  0001add6  2**0
                  CONTENTS, READONLY, DEBUGGING, OCTETS
 14 .debug_frame  00001c8c  00000000  00000000  0002110c  2**2
                  CONTENTS, READONLY, DEBUGGING, OCTETS
 15 .debug_str    00003944  00000000  00000000  00022d98  2**0
                  CONTENTS, READONLY, DEBUGGING, OCTETS
 16 .debug_loc    00001f8e  00000000  00000000  000266dc  2**0
                  CONTENTS, READONLY, DEBUGGING, OCTETS
 17 .debug_alt_sim_info 00000040  00000000  00000000  0002866c  2**2
                  CONTENTS, READONLY, DEBUGGING, OCTETS
 18 .debug_ranges 00000320  00000000  00000000  000286b0  2**3
                  CONTENTS, READONLY, DEBUGGING, OCTETS
 19 .thread_model 00000003  00000000  00000000  0002bd02  2**0
                  CONTENTS, READONLY
 20 .cpu          00000009  00000000  00000000  0002bd05  2**0
                  CONTENTS, READONLY
 21 .qsys         00000001  00000000  00000000  0002bd0e  2**0
                  CONTENTS, READONLY
 22 .simulation_enabled 00000001  00000000  00000000  0002bd0f  2**0
                  CONTENTS, READONLY
 23 .sysid_hash   00000004  00000000  00000000  0002bd10  2**0
                  CONTENTS, READONLY
 24 .sysid_base   00000004  00000000  00000000  0002bd14  2**0
                  CONTENTS, READONLY
 25 .sysid_time   00000004  00000000  00000000  0002bd18  2**0
                  CONTENTS, READONLY
 26 .stderr_dev   00000009  00000000  00000000  0002bd1c  2**0
                  CONTENTS, READONLY
 27 .stdin_dev    00000009  00000000  00000000  0002bd25  2**0
                  CONTENTS, READONLY
 28 .stdout_dev   00000009  00000000  00000000  0002bd2e  2**0
                  CONTENTS, READONLY
 29 .sopc_system_name 0000000c  00000000  00000000  0002bd37  2**0
                  CONTENTS, READONLY
SYMBOL TABLE:
00020000 l    d  .entry	00000000 .entry
00020020 l    d  .exceptions	00000000 .exceptions
00020224 l    d  .text	00000000 .text
00027894 l    d  .rodata	00000000 .rodata
00027cd4 l    d  .rwdata	00000000 .rwdata
000284c4 l    d  .bss	00000000 .bss
000287b0 l    d  .onchip_memory	00000000 .onchip_memory
00050000 l    d  .textram	00000000 .textram
00060000 l    d  .onchip_NVM_ROM	00000000 .onchip_NVM_ROM
00000000 l    d  .comment	00000000 .comment
00000000 l    d  .debug_aranges	00000000 .debug_aranges
00000000 l    d  .debug_info	00000000 .debug_info
00000000 l    d  .debug_abbrev	00000000 .debug_abbrev
00000000 l    d  .debug_line	00000000 .debug_line
00000000 l    d  .debug_frame	00000000 .debug_frame
00000000 l    d  .debug_str	00000000 .debug_str
00000000 l    d  .debug_loc	00000000 .debug_loc
00000000 l    d  .debug_alt_sim_info	00000000 .debug_alt_sim_info
00000000 l    d  .debug_ranges	00000000 .debug_ranges
00000000 l    df *ABS*	00000000 c:/Users/ohnaka/work/github/X68k-KeplerX-RTL/GreenPAK/fpga-writer/Eclipse/GreenPAKWriter_BSP/obj/HAL/src/crt0.o
0002025c l       .text	00000000 alt_after_alt_main
00000000 l    df *ABS*	00000000 alt_irq_handler.c
00000000 l    df *ABS*	00000000 alt_instruction_exception_entry.c
00000000 l    df *ABS*	00000000 main.c
000204a4 l     F .text	0000009c fifo_callback
00020540 l     F .text	000000ac i2c_callback
00000000 l    df *ABS*	00000000 lib2-mul.c
00000000 l    df *ABS*	00000000 vsnprintf.c
00000000 l    df *ABS*	00000000 fvwrite_small_str.c
00000000 l    df *ABS*	00000000 impure.c
00027d20 l     O .rwdata	000000e4 impure_data
00000000 l    df *ABS*	00000000 memmove.c
00000000 l    df *ABS*	00000000 vfprintf.c
000214ec l     F .text	0000006c print_repeat
00000000 l    df *ABS*	00000000 strlen.c
00000000 l    df *ABS*	00000000 lib2-divmod.c
00000000 l    df *ABS*	00000000 alt_dcache_flush_all.c
00000000 l    df *ABS*	00000000 alt_iic.c
00000000 l    df *ABS*	00000000 alt_iic_isr_register.c
00000000 l    df *ABS*	00000000 alt_irq_vars.c
00000000 l    df *ABS*	00000000 alt_load.c
00021f04 l     F .text	00000068 alt_load_section
00000000 l    df *ABS*	00000000 alt_main.c
00000000 l    df *ABS*	00000000 alt_sys_init.c
0002206c l     F .text	00000034 alt_dev_reg
00027e10 l     O .rwdata	00000038 i2c_0
00027e48 l     O .rwdata	0000002c jtag_uart
00027e80 l     O .rwdata	00000060 msgdma_tx
00000000 l    df *ABS*	00000000 altera_avalon_fifo_util.c
00000000 l    df *ABS*	00000000 altera_avalon_i2c.c
00022640 l     F .text	00000110 optional_irq_callback
000227a0 l     F .text	000000a0 alt_avalon_i2c_irq
00000000 l    df *ABS*	00000000 altera_avalon_jtag_uart_fd.c
00000000 l    df *ABS*	00000000 altera_avalon_jtag_uart_read.c
00000000 l    df *ABS*	00000000 altera_avalon_jtag_uart_write.c
00000000 l    df *ABS*	00000000 altera_msgdma.c
000244ac l     F .text	0000003c alt_get_errno
000244e8 l     F .text	00000094 alt_msgdma_write_standard_descriptor
0002457c l     F .text	0000012c alt_msgdma_write_extended_descriptor
000246a8 l     F .text	00000188 alt_msgdma_irq
00024830 l     F .text	0000008c alt_msgdma_construct_standard_descriptor
000248bc l     F .text	00000154 alt_msgdma_construct_extended_descriptor
00024a10 l     F .text	000002dc alt_msgdma_descriptor_async_transfer
00024cec l     F .text	00000388 alt_msgdma_descriptor_sync_transfer
00025344 l     F .text	000000a4 alt_msgdma_construct_prefetcher_standard_descriptor
000253e8 l     F .text	00000194 alt_msgdma_construct_prefetcher_extended_descriptor
00000000 l    df *ABS*	00000000 alt_busy_sleep.c
00000000 l    df *ABS*	00000000 alt_close.c
000265dc l     F .text	0000003c alt_get_errno
00000000 l    df *ABS*	00000000 alt_dcache_flush.c
00000000 l    df *ABS*	00000000 alt_dev.c
0002671c l     F .text	0000002c alt_dev_null_write
00000000 l    df *ABS*	00000000 alt_dev_llist_insert.c
00026748 l     F .text	0000003c alt_get_errno
00000000 l    df *ABS*	00000000 alt_do_ctors.c
00000000 l    df *ABS*	00000000 alt_do_dtors.c
00000000 l    df *ABS*	00000000 alt_errno.c
00000000 l    df *ABS*	00000000 alt_find_dev.c
00000000 l    df *ABS*	00000000 alt_icache_flush_all.c
00000000 l    df *ABS*	00000000 alt_io_redirect.c
00026a3c l     F .text	000000d4 alt_open_fd
00000000 l    df *ABS*	00000000 alt_open.c
00026b8c l     F .text	0000003c alt_get_errno
00026bc8 l     F .text	000000dc alt_file_locked
00000000 l    df *ABS*	00000000 alt_printf.c
00000000 l    df *ABS*	00000000 alt_putchar.c
00000000 l    df *ABS*	00000000 alt_release_fd.c
00000000 l    df *ABS*	00000000 altera_nios2_gen2_irq.c
00000000 l    df *ABS*	00000000 alt_find_file.c
00000000 l    df *ABS*	00000000 alt_get_fd.c
00000000 l    df *ABS*	00000000 atexit.c
00000000 l    df *ABS*	00000000 exit.c
00000000 l    df *ABS*	00000000 int_errno.c
00000000 l    df *ABS*	00000000 memcmp.c
00000000 l    df *ABS*	00000000 putchar.c
00000000 l    df *ABS*	00000000 __atexit.c
00000000 l    df *ABS*	00000000 __call_atexit.c
00000000 l    df *ABS*	00000000 putc.c
00000000 l    df *ABS*	00000000 fvwrite_small_dev.c
00000000 l    df *ABS*	00000000 writer.c
00000000 l    df *ABS*	00000000 alt_exit.c
00000000 l    df *ABS*	00000000 alt_write.c
00027754 l     F .text	0000003c alt_get_errno
000284f4 g     O .bss	00000004 alt_instruction_exception_handler
00026394 g     F .text	0000003c alt_msgdma_standard_descriptor_async_transfer
00027320 g     F .text	00000018 putchar
00021ff0 g     F .text	0000007c alt_main
000286b0 g     O .bss	00000100 alt_irq
000223cc g     F .text	00000058 altera_avalon_fifo_write_almostfull
000280cc g       *ABS*	00000000 __flash_rwdata_start
00020d9c g     F .text	000000f4 dump
00025124 g     F .text	00000058 alt_msgdma_construct_standard_mm_to_mm_descriptor
00022ea0 g     F .text	000000a8 alt_avalon_i2c_rx_read
00020ba4 g     F .text	000001f8 write_gp_rom
000240c8 g     F .text	00000044 alt_avalon_i2c_enabled_ints_get
00022c20 g     F .text	00000094 alt_avalon_i2c_master_config_speed_get
00020260 g     F .text	00000064 wait_msec
0002148c g     F .text	00000060 memmove
00022148 g     F .text	00000098 altera_avalon_fifo_init
00023910 g     F .text	0000020c alt_avalon_i2c_master_transmit_using_interrupts
0002247c g     F .text	00000058 altera_avalon_fifo_write_fifo
00025074 g     F .text	00000058 alt_msgdma_construct_standard_st_to_mm_descriptor
000270d0 g     F .text	00000024 altera_nios2_gen2_irq_init
000213f4 g     F .text	00000098 __sfvwrite_small_str
00020000 g     F .entry	0000000c __reset
00022618 g     F .text	00000028 altera_avalon_fifo_read_backpressure
00020020 g       *ABS*	00000000 __flash_exceptions_start
000284f8 g     O .bss	00000004 errno
000284ec g     O .bss	00000004 alt_argv
00030088 g       *ABS*	00000000 _gp
0002410c g     F .text	0000004c alt_avalon_i2c_rx_fifo_threshold_get
00022314 g     F .text	00000060 altera_avalon_fifo_clear_event
00022db0 g     F .text	00000044 alt_avalon_i2c_is_busy
00025c0c g     F .text	0000014c alt_msgdma_prefetcher_set_extd_list_own_by_hw_bits
00027f08 g     O .rwdata	00000180 alt_fd_list
00027318 g     F .text	00000008 _putchar_r
00022b54 g     F .text	000000cc alt_avalon_i2c_master_config_set
000268f4 g     F .text	00000090 alt_find_dev
00026b10 g     F .text	0000007c alt_io_redirect
00027894 g       *ABS*	00000000 __DTOR_END__
000260d0 g     F .text	000000b0 alt_msgdma_start_prefetcher_with_extd_desc_list
000263d0 g     F .text	0000003c alt_msgdma_extended_descriptor_async_transfer
00026340 g     F .text	00000054 alt_msgdma_register_callback
00023750 g     F .text	000001c0 alt_avalon_i2c_master_transmit
000269a4 g     F .text	00000098 alt_exception_cause_generated_bad_addr
00028580 g     O .bss	00000010 wr_desc
0002432c g     F .text	000000ec altera_avalon_jtag_uart_read
00025874 g     F .text	000000f0 alt_msgdma_prefetcher_add_standard_desc_to_list
00021b8c g     F .text	00000064 .hidden __udivsi3
000213c4 g     F .text	00000030 vsnprintf
000229c0 g     F .text	00000098 alt_avalon_i2c_enable
00023ff4 g     F .text	0000006c alt_avalon_i2c_int_disable
000266f4 g     F .text	00000028 alt_dcache_flush
000280c4 g     O .rwdata	00000004 alt_max_fd
00023b1c g     F .text	00000210 alt_avalon_i2c_master_receive
000255d4 g     F .text	00000058 alt_msgdma_construct_prefetcher_standard_st_to_mm_descriptor
00024060 g     F .text	00000068 alt_avalon_i2c_int_enable
00028098 g     O .rwdata	00000004 _global_impure_ptr
0002808c g     O .rwdata	00000004 nvm_rom
000287b0 g       *ABS*	00000000 __bss_end
00021e1c g     F .text	000000e8 alt_iic_isr_register
000261d8 g     F .text	00000168 alt_msgdma_init
00023f1c g     F .text	00000058 alt_avalon_i2c_int_status_get
00026448 g     F .text	0000003c alt_msgdma_extended_descriptor_sync_transfer
00021dd0 g     F .text	0000004c alt_ic_irq_enabled
00022840 g     F .text	00000054 alt_avalon_i2c_register_callback
00020a2c g     F .text	00000070 erase_gp_rom
000284e4 g     O .bss	00000004 alt_irq_active
00022894 g     F .text	000000ec alt_avalon_i2c_init
000200fc g     F .exceptions	000000c8 alt_irq_handler
00027ee0 g     O .rwdata	00000028 alt_dev_null
0002520c g     F .text	00000090 alt_msgdma_construct_extended_mm_to_st_descriptor
00026020 g     F .text	000000b0 alt_msgdma_start_prefetcher_with_std_desc_list
00021c4c g     F .text	00000020 alt_dcache_flush_all
00027cd4 g     O .rwdata	00000026 rd_cmd
00022374 g     F .text	00000058 altera_avalon_fifo_write_ienable
000280cc g       *ABS*	00000000 __ram_rwdata_end
00020000 g       *ABS*	00000000 __alt_mem_onchip_memory
00022284 g     F .text	0000002c altera_avalon_fifo_read_almostempty
000280bc g     O .rwdata	00000008 alt_dev_list
00027790 g     F .text	00000104 write
000275d0 g     F .text	00000054 _putc_r
000231dc g     F .text	0000004c alt_avalon_i2c_check_arblost
00023fb8 g     F .text	0000003c alt_avalon_i2c_int_clear
00027cd4 g       *ABS*	00000000 __ram_rodata_end
000280a4 g     O .rwdata	00000008 alt_avalon_i2c_list
00021bf0 g     F .text	0000005c .hidden __umodsi3
0002562c g     F .text	00000058 alt_msgdma_construct_prefetcher_standard_mm_to_st_descriptor
000287b0 g       *ABS*	00000000 end
000285b0 g     O .bss	00000100 rom_buffer
000201c4 g     F .exceptions	00000060 alt_instruction_exception_entry
00022980 g     F .text	00000040 alt_avalon_i2c_open
000222b0 g     F .text	0000003c altera_avalon_fifo_read_event
00027894 g       *ABS*	00000000 __CTOR_LIST__
00020e90 g     F .text	000001ec eeprom_write
0002a000 g       *ABS*	00000000 __alt_stack_pointer
00023364 g     F .text	000000e8 alt_avalon_i2c_master_tx
000284dc g     O .bss	00000004 i2c_status
00024418 g     F .text	00000094 altera_avalon_jtag_uart_write
00022540 g     F .text	0000004c altera_avalon_fifo_read_fifo
000209d4 g     F .text	0000002c erase_gp_nvm
00026e04 g     F .text	0000022c alt_printf
00027454 g     F .text	0000012c __call_exitprocs
00022750 g     F .text	00000050 alt_avalon_i2c_register_optional_irq_handler
00060000 g       *ABS*	00000000 __alt_mem_onchip_NVM_ROM
00020224 g     F .text	0000003c _start
00023d2c g     F .text	000001f0 alt_avalon_i2c_master_receive_using_interrupts
00024158 g     F .text	00000064 alt_avalon_i2c_rx_fifo_threshold_set
000202c4 g     F .text	000001e0 kxlog
000250cc g     F .text	00000058 alt_msgdma_construct_standard_mm_to_st_descriptor
000220dc g     F .text	0000006c alt_sys_init
00027338 g     F .text	0000011c __register_exitproc
000284d4 g     O .bss	00000004 dma_status
00023588 g     F .text	000001c8 alt_avalon_i2c_master_tx_rx
000212e8 g     F .text	00000028 .hidden __mulsi3
00027cd4 g       *ABS*	00000000 __ram_rwdata_start
00027894 g       *ABS*	00000000 __ram_rodata_start
0002426c g     F .text	00000060 altera_avalon_jtag_uart_read_fd
000271fc g     F .text	000000b8 alt_get_fd
00026484 g     F .text	00000158 alt_busy_sleep
0002557c g     F .text	00000058 alt_msgdma_construct_prefetcher_standard_mm_to_mm_descriptor
000272e8 g     F .text	00000030 memcmp
00022df4 g     F .text	000000ac alt_avalon_i2c_rx_read_available
000287b0 g       *ABS*	00000000 __alt_stack_base
00025684 g     F .text	000000a0 alt_msgdma_construct_prefetcher_extended_st_to_mm_descriptor
000205ec g     F .text	000001b8 init
000284d8 g     O .bss	00000004 i2c_dev
000221e0 g     F .text	0000003c altera_avalon_fifo_read_status
000284cc g     O .bss	00000004 vgatext_cur_y
00021310 g     F .text	000000b4 _vsnprintf_r
000225ec g     F .text	0000002c altera_avalon_fifo_read_other_info
000270f4 g     F .text	00000108 alt_find_file
0002107c g     F .text	000000c4 nvm_write
00026784 g     F .text	000000a8 alt_dev_llist_insert
00021558 g     F .text	0000050c ___svfprintf_internal_r
00023228 g     F .text	0000013c alt_avalon_i2c_interrupt_transaction_status
00023190 g     F .text	0000004c alt_avalon_i2c_check_nack
000284d0 g     O .bss	00000004 tx_dma
00027624 g     F .text	000000a8 __sfvwrite_small_dev
000284c4 g       *ABS*	00000000 __bss_start
00026180 g     F .text	00000058 alt_msgdma_open
00021140 g     F .text	000001a8 main
00028090 g     O .rwdata	00000006 er_cmd
0002315c g     F .text	00000034 alt_avalon_i2c_master_target_set
000284f0 g     O .bss	00000004 alt_envp
00025964 g     F .text	00000198 alt_msgdma_prefetcher_add_extended_desc_to_list
000242cc g     F .text	00000060 altera_avalon_jtag_uart_write_fd
000222ec g     F .text	00000028 altera_avalon_fifo_read_level
00023f74 g     F .text	00000044 alt_avalon_i2c_int_raw_status_get
00025d58 g     F .text	000002c8 alt_msgdma_start_prefetcher_with_list_addr
000280c8 g     O .rwdata	00000004 alt_errno
000257bc g     F .text	000000b8 alt_msgdma_construct_prefetcher_extended_mm_to_mm_descriptor
00027580 g     F .text	00000050 putc
00021a98 g     F .text	00000080 .hidden __divsi3
00027894 g       *ABS*	00000000 __CTOR_END__
00027894 g       *ABS*	00000000 __flash_rodata_start
00027894 g       *ABS*	00000000 __DTOR_LIST__
00020a9c g     F .text	00000108 erase_gp_rom_block
00050000 g       *ABS*	00000000 __alt_mem_textram
000220a0 g     F .text	0000003c alt_irq_init
00027060 g     F .text	00000070 alt_release_fd
0002640c g     F .text	0000003c alt_msgdma_standard_descriptor_sync_transfer
000272b4 g     F .text	00000014 atexit
000276cc g     F .text	00000050 _write_r
00025724 g     F .text	00000098 alt_msgdma_construct_prefetcher_extended_mm_to_st_descriptor
00028088 g     O .rwdata	00000004 textram
0002809c g     O .rwdata	00000004 _impure_ptr
000284e8 g     O .bss	00000004 alt_argc
00026890 g     F .text	00000064 _do_dtors
00023124 g     F .text	00000038 alt_avalon_i2c_master_target_get
00023034 g     F .text	000000f0 alt_avalon_i2c_send_address
00020020 g       .exceptions	00000000 alt_irq_entry
000280b4 g     O .rwdata	00000008 alt_fs_list
00021a64 g     F .text	00000018 __vfprintf_internal_unused
00027cfa g     O .rwdata	00000024 wr_cmd
00020020 g       *ABS*	00000000 __ram_exceptions_start
00024208 g     F .text	00000064 alt_avalon_i2c_tfr_cmd_fifo_threshold_set
000207a4 g     F .text	00000230 read_gp_rom
0002258c g     F .text	00000060 altera_avalon_fifo_write_other_info
00022a58 g     F .text	0000004c alt_avalon_i2c_disable
00021c6c g     F .text	00000050 alt_ic_isr_register
000280cc g       *ABS*	00000000 _edata
000287b0 g       *ABS*	00000000 _end
00028500 g     O .bss	00000080 kxlog_buffer
00020224 g       *ABS*	00000000 __ram_exceptions_end
00022aa4 g     F .text	000000b0 alt_avalon_i2c_master_config_get
00020a00 g     F .text	0000002c erase_gp_eeprom
00021d44 g     F .text	0000008c alt_ic_irq_disable
000284c8 g     O .bss	00000004 vgatext_cur_x
000272c8 g     F .text	00000020 exit
00025afc g     F .text	00000110 alt_msgdma_prefetcher_set_std_list_own_by_hw_bits
00021b18 g     F .text	00000074 .hidden __modsi3
0002221c g     F .text	0000003c altera_avalon_fifo_read_ienable
0002a000 g       *ABS*	00000000 __alt_data_end
00020020 g     F .exceptions	00000000 alt_exception
0002529c g     F .text	000000a8 alt_msgdma_construct_extended_mm_to_mm_descriptor
00022cb4 g     F .text	000000fc alt_avalon_i2c_master_config_speed_set
00022f48 g     F .text	000000ec alt_avalon_i2c_cmd_write
0002517c g     F .text	00000090 alt_msgdma_construct_extended_st_to_mm_descriptor
0002771c g     F .text	00000038 _exit
00022258 g     F .text	0000002c altera_avalon_fifo_read_almostfull
00028590 g     O .bss	00000010 rd_desc
000280ac g     O .rwdata	00000008 alt_msgdma_list
00021a7c g     F .text	0000001c strlen
00026ca4 g     F .text	00000160 open
000224d4 g     F .text	0000006c altera_avalon_read_fifo
00027030 g     F .text	00000030 alt_putchar
000284c4 g     O .bss	00000004 stop
000285a0 g     O .bss	00000010 er_desc
00026984 g     F .text	00000020 alt_icache_flush_all
000280a0 g     O .rwdata	00000004 alt_priority_mask
00021cbc g     F .text	00000088 alt_ic_irq_enable
00022424 g     F .text	00000058 altera_avalon_fifo_write_almostempty
0002682c g     F .text	00000064 _do_ctors
00026618 g     F .text	000000dc close
000284e0 g     O .bss	00000004 fifo_status
000241bc g     F .text	0000004c alt_avalon_i2c_tfr_cmd_fifo_threshold_get
00021f6c g     F .text	00000084 alt_load
0002344c g     F .text	0000013c alt_avalon_i2c_master_rx



Disassembly of section .entry:

00020000 <__reset>:
   20000:	004000b4 	movhi	at,2
   20004:	08408914 	ori	at,at,548
   20008:	0800683a 	jmp	at
	...

Disassembly of section .exceptions:

00020020 <alt_exception>:
   20020:	deffed04 	addi	sp,sp,-76
   20024:	dfc00015 	stw	ra,0(sp)
   20028:	d8400215 	stw	at,8(sp)
   2002c:	d8800315 	stw	r2,12(sp)
   20030:	d8c00415 	stw	r3,16(sp)
   20034:	d9000515 	stw	r4,20(sp)
   20038:	d9400615 	stw	r5,24(sp)
   2003c:	d9800715 	stw	r6,28(sp)
   20040:	d9c00815 	stw	r7,32(sp)
   20044:	000b307a 	rdctl	r5,estatus
   20048:	da000915 	stw	r8,36(sp)
   2004c:	da400a15 	stw	r9,40(sp)
   20050:	da800b15 	stw	r10,44(sp)
   20054:	dac00c15 	stw	r11,48(sp)
   20058:	db000d15 	stw	r12,52(sp)
   2005c:	db400e15 	stw	r13,56(sp)
   20060:	db800f15 	stw	r14,60(sp)
   20064:	dbc01015 	stw	r15,64(sp)
   20068:	d9401115 	stw	r5,68(sp)
   2006c:	ebffff04 	addi	r15,ea,-4
   20070:	dbc01215 	stw	r15,72(sp)
   20074:	0009313a 	rdctl	r4,ipending
   20078:	2880004c 	andi	r2,r5,1
   2007c:	10000326 	beq	r2,zero,2008c <alt_exception+0x6c>
   20080:	20000226 	beq	r4,zero,2008c <alt_exception+0x6c>
   20084:	00200fc0 	call	200fc <alt_irq_handler>
   20088:	00000706 	br	200a8 <alt_exception+0x88>
   2008c:	df401215 	stw	ea,72(sp)
   20090:	e8bfff17 	ldw	r2,-4(ea)
   20094:	e93fff04 	addi	r4,ea,-4
   20098:	00201c40 	call	201c4 <alt_instruction_exception_entry>
   2009c:	1000021e 	bne	r2,zero,200a8 <alt_exception+0x88>
   200a0:	ebffff04 	addi	r15,ea,-4
   200a4:	dbc01215 	stw	r15,72(sp)
   200a8:	d9401117 	ldw	r5,68(sp)
   200ac:	df401217 	ldw	ea,72(sp)
   200b0:	dfc00017 	ldw	ra,0(sp)
   200b4:	2801707a 	wrctl	estatus,r5
   200b8:	d8400217 	ldw	at,8(sp)
   200bc:	d8800317 	ldw	r2,12(sp)
   200c0:	d8c00417 	ldw	r3,16(sp)
   200c4:	d9000517 	ldw	r4,20(sp)
   200c8:	d9400617 	ldw	r5,24(sp)
   200cc:	d9800717 	ldw	r6,28(sp)
   200d0:	d9c00817 	ldw	r7,32(sp)
   200d4:	da000917 	ldw	r8,36(sp)
   200d8:	da400a17 	ldw	r9,40(sp)
   200dc:	da800b17 	ldw	r10,44(sp)
   200e0:	dac00c17 	ldw	r11,48(sp)
   200e4:	db000d17 	ldw	r12,52(sp)
   200e8:	db400e17 	ldw	r13,56(sp)
   200ec:	db800f17 	ldw	r14,60(sp)
   200f0:	dbc01017 	ldw	r15,64(sp)
   200f4:	dec01304 	addi	sp,sp,76
   200f8:	ef80083a 	eret

000200fc <alt_irq_handler>:
   200fc:	defff904 	addi	sp,sp,-28
   20100:	dfc00615 	stw	ra,24(sp)
   20104:	df000515 	stw	fp,20(sp)
   20108:	df000504 	addi	fp,sp,20
   2010c:	0001883a 	nop
   20110:	0005313a 	rdctl	r2,ipending
   20114:	e0bffc15 	stw	r2,-16(fp)
   20118:	e0bffc17 	ldw	r2,-16(fp)
   2011c:	e0bfff15 	stw	r2,-4(fp)
   20120:	e03ffd15 	stw	zero,-12(fp)
   20124:	00800044 	movi	r2,1
   20128:	e0bffe15 	stw	r2,-8(fp)
   2012c:	e0ffff17 	ldw	r3,-4(fp)
   20130:	e0bffe17 	ldw	r2,-8(fp)
   20134:	1884703a 	and	r2,r3,r2
   20138:	10001126 	beq	r2,zero,20180 <alt_irq_handler+0x84>
   2013c:	e0bffd17 	ldw	r2,-12(fp)
   20140:	100690fa 	slli	r3,r2,3
   20144:	008000f4 	movhi	r2,3
   20148:	1885883a 	add	r2,r3,r2
   2014c:	10e1ac17 	ldw	r3,-31056(r2)
   20150:	e0bffd17 	ldw	r2,-12(fp)
   20154:	100890fa 	slli	r4,r2,3
   20158:	008000f4 	movhi	r2,3
   2015c:	2085883a 	add	r2,r4,r2
   20160:	10a1ad17 	ldw	r2,-31052(r2)
   20164:	1009883a 	mov	r4,r2
   20168:	183ee83a 	callr	r3
   2016c:	0001883a 	nop
   20170:	0005313a 	rdctl	r2,ipending
   20174:	e0bffb15 	stw	r2,-20(fp)
   20178:	e0bffb17 	ldw	r2,-20(fp)
   2017c:	00000706 	br	2019c <alt_irq_handler+0xa0>
   20180:	e0bffe17 	ldw	r2,-8(fp)
   20184:	1085883a 	add	r2,r2,r2
   20188:	e0bffe15 	stw	r2,-8(fp)
   2018c:	e0bffd17 	ldw	r2,-12(fp)
   20190:	10800044 	addi	r2,r2,1
   20194:	e0bffd15 	stw	r2,-12(fp)
   20198:	003fe406 	br	2012c <alt_irq_handler+0x30>
   2019c:	e0bfff15 	stw	r2,-4(fp)
   201a0:	e0bfff17 	ldw	r2,-4(fp)
   201a4:	103fde1e 	bne	r2,zero,20120 <alt_irq_handler+0x24>
   201a8:	0001883a 	nop
   201ac:	0001883a 	nop
   201b0:	e037883a 	mov	sp,fp
   201b4:	dfc00117 	ldw	ra,4(sp)
   201b8:	df000017 	ldw	fp,0(sp)
   201bc:	dec00204 	addi	sp,sp,8
   201c0:	f800283a 	ret

000201c4 <alt_instruction_exception_entry>:
   201c4:	defffb04 	addi	sp,sp,-20
   201c8:	dfc00415 	stw	ra,16(sp)
   201cc:	df000315 	stw	fp,12(sp)
   201d0:	df000304 	addi	fp,sp,12
   201d4:	e13ffd15 	stw	r4,-12(fp)
   201d8:	00bfffc4 	movi	r2,-1
   201dc:	e0bfff15 	stw	r2,-4(fp)
   201e0:	e03ffe15 	stw	zero,-8(fp)
   201e4:	d0a11b17 	ldw	r2,-31636(gp)
   201e8:	10000726 	beq	r2,zero,20208 <alt_instruction_exception_entry+0x44>
   201ec:	d0a11b17 	ldw	r2,-31636(gp)
   201f0:	e0ffff17 	ldw	r3,-4(fp)
   201f4:	e1bffe17 	ldw	r6,-8(fp)
   201f8:	e17ffd17 	ldw	r5,-12(fp)
   201fc:	1809883a 	mov	r4,r3
   20200:	103ee83a 	callr	r2
   20204:	00000206 	br	20210 <alt_instruction_exception_entry+0x4c>
   20208:	003da03a 	break	0
   2020c:	0005883a 	mov	r2,zero
   20210:	e037883a 	mov	sp,fp
   20214:	dfc00117 	ldw	ra,4(sp)
   20218:	df000017 	ldw	fp,0(sp)
   2021c:	dec00204 	addi	sp,sp,8
   20220:	f800283a 	ret

Disassembly of section .text:

00020224 <_start>:
   20224:	06c000b4 	movhi	sp,2
   20228:	dee80014 	ori	sp,sp,40960
   2022c:	068000f4 	movhi	gp,3
   20230:	d6802214 	ori	gp,gp,136
   20234:	008000b4 	movhi	r2,2
   20238:	10a13114 	ori	r2,r2,33988
   2023c:	00c000b4 	movhi	r3,2
   20240:	18e1ec14 	ori	r3,r3,34736
   20244:	10c00326 	beq	r2,r3,20254 <_start+0x30>
   20248:	10000015 	stw	zero,0(r2)
   2024c:	10800104 	addi	r2,r2,4
   20250:	10fffd36 	bltu	r2,r3,20248 <_start+0x24>
   20254:	0021f6c0 	call	21f6c <alt_load>
   20258:	0021ff00 	call	21ff0 <alt_main>

0002025c <alt_after_alt_main>:
   2025c:	003fff06 	br	2025c <alt_after_alt_main>

00020260 <wait_msec>:
   20260:	defffb04 	addi	sp,sp,-20
   20264:	dfc00415 	stw	ra,16(sp)
   20268:	df000315 	stw	fp,12(sp)
   2026c:	df000304 	addi	fp,sp,12
   20270:	e13ffd15 	stw	r4,-12(fp)
   20274:	0140fa04 	movi	r5,1000
   20278:	e13ffd17 	ldw	r4,-12(fp)
   2027c:	00212e80 	call	212e8 <__mulsi3>
   20280:	e0bffe15 	stw	r2,-8(fp)
   20284:	e03fff15 	stw	zero,-4(fp)
   20288:	00000406 	br	2029c <wait_msec+0x3c>
   2028c:	0001883a 	nop
   20290:	e0bfff17 	ldw	r2,-4(fp)
   20294:	10800044 	addi	r2,r2,1
   20298:	e0bfff15 	stw	r2,-4(fp)
   2029c:	e0ffff17 	ldw	r3,-4(fp)
   202a0:	e0bffe17 	ldw	r2,-8(fp)
   202a4:	18bff936 	bltu	r3,r2,2028c <wait_msec+0x2c>
   202a8:	0001883a 	nop
   202ac:	0001883a 	nop
   202b0:	e037883a 	mov	sp,fp
   202b4:	dfc00117 	ldw	ra,4(sp)
   202b8:	df000017 	ldw	fp,0(sp)
   202bc:	dec00204 	addi	sp,sp,8
   202c0:	f800283a 	ret

000202c4 <kxlog>:
   202c4:	defff604 	addi	sp,sp,-40
   202c8:	dfc00615 	stw	ra,24(sp)
   202cc:	df000515 	stw	fp,20(sp)
   202d0:	df000504 	addi	fp,sp,20
   202d4:	e13ffb15 	stw	r4,-20(fp)
   202d8:	e1400215 	stw	r5,8(fp)
   202dc:	e1800315 	stw	r6,12(fp)
   202e0:	e1c00415 	stw	r7,16(fp)
   202e4:	e0800204 	addi	r2,fp,8
   202e8:	e0bffc15 	stw	r2,-16(fp)
   202ec:	e0bffc17 	ldw	r2,-16(fp)
   202f0:	100f883a 	mov	r7,r2
   202f4:	e1bffb17 	ldw	r6,-20(fp)
   202f8:	01402004 	movi	r5,128
   202fc:	010000f4 	movhi	r4,3
   20300:	21214004 	addi	r4,r4,-31488
   20304:	00213c40 	call	213c4 <vsnprintf>
   20308:	e0bffd15 	stw	r2,-12(fp)
   2030c:	e0bffd17 	ldw	r2,-12(fp)
   20310:	10005e16 	blt	r2,zero,2048c <kxlog+0x1c8>
   20314:	e0bffd17 	ldw	r2,-12(fp)
   20318:	10802050 	cmplti	r2,r2,129
   2031c:	10005b26 	beq	r2,zero,2048c <kxlog+0x1c8>
   20320:	e0fffd17 	ldw	r3,-12(fp)
   20324:	008000f4 	movhi	r2,3
   20328:	1885883a 	add	r2,r3,r2
   2032c:	10214005 	stb	zero,-31488(r2)
   20330:	e03fff15 	stw	zero,-4(fp)
   20334:	00005106 	br	2047c <kxlog+0x1b8>
   20338:	e0ffff17 	ldw	r3,-4(fp)
   2033c:	008000f4 	movhi	r2,3
   20340:	1885883a 	add	r2,r3,r2
   20344:	10a14003 	ldbu	r2,-31488(r2)
   20348:	10803fcc 	andi	r2,r2,255
   2034c:	1080201c 	xori	r2,r2,128
   20350:	10bfe004 	addi	r2,r2,-128
   20354:	108002a0 	cmpeqi	r2,r2,10
   20358:	1000091e 	bne	r2,zero,20380 <kxlog+0xbc>
   2035c:	e0ffff17 	ldw	r3,-4(fp)
   20360:	008000f4 	movhi	r2,3
   20364:	1885883a 	add	r2,r3,r2
   20368:	10a14003 	ldbu	r2,-31488(r2)
   2036c:	10803fcc 	andi	r2,r2,255
   20370:	1080201c 	xori	r2,r2,128
   20374:	10bfe004 	addi	r2,r2,-128
   20378:	10800358 	cmpnei	r2,r2,13
   2037c:	1000051e 	bne	r2,zero,20394 <kxlog+0xd0>
   20380:	d0211015 	stw	zero,-31680(gp)
   20384:	d0a11117 	ldw	r2,-31676(gp)
   20388:	10800044 	addi	r2,r2,1
   2038c:	d0a11115 	stw	r2,-31676(gp)
   20390:	00000f06 	br	203d0 <kxlog+0x10c>
   20394:	e0ffff17 	ldw	r3,-4(fp)
   20398:	008000f4 	movhi	r2,3
   2039c:	1885883a 	add	r2,r3,r2
   203a0:	11614003 	ldbu	r5,-31488(r2)
   203a4:	d0e00017 	ldw	r3,-32768(gp)
   203a8:	d0a11117 	ldw	r2,-31676(gp)
   203ac:	10800fcc 	andi	r2,r2,63
   203b0:	100491fa 	slli	r2,r2,7
   203b4:	1887883a 	add	r3,r3,r2
   203b8:	d0a11017 	ldw	r2,-31680(gp)
   203bc:	11000044 	addi	r4,r2,1
   203c0:	d1211015 	stw	r4,-31680(gp)
   203c4:	2809883a 	mov	r4,r5
   203c8:	1885883a 	add	r2,r3,r2
   203cc:	11000005 	stb	r4,0(r2)
   203d0:	d0a11017 	ldw	r2,-31680(gp)
   203d4:	10801830 	cmpltui	r2,r2,96
   203d8:	1000041e 	bne	r2,zero,203ec <kxlog+0x128>
   203dc:	d0211015 	stw	zero,-31680(gp)
   203e0:	d0a11117 	ldw	r2,-31676(gp)
   203e4:	10800044 	addi	r2,r2,1
   203e8:	d0a11115 	stw	r2,-31676(gp)
   203ec:	d0a11117 	ldw	r2,-31676(gp)
   203f0:	10800930 	cmpltui	r2,r2,36
   203f4:	1000081e 	bne	r2,zero,20418 <kxlog+0x154>
   203f8:	d0a11117 	ldw	r2,-31676(gp)
   203fc:	10bff744 	addi	r2,r2,-35
   20400:	1007883a 	mov	r3,r2
   20404:	00800134 	movhi	r2,4
   20408:	10840804 	addi	r2,r2,4128
   2040c:	18c00fcc 	andi	r3,r3,63
   20410:	10c00005 	stb	r3,0(r2)
   20414:	00000306 	br	20424 <kxlog+0x160>
   20418:	00800134 	movhi	r2,4
   2041c:	10840804 	addi	r2,r2,4128
   20420:	10000005 	stb	zero,0(r2)
   20424:	d0a11017 	ldw	r2,-31680(gp)
   20428:	1000111e 	bne	r2,zero,20470 <kxlog+0x1ac>
   2042c:	e03ffe15 	stw	zero,-8(fp)
   20430:	00000c06 	br	20464 <kxlog+0x1a0>
   20434:	d0e00017 	ldw	r3,-32768(gp)
   20438:	d0a11117 	ldw	r2,-31676(gp)
   2043c:	10800fcc 	andi	r2,r2,63
   20440:	100491fa 	slli	r2,r2,7
   20444:	1887883a 	add	r3,r3,r2
   20448:	e0bffe17 	ldw	r2,-8(fp)
   2044c:	1885883a 	add	r2,r3,r2
   20450:	00c00804 	movi	r3,32
   20454:	10c00005 	stb	r3,0(r2)
   20458:	e0bffe17 	ldw	r2,-8(fp)
   2045c:	10800044 	addi	r2,r2,1
   20460:	e0bffe15 	stw	r2,-8(fp)
   20464:	e0bffe17 	ldw	r2,-8(fp)
   20468:	10802010 	cmplti	r2,r2,128
   2046c:	103ff11e 	bne	r2,zero,20434 <kxlog+0x170>
   20470:	e0bfff17 	ldw	r2,-4(fp)
   20474:	10800044 	addi	r2,r2,1
   20478:	e0bfff15 	stw	r2,-4(fp)
   2047c:	e0ffff17 	ldw	r3,-4(fp)
   20480:	e0bffd17 	ldw	r2,-12(fp)
   20484:	18bfac16 	blt	r3,r2,20338 <kxlog+0x74>
   20488:	00000106 	br	20490 <kxlog+0x1cc>
   2048c:	0001883a 	nop
   20490:	e037883a 	mov	sp,fp
   20494:	dfc00117 	ldw	ra,4(sp)
   20498:	df000017 	ldw	fp,0(sp)
   2049c:	dec00504 	addi	sp,sp,20
   204a0:	f800283a 	ret

000204a4 <fifo_callback>:
   204a4:	defff804 	addi	sp,sp,-32
   204a8:	dfc00715 	stw	ra,28(sp)
   204ac:	df000615 	stw	fp,24(sp)
   204b0:	df000604 	addi	fp,sp,24
   204b4:	e13ffa15 	stw	r4,-24(fp)
   204b8:	e0bffa17 	ldw	r2,-24(fp)
   204bc:	e0bfff15 	stw	r2,-4(fp)
   204c0:	0005303a 	rdctl	r2,status
   204c4:	e0bffc15 	stw	r2,-16(fp)
   204c8:	e0fffc17 	ldw	r3,-16(fp)
   204cc:	00bfff84 	movi	r2,-2
   204d0:	1884703a 	and	r2,r3,r2
   204d4:	1001703a 	wrctl	status,r2
   204d8:	e0bffc17 	ldw	r2,-16(fp)
   204dc:	e0bffe15 	stw	r2,-8(fp)
   204e0:	01400fc4 	movi	r5,63
   204e4:	e13fff17 	ldw	r4,-4(fp)
   204e8:	00221e00 	call	221e0 <altera_avalon_fifo_read_status>
   204ec:	e0bffd15 	stw	r2,-12(fp)
   204f0:	e0bffd17 	ldw	r2,-12(fp)
   204f4:	1080014c 	andi	r2,r2,5
   204f8:	10000226 	beq	r2,zero,20504 <fifo_callback+0x60>
   204fc:	00bfffc4 	movi	r2,-1
   20500:	d0a10f15 	stw	r2,-31684(gp)
   20504:	e0bffd17 	ldw	r2,-12(fp)
   20508:	100b883a 	mov	r5,r2
   2050c:	e13fff17 	ldw	r4,-4(fp)
   20510:	00223140 	call	22314 <altera_avalon_fifo_clear_event>
   20514:	e0bffe17 	ldw	r2,-8(fp)
   20518:	e0bffb15 	stw	r2,-20(fp)
   2051c:	e0bffb17 	ldw	r2,-20(fp)
   20520:	1001703a 	wrctl	status,r2
   20524:	0001883a 	nop
   20528:	0001883a 	nop
   2052c:	e037883a 	mov	sp,fp
   20530:	dfc00117 	ldw	ra,4(sp)
   20534:	df000017 	ldw	fp,0(sp)
   20538:	dec00204 	addi	sp,sp,8
   2053c:	f800283a 	ret

00020540 <i2c_callback>:
   20540:	defff804 	addi	sp,sp,-32
   20544:	dfc00715 	stw	ra,28(sp)
   20548:	df000615 	stw	fp,24(sp)
   2054c:	df000604 	addi	fp,sp,24
   20550:	e13ffa15 	stw	r4,-24(fp)
   20554:	e0bffa17 	ldw	r2,-24(fp)
   20558:	e0bfff15 	stw	r2,-4(fp)
   2055c:	0005303a 	rdctl	r2,status
   20560:	e0bffc15 	stw	r2,-16(fp)
   20564:	e0fffc17 	ldw	r3,-16(fp)
   20568:	00bfff84 	movi	r2,-2
   2056c:	1884703a 	and	r2,r3,r2
   20570:	1001703a 	wrctl	status,r2
   20574:	e0bffc17 	ldw	r2,-16(fp)
   20578:	e0bffe15 	stw	r2,-8(fp)
   2057c:	e0bffb04 	addi	r2,fp,-20
   20580:	100b883a 	mov	r5,r2
   20584:	e13fff17 	ldw	r4,-4(fp)
   20588:	0023f1c0 	call	23f1c <alt_avalon_i2c_int_status_get>
   2058c:	e0bffb17 	ldw	r2,-20(fp)
   20590:	100b883a 	mov	r5,r2
   20594:	010000b4 	movhi	r4,2
   20598:	211e2504 	addi	r4,r4,30868
   2059c:	00202c40 	call	202c4 <kxlog>
   205a0:	014007c4 	movi	r5,31
   205a4:	e13fff17 	ldw	r4,-4(fp)
   205a8:	0023ff40 	call	23ff4 <alt_avalon_i2c_int_disable>
   205ac:	01400704 	movi	r5,28
   205b0:	e13fff17 	ldw	r4,-4(fp)
   205b4:	0023fb80 	call	23fb8 <alt_avalon_i2c_int_clear>
   205b8:	e13fff17 	ldw	r4,-4(fp)
   205bc:	00229c00 	call	229c0 <alt_avalon_i2c_enable>
   205c0:	e0bffe17 	ldw	r2,-8(fp)
   205c4:	e0bffd15 	stw	r2,-12(fp)
   205c8:	e0bffd17 	ldw	r2,-12(fp)
   205cc:	1001703a 	wrctl	status,r2
   205d0:	0001883a 	nop
   205d4:	0001883a 	nop
   205d8:	e037883a 	mov	sp,fp
   205dc:	dfc00117 	ldw	ra,4(sp)
   205e0:	df000017 	ldw	fp,0(sp)
   205e4:	dec00204 	addi	sp,sp,8
   205e8:	f800283a 	ret

000205ec <init>:
   205ec:	defffb04 	addi	sp,sp,-20
   205f0:	dfc00415 	stw	ra,16(sp)
   205f4:	df000315 	stw	fp,12(sp)
   205f8:	df000304 	addi	fp,sp,12
   205fc:	e03fff15 	stw	zero,-4(fp)
   20600:	00001306 	br	20650 <init+0x64>
   20604:	e03ffe15 	stw	zero,-8(fp)
   20608:	00000b06 	br	20638 <init+0x4c>
   2060c:	d0e00017 	ldw	r3,-32768(gp)
   20610:	e0bfff17 	ldw	r2,-4(fp)
   20614:	100491fa 	slli	r2,r2,7
   20618:	1887883a 	add	r3,r3,r2
   2061c:	e0bffe17 	ldw	r2,-8(fp)
   20620:	1885883a 	add	r2,r3,r2
   20624:	00c00804 	movi	r3,32
   20628:	10c00005 	stb	r3,0(r2)
   2062c:	e0bffe17 	ldw	r2,-8(fp)
   20630:	10800044 	addi	r2,r2,1
   20634:	e0bffe15 	stw	r2,-8(fp)
   20638:	e0bffe17 	ldw	r2,-8(fp)
   2063c:	10802010 	cmplti	r2,r2,128
   20640:	103ff21e 	bne	r2,zero,2060c <init+0x20>
   20644:	e0bfff17 	ldw	r2,-4(fp)
   20648:	10800044 	addi	r2,r2,1
   2064c:	e0bfff15 	stw	r2,-4(fp)
   20650:	e0bfff17 	ldw	r2,-4(fp)
   20654:	10801010 	cmplti	r2,r2,64
   20658:	103fea1e 	bne	r2,zero,20604 <init+0x18>
   2065c:	010000b4 	movhi	r4,2
   20660:	211e2d04 	addi	r4,r4,30900
   20664:	00229800 	call	22980 <alt_avalon_i2c_open>
   20668:	d0a11415 	stw	r2,-31664(gp)
   2066c:	d0a11417 	ldw	r2,-31664(gp)
   20670:	1000051e 	bne	r2,zero,20688 <init+0x9c>
   20674:	010000b4 	movhi	r4,2
   20678:	211e3004 	addi	r4,r4,30912
   2067c:	00202c40 	call	202c4 <kxlog>
   20680:	0005883a 	mov	r2,zero
   20684:	00004206 	br	20790 <init+0x1a4>
   20688:	d0a11417 	ldw	r2,-31664(gp)
   2068c:	1009883a 	mov	r4,r2
   20690:	00228940 	call	22894 <alt_avalon_i2c_init>
   20694:	d0a11417 	ldw	r2,-31664(gp)
   20698:	10c00417 	ldw	r3,16(r2)
   2069c:	d0a11417 	ldw	r2,-31664(gp)
   206a0:	10800517 	ldw	r2,20(r2)
   206a4:	d1211417 	ldw	r4,-31664(gp)
   206a8:	d8000015 	stw	zero,0(sp)
   206ac:	200f883a 	mov	r7,r4
   206b0:	018000b4 	movhi	r6,2
   206b4:	31815004 	addi	r6,r6,1344
   206b8:	100b883a 	mov	r5,r2
   206bc:	1809883a 	mov	r4,r3
   206c0:	0021c6c0 	call	21c6c <alt_ic_isr_register>
   206c4:	d0a11417 	ldw	r2,-31664(gp)
   206c8:	01400704 	movi	r5,28
   206cc:	1009883a 	mov	r4,r2
   206d0:	00240600 	call	24060 <alt_avalon_i2c_int_enable>
   206d4:	d0a11417 	ldw	r2,-31664(gp)
   206d8:	1009883a 	mov	r4,r2
   206dc:	00229c00 	call	229c0 <alt_avalon_i2c_enable>
   206e0:	d0a11515 	stw	r2,-31660(gp)
   206e4:	d0a11517 	ldw	r2,-31660(gp)
   206e8:	10000526 	beq	r2,zero,20700 <init+0x114>
   206ec:	010000b4 	movhi	r4,2
   206f0:	211e3704 	addi	r4,r4,30940
   206f4:	00202c40 	call	202c4 <kxlog>
   206f8:	0005883a 	mov	r2,zero
   206fc:	00002406 	br	20790 <init+0x1a4>
   20700:	01c00284 	movi	r7,10
   20704:	01800044 	movi	r6,1
   20708:	01400144 	movi	r5,5
   2070c:	01000134 	movhi	r4,4
   20710:	211c0004 	addi	r4,r4,28672
   20714:	00221480 	call	22148 <altera_avalon_fifo_init>
   20718:	d0a11615 	stw	r2,-31656(gp)
   2071c:	d0a11617 	ldw	r2,-31656(gp)
   20720:	10000726 	beq	r2,zero,20740 <init+0x154>
   20724:	d0a11617 	ldw	r2,-31656(gp)
   20728:	100b883a 	mov	r5,r2
   2072c:	010000b4 	movhi	r4,2
   20730:	211e3f04 	addi	r4,r4,30972
   20734:	00202c40 	call	202c4 <kxlog>
   20738:	0005883a 	mov	r2,zero
   2073c:	00001406 	br	20790 <init+0x1a4>
   20740:	d8000015 	stw	zero,0(sp)
   20744:	01c00134 	movhi	r7,4
   20748:	39dc0004 	addi	r7,r7,28672
   2074c:	018000b4 	movhi	r6,2
   20750:	31812904 	addi	r6,r6,1188
   20754:	01400044 	movi	r5,1
   20758:	0009883a 	mov	r4,zero
   2075c:	0021c6c0 	call	21c6c <alt_ic_isr_register>
   20760:	010000b4 	movhi	r4,2
   20764:	211e4604 	addi	r4,r4,31000
   20768:	00261800 	call	26180 <alt_msgdma_open>
   2076c:	d0a11215 	stw	r2,-31672(gp)
   20770:	d0a11217 	ldw	r2,-31672(gp)
   20774:	1000051e 	bne	r2,zero,2078c <init+0x1a0>
   20778:	010000b4 	movhi	r4,2
   2077c:	211e4b04 	addi	r4,r4,31020
   20780:	00202c40 	call	202c4 <kxlog>
   20784:	0005883a 	mov	r2,zero
   20788:	00000106 	br	20790 <init+0x1a4>
   2078c:	00bfffc4 	movi	r2,-1
   20790:	e037883a 	mov	sp,fp
   20794:	dfc00117 	ldw	ra,4(sp)
   20798:	df000017 	ldw	fp,0(sp)
   2079c:	dec00204 	addi	sp,sp,8
   207a0:	f800283a 	ret

000207a4 <read_gp_rom>:
   207a4:	defff604 	addi	sp,sp,-40
   207a8:	dfc00915 	stw	ra,36(sp)
   207ac:	df000815 	stw	fp,32(sp)
   207b0:	df000804 	addi	fp,sp,32
   207b4:	2005883a 	mov	r2,r4
   207b8:	e17ff915 	stw	r5,-28(fp)
   207bc:	e0bffa05 	stb	r2,-24(fp)
   207c0:	e03fff15 	stw	zero,-4(fp)
   207c4:	00007a06 	br	209b0 <read_gp_rom+0x20c>
   207c8:	e0bffa03 	ldbu	r2,-24(fp)
   207cc:	1085883a 	add	r2,r2,r2
   207d0:	1007883a 	mov	r3,r2
   207d4:	008000b4 	movhi	r2,2
   207d8:	10df3545 	stb	r3,31957(r2)
   207dc:	e0bffa03 	ldbu	r2,-24(fp)
   207e0:	1085883a 	add	r2,r2,r2
   207e4:	10800044 	addi	r2,r2,1
   207e8:	1007883a 	mov	r3,r2
   207ec:	008000b4 	movhi	r2,2
   207f0:	10df3645 	stb	r3,31961(r2)
   207f4:	e0bfff17 	ldw	r2,-4(fp)
   207f8:	1004913a 	slli	r2,r2,4
   207fc:	1007883a 	mov	r3,r2
   20800:	008000b4 	movhi	r2,2
   20804:	10df35c5 	stb	r3,31959(r2)
   20808:	0021c4c0 	call	21c4c <alt_dcache_flush_all>
   2080c:	d0e11217 	ldw	r3,-31672(gp)
   20810:	00900004 	movi	r2,16384
   20814:	d8800015 	stw	r2,0(sp)
   20818:	01c00984 	movi	r7,38
   2081c:	018000b4 	movhi	r6,2
   20820:	319f3504 	addi	r6,r6,31956
   20824:	014000f4 	movhi	r5,3
   20828:	29616404 	addi	r5,r5,-31344
   2082c:	1809883a 	mov	r4,r3
   20830:	00250cc0 	call	250cc <alt_msgdma_construct_standard_mm_to_st_descriptor>
   20834:	d0a11315 	stw	r2,-31668(gp)
   20838:	d0a11317 	ldw	r2,-31668(gp)
   2083c:	10bffa98 	cmpnei	r2,r2,-22
   20840:	1000031e 	bne	r2,zero,20850 <read_gp_rom+0xac>
   20844:	010000b4 	movhi	r4,2
   20848:	211e5204 	addi	r4,r4,31048
   2084c:	00202c40 	call	202c4 <kxlog>
   20850:	d0a11317 	ldw	r2,-31668(gp)
   20854:	10000826 	beq	r2,zero,20878 <read_gp_rom+0xd4>
   20858:	d0a11317 	ldw	r2,-31668(gp)
   2085c:	e1bfff17 	ldw	r6,-4(fp)
   20860:	100b883a 	mov	r5,r2
   20864:	010000b4 	movhi	r4,2
   20868:	211e5404 	addi	r4,r4,31056
   2086c:	00202c40 	call	202c4 <kxlog>
   20870:	0005883a 	mov	r2,zero
   20874:	00005206 	br	209c0 <read_gp_rom+0x21c>
   20878:	d0a11217 	ldw	r2,-31672(gp)
   2087c:	014000f4 	movhi	r5,3
   20880:	29616404 	addi	r5,r5,-31344
   20884:	1009883a 	mov	r4,r2
   20888:	002640c0 	call	2640c <alt_msgdma_standard_descriptor_sync_transfer>
   2088c:	d0a11315 	stw	r2,-31668(gp)
   20890:	d0a11317 	ldw	r2,-31668(gp)
   20894:	10000726 	beq	r2,zero,208b4 <read_gp_rom+0x110>
   20898:	d0a11317 	ldw	r2,-31668(gp)
   2089c:	100b883a 	mov	r5,r2
   208a0:	010000b4 	movhi	r4,2
   208a4:	211e5d04 	addi	r4,r4,31092
   208a8:	00202c40 	call	202c4 <kxlog>
   208ac:	0005883a 	mov	r2,zero
   208b0:	00004306 	br	209c0 <read_gp_rom+0x21c>
   208b4:	e03ffd15 	stw	zero,-12(fp)
   208b8:	00000906 	br	208e0 <read_gp_rom+0x13c>
   208bc:	e0bffd17 	ldw	r2,-12(fp)
   208c0:	10c00044 	addi	r3,r2,1
   208c4:	e0fffd15 	stw	r3,-12(fp)
   208c8:	1080fa10 	cmplti	r2,r2,1000
   208cc:	1000041e 	bne	r2,zero,208e0 <read_gp_rom+0x13c>
   208d0:	010000b4 	movhi	r4,2
   208d4:	211e6504 	addi	r4,r4,31124
   208d8:	00202c40 	call	202c4 <kxlog>
   208dc:	e03ffd15 	stw	zero,-12(fp)
   208e0:	01000134 	movhi	r4,4
   208e4:	211c0004 	addi	r4,r4,28672
   208e8:	00222ec0 	call	222ec <altera_avalon_fifo_read_level>
   208ec:	e0bffc15 	stw	r2,-16(fp)
   208f0:	e0bffc17 	ldw	r2,-16(fp)
   208f4:	10800110 	cmplti	r2,r2,4
   208f8:	103ff01e 	bne	r2,zero,208bc <read_gp_rom+0x118>
   208fc:	e03ffe15 	stw	zero,-8(fp)
   20900:	00001f06 	br	20980 <read_gp_rom+0x1dc>
   20904:	e0bffb04 	addi	r2,fp,-20
   20908:	100d883a 	mov	r6,r2
   2090c:	01400134 	movhi	r5,4
   20910:	295c0004 	addi	r5,r5,28672
   20914:	01000134 	movhi	r4,4
   20918:	21180004 	addi	r4,r4,24576
   2091c:	00224d40 	call	224d4 <altera_avalon_read_fifo>
   20920:	e0fffb04 	addi	r3,fp,-20
   20924:	e0bff917 	ldw	r2,-28(fp)
   20928:	11000044 	addi	r4,r2,1
   2092c:	e13ff915 	stw	r4,-28(fp)
   20930:	18c00003 	ldbu	r3,0(r3)
   20934:	10c00005 	stb	r3,0(r2)
   20938:	e0bff917 	ldw	r2,-28(fp)
   2093c:	10c00044 	addi	r3,r2,1
   20940:	e0fff915 	stw	r3,-28(fp)
   20944:	e0fffb43 	ldbu	r3,-19(fp)
   20948:	10c00005 	stb	r3,0(r2)
   2094c:	e0bff917 	ldw	r2,-28(fp)
   20950:	10c00044 	addi	r3,r2,1
   20954:	e0fff915 	stw	r3,-28(fp)
   20958:	e0fffb83 	ldbu	r3,-18(fp)
   2095c:	10c00005 	stb	r3,0(r2)
   20960:	e0bff917 	ldw	r2,-28(fp)
   20964:	10c00044 	addi	r3,r2,1
   20968:	e0fff915 	stw	r3,-28(fp)
   2096c:	e0fffbc3 	ldbu	r3,-17(fp)
   20970:	10c00005 	stb	r3,0(r2)
   20974:	e0bffe17 	ldw	r2,-8(fp)
   20978:	10800044 	addi	r2,r2,1
   2097c:	e0bffe15 	stw	r2,-8(fp)
   20980:	e0bffe17 	ldw	r2,-8(fp)
   20984:	10800110 	cmplti	r2,r2,4
   20988:	103fde1e 	bne	r2,zero,20904 <read_gp_rom+0x160>
   2098c:	e17fff17 	ldw	r5,-4(fp)
   20990:	010000b4 	movhi	r4,2
   20994:	211e6604 	addi	r4,r4,31128
   20998:	00202c40 	call	202c4 <kxlog>
   2099c:	01000284 	movi	r4,10
   209a0:	00202600 	call	20260 <wait_msec>
   209a4:	e0bfff17 	ldw	r2,-4(fp)
   209a8:	10800044 	addi	r2,r2,1
   209ac:	e0bfff15 	stw	r2,-4(fp)
   209b0:	e0bfff17 	ldw	r2,-4(fp)
   209b4:	10800410 	cmplti	r2,r2,16
   209b8:	103f831e 	bne	r2,zero,207c8 <read_gp_rom+0x24>
   209bc:	00bfffc4 	movi	r2,-1
   209c0:	e037883a 	mov	sp,fp
   209c4:	dfc00117 	ldw	ra,4(sp)
   209c8:	df000017 	ldw	fp,0(sp)
   209cc:	dec00204 	addi	sp,sp,8
   209d0:	f800283a 	ret

000209d4 <erase_gp_nvm>:
   209d4:	defffe04 	addi	sp,sp,-8
   209d8:	dfc00115 	stw	ra,4(sp)
   209dc:	df000015 	stw	fp,0(sp)
   209e0:	d839883a 	mov	fp,sp
   209e4:	0009883a 	mov	r4,zero
   209e8:	0020a2c0 	call	20a2c <erase_gp_rom>
   209ec:	e037883a 	mov	sp,fp
   209f0:	dfc00117 	ldw	ra,4(sp)
   209f4:	df000017 	ldw	fp,0(sp)
   209f8:	dec00204 	addi	sp,sp,8
   209fc:	f800283a 	ret

00020a00 <erase_gp_eeprom>:
   20a00:	defffe04 	addi	sp,sp,-8
   20a04:	dfc00115 	stw	ra,4(sp)
   20a08:	df000015 	stw	fp,0(sp)
   20a0c:	d839883a 	mov	fp,sp
   20a10:	01000044 	movi	r4,1
   20a14:	0020a2c0 	call	20a2c <erase_gp_rom>
   20a18:	e037883a 	mov	sp,fp
   20a1c:	dfc00117 	ldw	ra,4(sp)
   20a20:	df000017 	ldw	fp,0(sp)
   20a24:	dec00204 	addi	sp,sp,8
   20a28:	f800283a 	ret

00020a2c <erase_gp_rom>:
   20a2c:	defffb04 	addi	sp,sp,-20
   20a30:	dfc00415 	stw	ra,16(sp)
   20a34:	df000315 	stw	fp,12(sp)
   20a38:	df000304 	addi	fp,sp,12
   20a3c:	e13ffd15 	stw	r4,-12(fp)
   20a40:	e03fff15 	stw	zero,-4(fp)
   20a44:	00000c06 	br	20a78 <erase_gp_rom+0x4c>
   20a48:	e17fff17 	ldw	r5,-4(fp)
   20a4c:	e13ffd17 	ldw	r4,-12(fp)
   20a50:	0020a9c0 	call	20a9c <erase_gp_rom_block>
   20a54:	e0bffe15 	stw	r2,-8(fp)
   20a58:	e0bffe17 	ldw	r2,-8(fp)
   20a5c:	10bfffe0 	cmpeqi	r2,r2,-1
   20a60:	1000021e 	bne	r2,zero,20a6c <erase_gp_rom+0x40>
   20a64:	0005883a 	mov	r2,zero
   20a68:	00000706 	br	20a88 <erase_gp_rom+0x5c>
   20a6c:	e0bfff17 	ldw	r2,-4(fp)
   20a70:	10800044 	addi	r2,r2,1
   20a74:	e0bfff15 	stw	r2,-4(fp)
   20a78:	e0bfff17 	ldw	r2,-4(fp)
   20a7c:	10800410 	cmplti	r2,r2,16
   20a80:	103ff11e 	bne	r2,zero,20a48 <erase_gp_rom+0x1c>
   20a84:	00bfffc4 	movi	r2,-1
   20a88:	e037883a 	mov	sp,fp
   20a8c:	dfc00117 	ldw	ra,4(sp)
   20a90:	df000017 	ldw	fp,0(sp)
   20a94:	dec00204 	addi	sp,sp,8
   20a98:	f800283a 	ret

00020a9c <erase_gp_rom_block>:
   20a9c:	defffb04 	addi	sp,sp,-20
   20aa0:	dfc00415 	stw	ra,16(sp)
   20aa4:	df000315 	stw	fp,12(sp)
   20aa8:	df000304 	addi	fp,sp,12
   20aac:	e13fff15 	stw	r4,-4(fp)
   20ab0:	e17ffe15 	stw	r5,-8(fp)
   20ab4:	e0bfff17 	ldw	r2,-4(fp)
   20ab8:	10800204 	addi	r2,r2,8
   20abc:	1004913a 	slli	r2,r2,4
   20ac0:	1007883a 	mov	r3,r2
   20ac4:	e0bffe17 	ldw	r2,-8(fp)
   20ac8:	1885883a 	add	r2,r3,r2
   20acc:	d0a00345 	stb	r2,-32755(gp)
   20ad0:	0021c4c0 	call	21c4c <alt_dcache_flush_all>
   20ad4:	d0e11217 	ldw	r3,-31672(gp)
   20ad8:	00900004 	movi	r2,16384
   20adc:	d8800015 	stw	r2,0(sp)
   20ae0:	01c00184 	movi	r7,6
   20ae4:	d1a00204 	addi	r6,gp,-32760
   20ae8:	014000f4 	movhi	r5,3
   20aec:	29616804 	addi	r5,r5,-31328
   20af0:	1809883a 	mov	r4,r3
   20af4:	00250cc0 	call	250cc <alt_msgdma_construct_standard_mm_to_st_descriptor>
   20af8:	d0a11315 	stw	r2,-31668(gp)
   20afc:	d0a11317 	ldw	r2,-31668(gp)
   20b00:	10bffa98 	cmpnei	r2,r2,-22
   20b04:	1000031e 	bne	r2,zero,20b14 <erase_gp_rom_block+0x78>
   20b08:	010000b4 	movhi	r4,2
   20b0c:	211e5204 	addi	r4,r4,31048
   20b10:	00202c40 	call	202c4 <kxlog>
   20b14:	d0a11317 	ldw	r2,-31668(gp)
   20b18:	10000826 	beq	r2,zero,20b3c <erase_gp_rom_block+0xa0>
   20b1c:	d0a11317 	ldw	r2,-31668(gp)
   20b20:	e1bffe17 	ldw	r6,-8(fp)
   20b24:	100b883a 	mov	r5,r2
   20b28:	010000b4 	movhi	r4,2
   20b2c:	211e5404 	addi	r4,r4,31056
   20b30:	00202c40 	call	202c4 <kxlog>
   20b34:	0005883a 	mov	r2,zero
   20b38:	00001506 	br	20b90 <erase_gp_rom_block+0xf4>
   20b3c:	d0a11217 	ldw	r2,-31672(gp)
   20b40:	014000f4 	movhi	r5,3
   20b44:	29616804 	addi	r5,r5,-31328
   20b48:	1009883a 	mov	r4,r2
   20b4c:	002640c0 	call	2640c <alt_msgdma_standard_descriptor_sync_transfer>
   20b50:	d0a11315 	stw	r2,-31668(gp)
   20b54:	d0a11317 	ldw	r2,-31668(gp)
   20b58:	10000726 	beq	r2,zero,20b78 <erase_gp_rom_block+0xdc>
   20b5c:	d0a11317 	ldw	r2,-31668(gp)
   20b60:	100b883a 	mov	r5,r2
   20b64:	010000b4 	movhi	r4,2
   20b68:	211e5d04 	addi	r4,r4,31092
   20b6c:	00202c40 	call	202c4 <kxlog>
   20b70:	0005883a 	mov	r2,zero
   20b74:	00000606 	br	20b90 <erase_gp_rom_block+0xf4>
   20b78:	010000b4 	movhi	r4,2
   20b7c:	211e6604 	addi	r4,r4,31128
   20b80:	00202c40 	call	202c4 <kxlog>
   20b84:	01001904 	movi	r4,100
   20b88:	00202600 	call	20260 <wait_msec>
   20b8c:	00bfffc4 	movi	r2,-1
   20b90:	e037883a 	mov	sp,fp
   20b94:	dfc00117 	ldw	ra,4(sp)
   20b98:	df000017 	ldw	fp,0(sp)
   20b9c:	dec00204 	addi	sp,sp,8
   20ba0:	f800283a 	ret

00020ba4 <write_gp_rom>:
   20ba4:	defff704 	addi	sp,sp,-36
   20ba8:	dfc00815 	stw	ra,32(sp)
   20bac:	df000715 	stw	fp,28(sp)
   20bb0:	df000704 	addi	fp,sp,28
   20bb4:	2005883a 	mov	r2,r4
   20bb8:	e17ffb15 	stw	r5,-20(fp)
   20bbc:	e1bffa15 	stw	r6,-24(fp)
   20bc0:	e0bffc05 	stb	r2,-16(fp)
   20bc4:	e0bffb17 	ldw	r2,-20(fp)
   20bc8:	10800450 	cmplti	r2,r2,17
   20bcc:	1000021e 	bne	r2,zero,20bd8 <write_gp_rom+0x34>
   20bd0:	0005883a 	mov	r2,zero
   20bd4:	00006c06 	br	20d88 <write_gp_rom+0x1e4>
   20bd8:	0100fa04 	movi	r4,1000
   20bdc:	00202600 	call	20260 <wait_msec>
   20be0:	e03fff15 	stw	zero,-4(fp)
   20be4:	00006106 	br	20d6c <write_gp_rom+0x1c8>
   20be8:	e17fff17 	ldw	r5,-4(fp)
   20bec:	010000b4 	movhi	r4,2
   20bf0:	211e6704 	addi	r4,r4,31132
   20bf4:	00202c40 	call	202c4 <kxlog>
   20bf8:	01001904 	movi	r4,100
   20bfc:	00202600 	call	20260 <wait_msec>
   20c00:	e0bffc03 	ldbu	r2,-16(fp)
   20c04:	10800298 	cmpnei	r2,r2,10
   20c08:	10803fcc 	andi	r2,r2,255
   20c0c:	e0bffd15 	stw	r2,-12(fp)
   20c10:	e17fff17 	ldw	r5,-4(fp)
   20c14:	e13ffd17 	ldw	r4,-12(fp)
   20c18:	0020a9c0 	call	20a9c <erase_gp_rom_block>
   20c1c:	01001904 	movi	r4,100
   20c20:	00202600 	call	20260 <wait_msec>
   20c24:	010000b4 	movhi	r4,2
   20c28:	211e6804 	addi	r4,r4,31136
   20c2c:	00202c40 	call	202c4 <kxlog>
   20c30:	01001904 	movi	r4,100
   20c34:	00202600 	call	20260 <wait_msec>
   20c38:	e0bffc03 	ldbu	r2,-16(fp)
   20c3c:	1085883a 	add	r2,r2,r2
   20c40:	1007883a 	mov	r3,r2
   20c44:	008000b4 	movhi	r2,2
   20c48:	10df3ec5 	stb	r3,31995(r2)
   20c4c:	e0bfff17 	ldw	r2,-4(fp)
   20c50:	1004913a 	slli	r2,r2,4
   20c54:	1007883a 	mov	r3,r2
   20c58:	008000b4 	movhi	r2,2
   20c5c:	10df3f45 	stb	r3,31997(r2)
   20c60:	e03ffe15 	stw	zero,-8(fp)
   20c64:	00001106 	br	20cac <write_gp_rom+0x108>
   20c68:	e0bfff17 	ldw	r2,-4(fp)
   20c6c:	1006913a 	slli	r3,r2,4
   20c70:	e0bffe17 	ldw	r2,-8(fp)
   20c74:	1885883a 	add	r2,r3,r2
   20c78:	1007883a 	mov	r3,r2
   20c7c:	e0bffa17 	ldw	r2,-24(fp)
   20c80:	10c7883a 	add	r3,r2,r3
   20c84:	e0bffe17 	ldw	r2,-8(fp)
   20c88:	10800084 	addi	r2,r2,2
   20c8c:	18c00003 	ldbu	r3,0(r3)
   20c90:	1089883a 	add	r4,r2,r2
   20c94:	008000b4 	movhi	r2,2
   20c98:	2085883a 	add	r2,r4,r2
   20c9c:	10df3ec5 	stb	r3,31995(r2)
   20ca0:	e0bffe17 	ldw	r2,-8(fp)
   20ca4:	10800044 	addi	r2,r2,1
   20ca8:	e0bffe15 	stw	r2,-8(fp)
   20cac:	e0bffe17 	ldw	r2,-8(fp)
   20cb0:	10800410 	cmplti	r2,r2,16
   20cb4:	103fec1e 	bne	r2,zero,20c68 <write_gp_rom+0xc4>
   20cb8:	0021c4c0 	call	21c4c <alt_dcache_flush_all>
   20cbc:	d0e11217 	ldw	r3,-31672(gp)
   20cc0:	00900004 	movi	r2,16384
   20cc4:	d8800015 	stw	r2,0(sp)
   20cc8:	01c00904 	movi	r7,36
   20ccc:	018000b4 	movhi	r6,2
   20cd0:	319f3e84 	addi	r6,r6,31994
   20cd4:	014000f4 	movhi	r5,3
   20cd8:	29616004 	addi	r5,r5,-31360
   20cdc:	1809883a 	mov	r4,r3
   20ce0:	00250cc0 	call	250cc <alt_msgdma_construct_standard_mm_to_st_descriptor>
   20ce4:	d0a11315 	stw	r2,-31668(gp)
   20ce8:	d0a11317 	ldw	r2,-31668(gp)
   20cec:	10000826 	beq	r2,zero,20d10 <write_gp_rom+0x16c>
   20cf0:	d0a11317 	ldw	r2,-31668(gp)
   20cf4:	e1bfff17 	ldw	r6,-4(fp)
   20cf8:	100b883a 	mov	r5,r2
   20cfc:	010000b4 	movhi	r4,2
   20d00:	211e5404 	addi	r4,r4,31056
   20d04:	00202c40 	call	202c4 <kxlog>
   20d08:	0005883a 	mov	r2,zero
   20d0c:	00001e06 	br	20d88 <write_gp_rom+0x1e4>
   20d10:	d0a11217 	ldw	r2,-31672(gp)
   20d14:	014000f4 	movhi	r5,3
   20d18:	29616004 	addi	r5,r5,-31360
   20d1c:	1009883a 	mov	r4,r2
   20d20:	002640c0 	call	2640c <alt_msgdma_standard_descriptor_sync_transfer>
   20d24:	d0a11315 	stw	r2,-31668(gp)
   20d28:	d0a11317 	ldw	r2,-31668(gp)
   20d2c:	10000726 	beq	r2,zero,20d4c <write_gp_rom+0x1a8>
   20d30:	d0a11317 	ldw	r2,-31668(gp)
   20d34:	100b883a 	mov	r5,r2
   20d38:	010000b4 	movhi	r4,2
   20d3c:	211e5d04 	addi	r4,r4,31092
   20d40:	00202c40 	call	202c4 <kxlog>
   20d44:	0005883a 	mov	r2,zero
   20d48:	00000f06 	br	20d88 <write_gp_rom+0x1e4>
   20d4c:	01001904 	movi	r4,100
   20d50:	00202600 	call	20260 <wait_msec>
   20d54:	010000b4 	movhi	r4,2
   20d58:	211e6904 	addi	r4,r4,31140
   20d5c:	00202c40 	call	202c4 <kxlog>
   20d60:	e0bfff17 	ldw	r2,-4(fp)
   20d64:	10800044 	addi	r2,r2,1
   20d68:	e0bfff15 	stw	r2,-4(fp)
   20d6c:	e0ffff17 	ldw	r3,-4(fp)
   20d70:	e0bffb17 	ldw	r2,-20(fp)
   20d74:	18bf9c16 	blt	r3,r2,20be8 <write_gp_rom+0x44>
   20d78:	010000b4 	movhi	r4,2
   20d7c:	211e6a04 	addi	r4,r4,31144
   20d80:	00202c40 	call	202c4 <kxlog>
   20d84:	00bfffc4 	movi	r2,-1
   20d88:	e037883a 	mov	sp,fp
   20d8c:	dfc00117 	ldw	ra,4(sp)
   20d90:	df000017 	ldw	fp,0(sp)
   20d94:	dec00204 	addi	sp,sp,8
   20d98:	f800283a 	ret

00020d9c <dump>:
   20d9c:	defffa04 	addi	sp,sp,-24
   20da0:	dfc00515 	stw	ra,20(sp)
   20da4:	df000415 	stw	fp,16(sp)
   20da8:	df000404 	addi	fp,sp,16
   20dac:	e13ffd15 	stw	r4,-12(fp)
   20db0:	e17ffc15 	stw	r5,-16(fp)
   20db4:	0021c4c0 	call	21c4c <alt_dcache_flush_all>
   20db8:	010000b4 	movhi	r4,2
   20dbc:	211e6b04 	addi	r4,r4,31148
   20dc0:	00202c40 	call	202c4 <kxlog>
   20dc4:	e03fff15 	stw	zero,-4(fp)
   20dc8:	00002506 	br	20e60 <dump+0xc4>
   20dcc:	e0bfff17 	ldw	r2,-4(fp)
   20dd0:	e0fffd17 	ldw	r3,-12(fp)
   20dd4:	1885883a 	add	r2,r3,r2
   20dd8:	10800003 	ldbu	r2,0(r2)
   20ddc:	e0bffec5 	stb	r2,-5(fp)
   20de0:	e0ffff17 	ldw	r3,-4(fp)
   20de4:	00a00034 	movhi	r2,32768
   20de8:	108003c4 	addi	r2,r2,15
   20dec:	1884703a 	and	r2,r3,r2
   20df0:	1000040e 	bge	r2,zero,20e04 <dump+0x68>
   20df4:	10bfffc4 	addi	r2,r2,-1
   20df8:	00fffc04 	movi	r3,-16
   20dfc:	10c4b03a 	or	r2,r2,r3
   20e00:	10800044 	addi	r2,r2,1
   20e04:	108003d8 	cmpnei	r2,r2,15
   20e08:	10000d1e 	bne	r2,zero,20e40 <dump+0xa4>
   20e0c:	e0bffc17 	ldw	r2,-16(fp)
   20e10:	10bfffc4 	addi	r2,r2,-1
   20e14:	e0ffff17 	ldw	r3,-4(fp)
   20e18:	1880090e 	bge	r3,r2,20e40 <dump+0xa4>
   20e1c:	e0fffec3 	ldbu	r3,-5(fp)
   20e20:	e0bfff17 	ldw	r2,-4(fp)
   20e24:	10800044 	addi	r2,r2,1
   20e28:	100d883a 	mov	r6,r2
   20e2c:	180b883a 	mov	r5,r3
   20e30:	010000b4 	movhi	r4,2
   20e34:	211e6d04 	addi	r4,r4,31156
   20e38:	00202c40 	call	202c4 <kxlog>
   20e3c:	00000506 	br	20e54 <dump+0xb8>
   20e40:	e0bffec3 	ldbu	r2,-5(fp)
   20e44:	100b883a 	mov	r5,r2
   20e48:	010000b4 	movhi	r4,2
   20e4c:	211e7104 	addi	r4,r4,31172
   20e50:	00202c40 	call	202c4 <kxlog>
   20e54:	e0bfff17 	ldw	r2,-4(fp)
   20e58:	10800044 	addi	r2,r2,1
   20e5c:	e0bfff15 	stw	r2,-4(fp)
   20e60:	e0ffff17 	ldw	r3,-4(fp)
   20e64:	e0bffc17 	ldw	r2,-16(fp)
   20e68:	18bfd816 	blt	r3,r2,20dcc <dump+0x30>
   20e6c:	010000b4 	movhi	r4,2
   20e70:	211e6a04 	addi	r4,r4,31144
   20e74:	00202c40 	call	202c4 <kxlog>
   20e78:	0001883a 	nop
   20e7c:	e037883a 	mov	sp,fp
   20e80:	dfc00117 	ldw	ra,4(sp)
   20e84:	df000017 	ldw	fp,0(sp)
   20e88:	dec00204 	addi	sp,sp,8
   20e8c:	f800283a 	ret

00020e90 <eeprom_write>:
   20e90:	defff904 	addi	sp,sp,-28
   20e94:	dfc00615 	stw	ra,24(sp)
   20e98:	df000515 	stw	fp,20(sp)
   20e9c:	df000504 	addi	fp,sp,20
   20ea0:	e13ffd15 	stw	r4,-12(fp)
   20ea4:	e17ffc15 	stw	r5,-16(fp)
   20ea8:	e1bffb15 	stw	r6,-20(fp)
   20eac:	010000b4 	movhi	r4,2
   20eb0:	211e7304 	addi	r4,r4,31180
   20eb4:	00202c40 	call	202c4 <kxlog>
   20eb8:	e03fff15 	stw	zero,-4(fp)
   20ebc:	00000706 	br	20edc <eeprom_write+0x4c>
   20ec0:	e0ffff17 	ldw	r3,-4(fp)
   20ec4:	008000f4 	movhi	r2,3
   20ec8:	1885883a 	add	r2,r3,r2
   20ecc:	10216c05 	stb	zero,-31312(r2)
   20ed0:	e0bfff17 	ldw	r2,-4(fp)
   20ed4:	10800044 	addi	r2,r2,1
   20ed8:	e0bfff15 	stw	r2,-4(fp)
   20edc:	e0bfff17 	ldw	r2,-4(fp)
   20ee0:	10804010 	cmplti	r2,r2,256
   20ee4:	103ff61e 	bne	r2,zero,20ec0 <eeprom_write+0x30>
   20ee8:	00c001c4 	movi	r3,7
   20eec:	008000f4 	movhi	r2,3
   20ef0:	10e16e45 	stb	r3,-31303(r2)
   20ef4:	00c00304 	movi	r3,12
   20ef8:	008000f4 	movhi	r2,3
   20efc:	10e16f45 	stb	r3,-31299(r2)
   20f00:	00c00144 	movi	r3,5
   20f04:	008000f4 	movhi	r2,3
   20f08:	10e170c5 	stb	r3,-31293(r2)
   20f0c:	008000f4 	movhi	r2,3
   20f10:	10218785 	stb	zero,-31202(r2)
   20f14:	008000f4 	movhi	r2,3
   20f18:	102187c5 	stb	zero,-31201(r2)
   20f1c:	00fff0c4 	movi	r3,-61
   20f20:	008000f4 	movhi	r2,3
   20f24:	10e18805 	stb	r3,-31200(r2)
   20f28:	00ffed84 	movi	r3,-74
   20f2c:	008000f4 	movhi	r2,3
   20f30:	10e18845 	stb	r3,-31199(r2)
   20f34:	00c00144 	movi	r3,5
   20f38:	008000f4 	movhi	r2,3
   20f3c:	10e18885 	stb	r3,-31198(r2)
   20f40:	00c00304 	movi	r3,12
   20f44:	008000f4 	movhi	r2,3
   20f48:	10e188c5 	stb	r3,-31197(r2)
   20f4c:	00c01a04 	movi	r3,104
   20f50:	008000f4 	movhi	r2,3
   20f54:	10e18b85 	stb	r3,-31186(r2)
   20f58:	00c011c4 	movi	r3,71
   20f5c:	008000f4 	movhi	r2,3
   20f60:	10e18bc5 	stb	r3,-31185(r2)
   20f64:	00c012c4 	movi	r3,75
   20f68:	008000f4 	movhi	r2,3
   20f6c:	10e1a805 	stb	r3,-31072(r2)
   20f70:	00c01604 	movi	r3,88
   20f74:	008000f4 	movhi	r2,3
   20f78:	10e1a845 	stb	r3,-31071(r2)
   20f7c:	e0bffd17 	ldw	r2,-12(fp)
   20f80:	1004913a 	slli	r2,r2,4
   20f84:	1007883a 	mov	r3,r2
   20f88:	e0bffb17 	ldw	r2,-20(fp)
   20f8c:	1005d23a 	srai	r2,r2,8
   20f90:	108003cc 	andi	r2,r2,15
   20f94:	1884b03a 	or	r2,r3,r2
   20f98:	1007883a 	mov	r3,r2
   20f9c:	008000f4 	movhi	r2,3
   20fa0:	10e1a885 	stb	r3,-31070(r2)
   20fa4:	e0bffb17 	ldw	r2,-20(fp)
   20fa8:	1007883a 	mov	r3,r2
   20fac:	008000f4 	movhi	r2,3
   20fb0:	10e1a8c5 	stb	r3,-31069(r2)
   20fb4:	e0bffd17 	ldw	r2,-12(fp)
   20fb8:	1007883a 	mov	r3,r2
   20fbc:	008000f4 	movhi	r2,3
   20fc0:	10e1a905 	stb	r3,-31068(r2)
   20fc4:	e0bffc17 	ldw	r2,-16(fp)
   20fc8:	1007883a 	mov	r3,r2
   20fcc:	008000f4 	movhi	r2,3
   20fd0:	10e1a945 	stb	r3,-31067(r2)
   20fd4:	018000f4 	movhi	r6,3
   20fd8:	31a16c04 	addi	r6,r6,-31312
   20fdc:	01400404 	movi	r5,16
   20fe0:	010002c4 	movi	r4,11
   20fe4:	0020ba40 	call	20ba4 <write_gp_rom>
   20fe8:	e0bffe15 	stw	r2,-8(fp)
   20fec:	e0bffe17 	ldw	r2,-8(fp)
   20ff0:	1000021e 	bne	r2,zero,20ffc <eeprom_write+0x16c>
   20ff4:	0005883a 	mov	r2,zero
   20ff8:	00001b06 	br	21068 <eeprom_write+0x1d8>
   20ffc:	0100fa04 	movi	r4,1000
   21000:	00202600 	call	20260 <wait_msec>
   21004:	010000b4 	movhi	r4,2
   21008:	211e7704 	addi	r4,r4,31196
   2100c:	00202c40 	call	202c4 <kxlog>
   21010:	014000f4 	movhi	r5,3
   21014:	29616c04 	addi	r5,r5,-31312
   21018:	010002c4 	movi	r4,11
   2101c:	00207a40 	call	207a4 <read_gp_rom>
   21020:	e0bffe15 	stw	r2,-8(fp)
   21024:	e0bffe17 	ldw	r2,-8(fp)
   21028:	1000021e 	bne	r2,zero,21034 <eeprom_write+0x1a4>
   2102c:	0005883a 	mov	r2,zero
   21030:	00000d06 	br	21068 <eeprom_write+0x1d8>
   21034:	010000b4 	movhi	r4,2
   21038:	211e6a04 	addi	r4,r4,31144
   2103c:	00202c40 	call	202c4 <kxlog>
   21040:	01404004 	movi	r5,256
   21044:	010000f4 	movhi	r4,3
   21048:	21216c04 	addi	r4,r4,-31312
   2104c:	0020d9c0 	call	20d9c <dump>
   21050:	010000b4 	movhi	r4,2
   21054:	211e6a04 	addi	r4,r4,31144
   21058:	00202c40 	call	202c4 <kxlog>
   2105c:	0100fa04 	movi	r4,1000
   21060:	00202600 	call	20260 <wait_msec>
   21064:	00bfffc4 	movi	r2,-1
   21068:	e037883a 	mov	sp,fp
   2106c:	dfc00117 	ldw	ra,4(sp)
   21070:	df000017 	ldw	fp,0(sp)
   21074:	dec00204 	addi	sp,sp,8
   21078:	f800283a 	ret

0002107c <nvm_write>:
   2107c:	defffd04 	addi	sp,sp,-12
   21080:	dfc00215 	stw	ra,8(sp)
   21084:	df000115 	stw	fp,4(sp)
   21088:	df000104 	addi	fp,sp,4
   2108c:	010000b4 	movhi	r4,2
   21090:	211e7904 	addi	r4,r4,31204
   21094:	00202c40 	call	202c4 <kxlog>
   21098:	d0a00117 	ldw	r2,-32764(gp)
   2109c:	100d883a 	mov	r6,r2
   210a0:	01400404 	movi	r5,16
   210a4:	01000284 	movi	r4,10
   210a8:	0020ba40 	call	20ba4 <write_gp_rom>
   210ac:	e0bfff15 	stw	r2,-4(fp)
   210b0:	e0bfff17 	ldw	r2,-4(fp)
   210b4:	1000021e 	bne	r2,zero,210c0 <nvm_write+0x44>
   210b8:	0005883a 	mov	r2,zero
   210bc:	00001b06 	br	2112c <nvm_write+0xb0>
   210c0:	0100fa04 	movi	r4,1000
   210c4:	00202600 	call	20260 <wait_msec>
   210c8:	010000b4 	movhi	r4,2
   210cc:	211e7d04 	addi	r4,r4,31220
   210d0:	00202c40 	call	202c4 <kxlog>
   210d4:	014000f4 	movhi	r5,3
   210d8:	29616c04 	addi	r5,r5,-31312
   210dc:	01000284 	movi	r4,10
   210e0:	00207a40 	call	207a4 <read_gp_rom>
   210e4:	e0bfff15 	stw	r2,-4(fp)
   210e8:	e0bfff17 	ldw	r2,-4(fp)
   210ec:	1000021e 	bne	r2,zero,210f8 <nvm_write+0x7c>
   210f0:	0005883a 	mov	r2,zero
   210f4:	00000d06 	br	2112c <nvm_write+0xb0>
   210f8:	010000b4 	movhi	r4,2
   210fc:	211e6a04 	addi	r4,r4,31144
   21100:	00202c40 	call	202c4 <kxlog>
   21104:	01404004 	movi	r5,256
   21108:	010000f4 	movhi	r4,3
   2110c:	21216c04 	addi	r4,r4,-31312
   21110:	0020d9c0 	call	20d9c <dump>
   21114:	010000b4 	movhi	r4,2
   21118:	211e6a04 	addi	r4,r4,31144
   2111c:	00202c40 	call	202c4 <kxlog>
   21120:	0100fa04 	movi	r4,1000
   21124:	00202600 	call	20260 <wait_msec>
   21128:	00bfffc4 	movi	r2,-1
   2112c:	e037883a 	mov	sp,fp
   21130:	dfc00117 	ldw	ra,4(sp)
   21134:	df000017 	ldw	fp,0(sp)
   21138:	dec00204 	addi	sp,sp,8
   2113c:	f800283a 	ret

00021140 <main>:
   21140:	defffb04 	addi	sp,sp,-20
   21144:	dfc00415 	stw	ra,16(sp)
   21148:	df000315 	stw	fp,12(sp)
   2114c:	df000304 	addi	fp,sp,12
   21150:	0107d004 	movi	r4,8000
   21154:	00202600 	call	20260 <wait_msec>
   21158:	00205ec0 	call	205ec <init>
   2115c:	e0bffe15 	stw	r2,-8(fp)
   21160:	e0bffe17 	ldw	r2,-8(fp)
   21164:	1000021e 	bne	r2,zero,21170 <main+0x30>
   21168:	0005883a 	mov	r2,zero
   2116c:	00005906 	br	212d4 <main+0x194>
   21170:	010000b4 	movhi	r4,2
   21174:	211e7f04 	addi	r4,r4,31228
   21178:	00202c40 	call	202c4 <kxlog>
   2117c:	008000c4 	movi	r2,3
   21180:	e0bfff15 	stw	r2,-4(fp)
   21184:	00000906 	br	211ac <main+0x6c>
   21188:	e17fff17 	ldw	r5,-4(fp)
   2118c:	010000b4 	movhi	r4,2
   21190:	211e8604 	addi	r4,r4,31256
   21194:	00202c40 	call	202c4 <kxlog>
   21198:	0100fa04 	movi	r4,1000
   2119c:	00202600 	call	20260 <wait_msec>
   211a0:	e0bfff17 	ldw	r2,-4(fp)
   211a4:	10bfffc4 	addi	r2,r2,-1
   211a8:	e0bfff15 	stw	r2,-4(fp)
   211ac:	e0bfff17 	ldw	r2,-4(fp)
   211b0:	00bff516 	blt	zero,r2,21188 <main+0x48>
   211b4:	010000b4 	movhi	r4,2
   211b8:	211e8904 	addi	r4,r4,31268
   211bc:	00202c40 	call	202c4 <kxlog>
   211c0:	010000b4 	movhi	r4,2
   211c4:	211e7d04 	addi	r4,r4,31220
   211c8:	00202c40 	call	202c4 <kxlog>
   211cc:	014000f4 	movhi	r5,3
   211d0:	29616c04 	addi	r5,r5,-31312
   211d4:	01000284 	movi	r4,10
   211d8:	00207a40 	call	207a4 <read_gp_rom>
   211dc:	e0bffe15 	stw	r2,-8(fp)
   211e0:	e0bffe17 	ldw	r2,-8(fp)
   211e4:	1000021e 	bne	r2,zero,211f0 <main+0xb0>
   211e8:	0005883a 	mov	r2,zero
   211ec:	00003906 	br	212d4 <main+0x194>
   211f0:	010000b4 	movhi	r4,2
   211f4:	211e6a04 	addi	r4,r4,31144
   211f8:	00202c40 	call	202c4 <kxlog>
   211fc:	01404004 	movi	r5,256
   21200:	010000f4 	movhi	r4,3
   21204:	21216c04 	addi	r4,r4,-31312
   21208:	0020d9c0 	call	20d9c <dump>
   2120c:	010000b4 	movhi	r4,2
   21210:	211e6a04 	addi	r4,r4,31144
   21214:	00202c40 	call	202c4 <kxlog>
   21218:	0100fa04 	movi	r4,1000
   2121c:	00202600 	call	20260 <wait_msec>
   21220:	010000b4 	movhi	r4,2
   21224:	211e7704 	addi	r4,r4,31196
   21228:	00202c40 	call	202c4 <kxlog>
   2122c:	014000f4 	movhi	r5,3
   21230:	29616c04 	addi	r5,r5,-31312
   21234:	010002c4 	movi	r4,11
   21238:	00207a40 	call	207a4 <read_gp_rom>
   2123c:	e0bffe15 	stw	r2,-8(fp)
   21240:	e0bffe17 	ldw	r2,-8(fp)
   21244:	1000021e 	bne	r2,zero,21250 <main+0x110>
   21248:	0005883a 	mov	r2,zero
   2124c:	00002106 	br	212d4 <main+0x194>
   21250:	010000b4 	movhi	r4,2
   21254:	211e6a04 	addi	r4,r4,31144
   21258:	00202c40 	call	202c4 <kxlog>
   2125c:	01404004 	movi	r5,256
   21260:	010000f4 	movhi	r4,3
   21264:	21216c04 	addi	r4,r4,-31312
   21268:	0020d9c0 	call	20d9c <dump>
   2126c:	010000b4 	movhi	r4,2
   21270:	211e6a04 	addi	r4,r4,31144
   21274:	00202c40 	call	202c4 <kxlog>
   21278:	0100fa04 	movi	r4,1000
   2127c:	00202600 	call	20260 <wait_msec>
   21280:	010000b4 	movhi	r4,2
   21284:	211e8e04 	addi	r4,r4,31288
   21288:	00202c40 	call	202c4 <kxlog>
   2128c:	002107c0 	call	2107c <nvm_write>
   21290:	000d883a 	mov	r6,zero
   21294:	000b883a 	mov	r5,zero
   21298:	0009883a 	mov	r4,zero
   2129c:	0020e900 	call	20e90 <eeprom_write>
   212a0:	010000b4 	movhi	r4,2
   212a4:	211e9304 	addi	r4,r4,31308
   212a8:	00202c40 	call	202c4 <kxlog>
   212ac:	00800134 	movhi	r2,4
   212b0:	10840004 	addi	r2,r2,4096
   212b4:	10800003 	ldbu	r2,0(r2)
   212b8:	10803fcc 	andi	r2,r2,255
   212bc:	e0bffd15 	stw	r2,-12(fp)
   212c0:	00800134 	movhi	r2,4
   212c4:	10840404 	addi	r2,r2,4112
   212c8:	e0fffd17 	ldw	r3,-12(fp)
   212cc:	10c00005 	stb	r3,0(r2)
   212d0:	003ff606 	br	212ac <main+0x16c>
   212d4:	e037883a 	mov	sp,fp
   212d8:	dfc00117 	ldw	ra,4(sp)
   212dc:	df000017 	ldw	fp,0(sp)
   212e0:	dec00204 	addi	sp,sp,8
   212e4:	f800283a 	ret

000212e8 <__mulsi3>:
   212e8:	0005883a 	mov	r2,zero
   212ec:	20000726 	beq	r4,zero,2130c <__mulsi3+0x24>
   212f0:	20c0004c 	andi	r3,r4,1
   212f4:	2008d07a 	srli	r4,r4,1
   212f8:	18000126 	beq	r3,zero,21300 <__mulsi3+0x18>
   212fc:	1145883a 	add	r2,r2,r5
   21300:	294b883a 	add	r5,r5,r5
   21304:	203ffa1e 	bne	r4,zero,212f0 <__mulsi3+0x8>
   21308:	f800283a 	ret
   2130c:	f800283a 	ret

00021310 <_vsnprintf_r>:
   21310:	defff604 	addi	sp,sp,-40
   21314:	dc400815 	stw	r17,32(sp)
   21318:	dc000715 	stw	r16,28(sp)
   2131c:	dfc00915 	stw	ra,36(sp)
   21320:	2023883a 	mov	r17,r4
   21324:	3021883a 	mov	r16,r6
   21328:	3000080e 	bge	r6,zero,2134c <_vsnprintf_r+0x3c>
   2132c:	008022c4 	movi	r2,139
   21330:	20800015 	stw	r2,0(r4)
   21334:	00bfffc4 	movi	r2,-1
   21338:	dfc00917 	ldw	ra,36(sp)
   2133c:	dc400817 	ldw	r17,32(sp)
   21340:	dc000717 	ldw	r16,28(sp)
   21344:	dec00a04 	addi	sp,sp,40
   21348:	f800283a 	ret
   2134c:	00808204 	movi	r2,520
   21350:	d880000d 	sth	r2,0(sp)
   21354:	d9400415 	stw	r5,16(sp)
   21358:	d9400215 	stw	r5,8(sp)
   2135c:	380d883a 	mov	r6,r7
   21360:	80001626 	beq	r16,zero,213bc <_vsnprintf_r+0xac>
   21364:	80bfffc4 	addi	r2,r16,-1
   21368:	d8800515 	stw	r2,20(sp)
   2136c:	d8800315 	stw	r2,12(sp)
   21370:	00bfffc4 	movi	r2,-1
   21374:	d880008d 	sth	r2,2(sp)
   21378:	008000b4 	movhi	r2,2
   2137c:	1084fd04 	addi	r2,r2,5108
   21380:	d8800115 	stw	r2,4(sp)
   21384:	008000f4 	movhi	r2,3
   21388:	d9c00a17 	ldw	r7,40(sp)
   2138c:	11202717 	ldw	r4,-32612(r2)
   21390:	d80b883a 	mov	r5,sp
   21394:	d8000615 	stw	zero,24(sp)
   21398:	00215580 	call	21558 <___svfprintf_internal_r>
   2139c:	10ffffc8 	cmpgei	r3,r2,-1
   213a0:	1800021e 	bne	r3,zero,213ac <_vsnprintf_r+0x9c>
   213a4:	00c022c4 	movi	r3,139
   213a8:	88c00015 	stw	r3,0(r17)
   213ac:	803fe226 	beq	r16,zero,21338 <_vsnprintf_r+0x28>
   213b0:	d8c00417 	ldw	r3,16(sp)
   213b4:	18000005 	stb	zero,0(r3)
   213b8:	003fdf06 	br	21338 <_vsnprintf_r+0x28>
   213bc:	0005883a 	mov	r2,zero
   213c0:	003fe906 	br	21368 <_vsnprintf_r+0x58>

000213c4 <vsnprintf>:
   213c4:	defffe04 	addi	sp,sp,-8
   213c8:	008000f4 	movhi	r2,3
   213cc:	d9c00015 	stw	r7,0(sp)
   213d0:	300f883a 	mov	r7,r6
   213d4:	280d883a 	mov	r6,r5
   213d8:	200b883a 	mov	r5,r4
   213dc:	11202717 	ldw	r4,-32612(r2)
   213e0:	dfc00115 	stw	ra,4(sp)
   213e4:	00213100 	call	21310 <_vsnprintf_r>
   213e8:	dfc00117 	ldw	ra,4(sp)
   213ec:	dec00204 	addi	sp,sp,8
   213f0:	f800283a 	ret

000213f4 <__sfvwrite_small_str>:
   213f4:	2880000b 	ldhu	r2,0(r5)
   213f8:	defffd04 	addi	sp,sp,-12
   213fc:	dc000015 	stw	r16,0(sp)
   21400:	dfc00215 	stw	ra,8(sp)
   21404:	dc400115 	stw	r17,4(sp)
   21408:	10c0020c 	andi	r3,r2,8
   2140c:	2821883a 	mov	r16,r5
   21410:	18001c26 	beq	r3,zero,21484 <__sfvwrite_small_str+0x90>
   21414:	28c0008f 	ldh	r3,2(r5)
   21418:	1800180e 	bge	r3,zero,2147c <__sfvwrite_small_str+0x88>
   2141c:	10c0800c 	andi	r3,r2,512
   21420:	18001626 	beq	r3,zero,2147c <__sfvwrite_small_str+0x88>
   21424:	84400517 	ldw	r17,20(r16)
   21428:	300b883a 	mov	r5,r6
   2142c:	89c0020e 	bge	r17,r7,21438 <__sfvwrite_small_str+0x44>
   21430:	10c0200c 	andi	r3,r2,128
   21434:	1800111e 	bne	r3,zero,2147c <__sfvwrite_small_str+0x88>
   21438:	3c40010e 	bge	r7,r17,21440 <__sfvwrite_small_str+0x4c>
   2143c:	3823883a 	mov	r17,r7
   21440:	81000417 	ldw	r4,16(r16)
   21444:	880d883a 	mov	r6,r17
   21448:	002148c0 	call	2148c <memmove>
   2144c:	80800517 	ldw	r2,20(r16)
   21450:	1445c83a 	sub	r2,r2,r17
   21454:	80800515 	stw	r2,20(r16)
   21458:	80800417 	ldw	r2,16(r16)
   2145c:	1445883a 	add	r2,r2,r17
   21460:	80800415 	stw	r2,16(r16)
   21464:	0005883a 	mov	r2,zero
   21468:	dfc00217 	ldw	ra,8(sp)
   2146c:	dc400117 	ldw	r17,4(sp)
   21470:	dc000017 	ldw	r16,0(sp)
   21474:	dec00304 	addi	sp,sp,12
   21478:	f800283a 	ret
   2147c:	10801014 	ori	r2,r2,64
   21480:	8080000d 	sth	r2,0(r16)
   21484:	00bfffc4 	movi	r2,-1
   21488:	003ff706 	br	21468 <__sfvwrite_small_str+0x74>

0002148c <memmove>:
   2148c:	2005883a 	mov	r2,r4
   21490:	2900142e 	bgeu	r5,r4,214e4 <memmove+0x58>
   21494:	298f883a 	add	r7,r5,r6
   21498:	21c0122e 	bgeu	r4,r7,214e4 <memmove+0x58>
   2149c:	018a303a 	nor	r5,zero,r6
   214a0:	0007883a 	mov	r3,zero
   214a4:	18ffffc4 	addi	r3,r3,-1
   214a8:	28c0011e 	bne	r5,r3,214b0 <memmove+0x24>
   214ac:	f800283a 	ret
   214b0:	38c9883a 	add	r4,r7,r3
   214b4:	22000003 	ldbu	r8,0(r4)
   214b8:	30c9883a 	add	r4,r6,r3
   214bc:	1109883a 	add	r4,r2,r4
   214c0:	22000005 	stb	r8,0(r4)
   214c4:	003ff706 	br	214a4 <memmove+0x18>
   214c8:	28c9883a 	add	r4,r5,r3
   214cc:	21c00003 	ldbu	r7,0(r4)
   214d0:	10c9883a 	add	r4,r2,r3
   214d4:	18c00044 	addi	r3,r3,1
   214d8:	21c00005 	stb	r7,0(r4)
   214dc:	30fffa1e 	bne	r6,r3,214c8 <memmove+0x3c>
   214e0:	f800283a 	ret
   214e4:	0007883a 	mov	r3,zero
   214e8:	003ffc06 	br	214dc <memmove+0x50>

000214ec <print_repeat>:
   214ec:	defffb04 	addi	sp,sp,-20
   214f0:	dc800315 	stw	r18,12(sp)
   214f4:	dc400215 	stw	r17,8(sp)
   214f8:	dc000115 	stw	r16,4(sp)
   214fc:	dfc00415 	stw	ra,16(sp)
   21500:	2025883a 	mov	r18,r4
   21504:	2823883a 	mov	r17,r5
   21508:	d9800005 	stb	r6,0(sp)
   2150c:	3821883a 	mov	r16,r7
   21510:	04000716 	blt	zero,r16,21530 <print_repeat+0x44>
   21514:	0005883a 	mov	r2,zero
   21518:	dfc00417 	ldw	ra,16(sp)
   2151c:	dc800317 	ldw	r18,12(sp)
   21520:	dc400217 	ldw	r17,8(sp)
   21524:	dc000117 	ldw	r16,4(sp)
   21528:	dec00504 	addi	sp,sp,20
   2152c:	f800283a 	ret
   21530:	88800117 	ldw	r2,4(r17)
   21534:	01c00044 	movi	r7,1
   21538:	d80d883a 	mov	r6,sp
   2153c:	880b883a 	mov	r5,r17
   21540:	9009883a 	mov	r4,r18
   21544:	103ee83a 	callr	r2
   21548:	843fffc4 	addi	r16,r16,-1
   2154c:	103ff026 	beq	r2,zero,21510 <print_repeat+0x24>
   21550:	00bfffc4 	movi	r2,-1
   21554:	003ff006 	br	21518 <print_repeat+0x2c>

00021558 <___svfprintf_internal_r>:
   21558:	deffe604 	addi	sp,sp,-104
   2155c:	df001815 	stw	fp,96(sp)
   21560:	ddc01715 	stw	r23,92(sp)
   21564:	dd801615 	stw	r22,88(sp)
   21568:	dd001415 	stw	r20,80(sp)
   2156c:	dcc01315 	stw	r19,76(sp)
   21570:	dc801215 	stw	r18,72(sp)
   21574:	dc401115 	stw	r17,68(sp)
   21578:	dc001015 	stw	r16,64(sp)
   2157c:	dfc01915 	stw	ra,100(sp)
   21580:	dd401515 	stw	r21,84(sp)
   21584:	2021883a 	mov	r16,r4
   21588:	282f883a 	mov	r23,r5
   2158c:	d9800515 	stw	r6,20(sp)
   21590:	3839883a 	mov	fp,r7
   21594:	002d883a 	mov	r22,zero
   21598:	d8000215 	stw	zero,8(sp)
   2159c:	0027883a 	mov	r19,zero
   215a0:	0029883a 	mov	r20,zero
   215a4:	0025883a 	mov	r18,zero
   215a8:	0023883a 	mov	r17,zero
   215ac:	d8000115 	stw	zero,4(sp)
   215b0:	d8000015 	stw	zero,0(sp)
   215b4:	0005883a 	mov	r2,zero
   215b8:	00000206 	br	215c4 <___svfprintf_internal_r+0x6c>
   215bc:	114000e0 	cmpeqi	r5,r2,3
   215c0:	28003f1e 	bne	r5,zero,216c0 <___svfprintf_internal_r+0x168>
   215c4:	d8c00517 	ldw	r3,20(sp)
   215c8:	19000003 	ldbu	r4,0(r3)
   215cc:	18c00044 	addi	r3,r3,1
   215d0:	d8c00515 	stw	r3,20(sp)
   215d4:	21803fcc 	andi	r6,r4,255
   215d8:	3180201c 	xori	r6,r6,128
   215dc:	31bfe004 	addi	r6,r6,-128
   215e0:	30001426 	beq	r6,zero,21634 <___svfprintf_internal_r+0xdc>
   215e4:	114000a0 	cmpeqi	r5,r2,2
   215e8:	2800231e 	bne	r5,zero,21678 <___svfprintf_internal_r+0x120>
   215ec:	114000c8 	cmpgei	r5,r2,3
   215f0:	283ff21e 	bne	r5,zero,215bc <___svfprintf_internal_r+0x64>
   215f4:	10000426 	beq	r2,zero,21608 <___svfprintf_internal_r+0xb0>
   215f8:	10800060 	cmpeqi	r2,r2,1
   215fc:	10001a1e 	bne	r2,zero,21668 <___svfprintf_internal_r+0x110>
   21600:	00800084 	movi	r2,2
   21604:	003fef06 	br	215c4 <___svfprintf_internal_r+0x6c>
   21608:	31800960 	cmpeqi	r6,r6,37
   2160c:	3000fe1e 	bne	r6,zero,21a08 <___svfprintf_internal_r+0x4b0>
   21610:	b8800117 	ldw	r2,4(r23)
   21614:	d9000805 	stb	r4,32(sp)
   21618:	01c00044 	movi	r7,1
   2161c:	d9800804 	addi	r6,sp,32
   21620:	b80b883a 	mov	r5,r23
   21624:	8009883a 	mov	r4,r16
   21628:	103ee83a 	callr	r2
   2162c:	10001d26 	beq	r2,zero,216a4 <___svfprintf_internal_r+0x14c>
   21630:	05bfffc4 	movi	r22,-1
   21634:	b005883a 	mov	r2,r22
   21638:	dfc01917 	ldw	ra,100(sp)
   2163c:	df001817 	ldw	fp,96(sp)
   21640:	ddc01717 	ldw	r23,92(sp)
   21644:	dd801617 	ldw	r22,88(sp)
   21648:	dd401517 	ldw	r21,84(sp)
   2164c:	dd001417 	ldw	r20,80(sp)
   21650:	dcc01317 	ldw	r19,76(sp)
   21654:	dc801217 	ldw	r18,72(sp)
   21658:	dc401117 	ldw	r17,68(sp)
   2165c:	dc001017 	ldw	r16,64(sp)
   21660:	dec01a04 	addi	sp,sp,104
   21664:	f800283a 	ret
   21668:	30800c20 	cmpeqi	r2,r6,48
   2166c:	1000ef1e 	bne	r2,zero,21a2c <___svfprintf_internal_r+0x4d4>
   21670:	30800958 	cmpnei	r2,r6,37
   21674:	103fe626 	beq	r2,zero,21610 <___svfprintf_internal_r+0xb8>
   21678:	217ff404 	addi	r5,r4,-48
   2167c:	29403fcc 	andi	r5,r5,255
   21680:	288002a8 	cmpgeui	r2,r5,10
   21684:	10000b1e 	bne	r2,zero,216b4 <___svfprintf_internal_r+0x15c>
   21688:	88bfffe0 	cmpeqi	r2,r17,-1
   2168c:	1000071e 	bne	r2,zero,216ac <___svfprintf_internal_r+0x154>
   21690:	880490ba 	slli	r2,r17,2
   21694:	1463883a 	add	r17,r2,r17
   21698:	8822907a 	slli	r17,r17,1
   2169c:	2c63883a 	add	r17,r5,r17
   216a0:	003fd706 	br	21600 <___svfprintf_internal_r+0xa8>
   216a4:	b5800044 	addi	r22,r22,1
   216a8:	003fc606 	br	215c4 <___svfprintf_internal_r+0x6c>
   216ac:	0023883a 	mov	r17,zero
   216b0:	003ffa06 	br	2169c <___svfprintf_internal_r+0x144>
   216b4:	30800ba0 	cmpeqi	r2,r6,46
   216b8:	1000e11e 	bne	r2,zero,21a40 <___svfprintf_internal_r+0x4e8>
   216bc:	00800084 	movi	r2,2
   216c0:	213ff404 	addi	r4,r4,-48
   216c4:	21003fcc 	andi	r4,r4,255
   216c8:	214002a8 	cmpgeui	r5,r4,10
   216cc:	2800091e 	bne	r5,zero,216f4 <___svfprintf_internal_r+0x19c>
   216d0:	917fffe0 	cmpeqi	r5,r18,-1
   216d4:	2800051e 	bne	r5,zero,216ec <___svfprintf_internal_r+0x194>
   216d8:	900a90ba 	slli	r5,r18,2
   216dc:	2ca5883a 	add	r18,r5,r18
   216e0:	9024907a 	slli	r18,r18,1
   216e4:	24a5883a 	add	r18,r4,r18
   216e8:	003fb606 	br	215c4 <___svfprintf_internal_r+0x6c>
   216ec:	0025883a 	mov	r18,zero
   216f0:	003ffc06 	br	216e4 <___svfprintf_internal_r+0x18c>
   216f4:	30801b20 	cmpeqi	r2,r6,108
   216f8:	1000cf1e 	bne	r2,zero,21a38 <___svfprintf_internal_r+0x4e0>
   216fc:	90bfffe0 	cmpeqi	r2,r18,-1
   21700:	10000f1e 	bne	r2,zero,21740 <___svfprintf_internal_r+0x1e8>
   21704:	d8000015 	stw	zero,0(sp)
   21708:	30801be0 	cmpeqi	r2,r6,111
   2170c:	1000ce1e 	bne	r2,zero,21a48 <___svfprintf_internal_r+0x4f0>
   21710:	30801c08 	cmpgei	r2,r6,112
   21714:	1000171e 	bne	r2,zero,21774 <___svfprintf_internal_r+0x21c>
   21718:	308018e0 	cmpeqi	r2,r6,99
   2171c:	1000a31e 	bne	r2,zero,219ac <___svfprintf_internal_r+0x454>
   21720:	30801908 	cmpgei	r2,r6,100
   21724:	1000081e 	bne	r2,zero,21748 <___svfprintf_internal_r+0x1f0>
   21728:	31801620 	cmpeqi	r6,r6,88
   2172c:	303fa126 	beq	r6,zero,215b4 <___svfprintf_internal_r+0x5c>
   21730:	00800044 	movi	r2,1
   21734:	d8800215 	stw	r2,8(sp)
   21738:	05000404 	movi	r20,16
   2173c:	0000c306 	br	21a4c <___svfprintf_internal_r+0x4f4>
   21740:	04800044 	movi	r18,1
   21744:	003ff006 	br	21708 <___svfprintf_internal_r+0x1b0>
   21748:	30801920 	cmpeqi	r2,r6,100
   2174c:	1000021e 	bne	r2,zero,21758 <___svfprintf_internal_r+0x200>
   21750:	31801a60 	cmpeqi	r6,r6,105
   21754:	303f9726 	beq	r6,zero,215b4 <___svfprintf_internal_r+0x5c>
   21758:	e0800104 	addi	r2,fp,4
   2175c:	d8800415 	stw	r2,16(sp)
   21760:	9800ba26 	beq	r19,zero,21a4c <___svfprintf_internal_r+0x4f4>
   21764:	e5400017 	ldw	r21,0(fp)
   21768:	a8002216 	blt	r21,zero,217f4 <___svfprintf_internal_r+0x29c>
   2176c:	04c00044 	movi	r19,1
   21770:	0000ba06 	br	21a5c <___svfprintf_internal_r+0x504>
   21774:	30801d60 	cmpeqi	r2,r6,117
   21778:	1000b41e 	bne	r2,zero,21a4c <___svfprintf_internal_r+0x4f4>
   2177c:	30801e20 	cmpeqi	r2,r6,120
   21780:	103fed1e 	bne	r2,zero,21738 <___svfprintf_internal_r+0x1e0>
   21784:	31801ce0 	cmpeqi	r6,r6,115
   21788:	303f8a26 	beq	r6,zero,215b4 <___svfprintf_internal_r+0x5c>
   2178c:	e5400017 	ldw	r21,0(fp)
   21790:	e0800104 	addi	r2,fp,4
   21794:	d8800315 	stw	r2,12(sp)
   21798:	a809883a 	mov	r4,r21
   2179c:	0021a7c0 	call	21a7c <strlen>
   217a0:	888fc83a 	sub	r7,r17,r2
   217a4:	1039883a 	mov	fp,r2
   217a8:	01c0080e 	bge	zero,r7,217cc <___svfprintf_internal_r+0x274>
   217ac:	01800804 	movi	r6,32
   217b0:	b80b883a 	mov	r5,r23
   217b4:	8009883a 	mov	r4,r16
   217b8:	d9c00415 	stw	r7,16(sp)
   217bc:	00214ec0 	call	214ec <print_repeat>
   217c0:	103f9b1e 	bne	r2,zero,21630 <___svfprintf_internal_r+0xd8>
   217c4:	d9c00417 	ldw	r7,16(sp)
   217c8:	b1ed883a 	add	r22,r22,r7
   217cc:	b8800117 	ldw	r2,4(r23)
   217d0:	e00f883a 	mov	r7,fp
   217d4:	a80d883a 	mov	r6,r21
   217d8:	b80b883a 	mov	r5,r23
   217dc:	8009883a 	mov	r4,r16
   217e0:	103ee83a 	callr	r2
   217e4:	103f921e 	bne	r2,zero,21630 <___svfprintf_internal_r+0xd8>
   217e8:	b72d883a 	add	r22,r22,fp
   217ec:	df000317 	ldw	fp,12(sp)
   217f0:	003f7406 	br	215c4 <___svfprintf_internal_r+0x6c>
   217f4:	056bc83a 	sub	r21,zero,r21
   217f8:	04c00044 	movi	r19,1
   217fc:	00c00044 	movi	r3,1
   21800:	df000804 	addi	fp,sp,32
   21804:	e00d883a 	mov	r6,fp
   21808:	a8002e1e 	bne	r21,zero,218c4 <___svfprintf_internal_r+0x36c>
   2180c:	e185c83a 	sub	r2,fp,r6
   21810:	d8800315 	stw	r2,12(sp)
   21814:	9085c83a 	sub	r2,r18,r2
   21818:	0080090e 	bge	zero,r2,21840 <___svfprintf_internal_r+0x2e8>
   2181c:	e085883a 	add	r2,fp,r2
   21820:	d9001004 	addi	r4,sp,64
   21824:	e100042e 	bgeu	fp,r4,21838 <___svfprintf_internal_r+0x2e0>
   21828:	e7000044 	addi	fp,fp,1
   2182c:	01000c04 	movi	r4,48
   21830:	e13fffc5 	stb	r4,-1(fp)
   21834:	e0bffa1e 	bne	fp,r2,21820 <___svfprintf_internal_r+0x2c8>
   21838:	e185c83a 	sub	r2,fp,r6
   2183c:	d8800315 	stw	r2,12(sp)
   21840:	d8800317 	ldw	r2,12(sp)
   21844:	1897883a 	add	r11,r3,r2
   21848:	d8800017 	ldw	r2,0(sp)
   2184c:	8aebc83a 	sub	r21,r17,r11
   21850:	10003526 	beq	r2,zero,21928 <___svfprintf_internal_r+0x3d0>
   21854:	18000a26 	beq	r3,zero,21880 <___svfprintf_internal_r+0x328>
   21858:	00800b44 	movi	r2,45
   2185c:	d88007c5 	stb	r2,31(sp)
   21860:	b8800117 	ldw	r2,4(r23)
   21864:	01c00044 	movi	r7,1
   21868:	d98007c4 	addi	r6,sp,31
   2186c:	b80b883a 	mov	r5,r23
   21870:	8009883a 	mov	r4,r16
   21874:	103ee83a 	callr	r2
   21878:	103f6d1e 	bne	r2,zero,21630 <___svfprintf_internal_r+0xd8>
   2187c:	b5800044 	addi	r22,r22,1
   21880:	0540070e 	bge	zero,r21,218a0 <___svfprintf_internal_r+0x348>
   21884:	a80f883a 	mov	r7,r21
   21888:	01800c04 	movi	r6,48
   2188c:	b80b883a 	mov	r5,r23
   21890:	8009883a 	mov	r4,r16
   21894:	00214ec0 	call	214ec <print_repeat>
   21898:	103f651e 	bne	r2,zero,21630 <___svfprintf_internal_r+0xd8>
   2189c:	b56d883a 	add	r22,r22,r21
   218a0:	d8800317 	ldw	r2,12(sp)
   218a4:	b72d883a 	add	r22,r22,fp
   218a8:	172bc83a 	sub	r21,r2,fp
   218ac:	af05883a 	add	r2,r21,fp
   218b0:	b707c83a 	sub	r3,r22,fp
   218b4:	00803216 	blt	zero,r2,21980 <___svfprintf_internal_r+0x428>
   218b8:	df000417 	ldw	fp,16(sp)
   218bc:	182d883a 	mov	r22,r3
   218c0:	003f3c06 	br	215b4 <___svfprintf_internal_r+0x5c>
   218c4:	a809883a 	mov	r4,r21
   218c8:	a00b883a 	mov	r5,r20
   218cc:	d8c00615 	stw	r3,24(sp)
   218d0:	0021b8c0 	call	21b8c <__udivsi3>
   218d4:	1009883a 	mov	r4,r2
   218d8:	a00b883a 	mov	r5,r20
   218dc:	d8800315 	stw	r2,12(sp)
   218e0:	00212e80 	call	212e8 <__mulsi3>
   218e4:	a8abc83a 	sub	r21,r21,r2
   218e8:	a8800288 	cmpgei	r2,r21,10
   218ec:	d9000317 	ldw	r4,12(sp)
   218f0:	d8c00617 	ldw	r3,24(sp)
   218f4:	d9800804 	addi	r6,sp,32
   218f8:	1000051e 	bne	r2,zero,21910 <___svfprintf_internal_r+0x3b8>
   218fc:	ad400c04 	addi	r21,r21,48
   21900:	e7000044 	addi	fp,fp,1
   21904:	e57fffc5 	stb	r21,-1(fp)
   21908:	202b883a 	mov	r21,r4
   2190c:	003fbe06 	br	21808 <___svfprintf_internal_r+0x2b0>
   21910:	d8800217 	ldw	r2,8(sp)
   21914:	10000226 	beq	r2,zero,21920 <___svfprintf_internal_r+0x3c8>
   21918:	ad400dc4 	addi	r21,r21,55
   2191c:	003ff806 	br	21900 <___svfprintf_internal_r+0x3a8>
   21920:	ad4015c4 	addi	r21,r21,87
   21924:	003ff606 	br	21900 <___svfprintf_internal_r+0x3a8>
   21928:	0540090e 	bge	zero,r21,21950 <___svfprintf_internal_r+0x3f8>
   2192c:	a80f883a 	mov	r7,r21
   21930:	01800804 	movi	r6,32
   21934:	b80b883a 	mov	r5,r23
   21938:	8009883a 	mov	r4,r16
   2193c:	d8c00615 	stw	r3,24(sp)
   21940:	00214ec0 	call	214ec <print_repeat>
   21944:	103f3a1e 	bne	r2,zero,21630 <___svfprintf_internal_r+0xd8>
   21948:	d8c00617 	ldw	r3,24(sp)
   2194c:	b56d883a 	add	r22,r22,r21
   21950:	183fd326 	beq	r3,zero,218a0 <___svfprintf_internal_r+0x348>
   21954:	00800b44 	movi	r2,45
   21958:	d88007c5 	stb	r2,31(sp)
   2195c:	b8800117 	ldw	r2,4(r23)
   21960:	01c00044 	movi	r7,1
   21964:	d98007c4 	addi	r6,sp,31
   21968:	b80b883a 	mov	r5,r23
   2196c:	8009883a 	mov	r4,r16
   21970:	103ee83a 	callr	r2
   21974:	103f2e1e 	bne	r2,zero,21630 <___svfprintf_internal_r+0xd8>
   21978:	b5800044 	addi	r22,r22,1
   2197c:	003fc806 	br	218a0 <___svfprintf_internal_r+0x348>
   21980:	e0bfffc3 	ldbu	r2,-1(fp)
   21984:	01c00044 	movi	r7,1
   21988:	d98007c4 	addi	r6,sp,31
   2198c:	d88007c5 	stb	r2,31(sp)
   21990:	b8800117 	ldw	r2,4(r23)
   21994:	b80b883a 	mov	r5,r23
   21998:	8009883a 	mov	r4,r16
   2199c:	e73fffc4 	addi	fp,fp,-1
   219a0:	103ee83a 	callr	r2
   219a4:	103fc126 	beq	r2,zero,218ac <___svfprintf_internal_r+0x354>
   219a8:	003f2106 	br	21630 <___svfprintf_internal_r+0xd8>
   219ac:	88800090 	cmplti	r2,r17,2
   219b0:	1000081e 	bne	r2,zero,219d4 <___svfprintf_internal_r+0x47c>
   219b4:	8d7fffc4 	addi	r21,r17,-1
   219b8:	a80f883a 	mov	r7,r21
   219bc:	01800804 	movi	r6,32
   219c0:	b80b883a 	mov	r5,r23
   219c4:	8009883a 	mov	r4,r16
   219c8:	00214ec0 	call	214ec <print_repeat>
   219cc:	103f181e 	bne	r2,zero,21630 <___svfprintf_internal_r+0xd8>
   219d0:	b56d883a 	add	r22,r22,r21
   219d4:	e0800017 	ldw	r2,0(fp)
   219d8:	01c00044 	movi	r7,1
   219dc:	d9800804 	addi	r6,sp,32
   219e0:	d8800805 	stb	r2,32(sp)
   219e4:	b8800117 	ldw	r2,4(r23)
   219e8:	b80b883a 	mov	r5,r23
   219ec:	8009883a 	mov	r4,r16
   219f0:	e5400104 	addi	r21,fp,4
   219f4:	103ee83a 	callr	r2
   219f8:	103f0d1e 	bne	r2,zero,21630 <___svfprintf_internal_r+0xd8>
   219fc:	b5800044 	addi	r22,r22,1
   21a00:	a839883a 	mov	fp,r21
   21a04:	003eef06 	br	215c4 <___svfprintf_internal_r+0x6c>
   21a08:	d8000215 	stw	zero,8(sp)
   21a0c:	d8000115 	stw	zero,4(sp)
   21a10:	d8000015 	stw	zero,0(sp)
   21a14:	04c00044 	movi	r19,1
   21a18:	05000284 	movi	r20,10
   21a1c:	04bfffc4 	movi	r18,-1
   21a20:	047fffc4 	movi	r17,-1
   21a24:	00800044 	movi	r2,1
   21a28:	003ee606 	br	215c4 <___svfprintf_internal_r+0x6c>
   21a2c:	00800044 	movi	r2,1
   21a30:	d8800015 	stw	r2,0(sp)
   21a34:	003ef206 	br	21600 <___svfprintf_internal_r+0xa8>
   21a38:	00800044 	movi	r2,1
   21a3c:	d8800115 	stw	r2,4(sp)
   21a40:	008000c4 	movi	r2,3
   21a44:	003edf06 	br	215c4 <___svfprintf_internal_r+0x6c>
   21a48:	05000204 	movi	r20,8
   21a4c:	e0800104 	addi	r2,fp,4
   21a50:	d8800415 	stw	r2,16(sp)
   21a54:	e5400017 	ldw	r21,0(fp)
   21a58:	0027883a 	mov	r19,zero
   21a5c:	0007883a 	mov	r3,zero
   21a60:	003f6706 	br	21800 <___svfprintf_internal_r+0x2a8>

00021a64 <__vfprintf_internal_unused>:
   21a64:	008000f4 	movhi	r2,3
   21a68:	300f883a 	mov	r7,r6
   21a6c:	280d883a 	mov	r6,r5
   21a70:	200b883a 	mov	r5,r4
   21a74:	11202717 	ldw	r4,-32612(r2)
   21a78:	00215581 	jmpi	21558 <___svfprintf_internal_r>

00021a7c <strlen>:
   21a7c:	2005883a 	mov	r2,r4
   21a80:	10c00007 	ldb	r3,0(r2)
   21a84:	1800021e 	bne	r3,zero,21a90 <strlen+0x14>
   21a88:	1105c83a 	sub	r2,r2,r4
   21a8c:	f800283a 	ret
   21a90:	10800044 	addi	r2,r2,1
   21a94:	003ffa06 	br	21a80 <strlen+0x4>

00021a98 <__divsi3>:
   21a98:	20001a16 	blt	r4,zero,21b04 <__divsi3+0x6c>
   21a9c:	000f883a 	mov	r7,zero
   21aa0:	2800020e 	bge	r5,zero,21aac <__divsi3+0x14>
   21aa4:	014bc83a 	sub	r5,zero,r5
   21aa8:	39c0005c 	xori	r7,r7,1
   21aac:	200d883a 	mov	r6,r4
   21ab0:	00c00044 	movi	r3,1
   21ab4:	2900092e 	bgeu	r5,r4,21adc <__divsi3+0x44>
   21ab8:	00800804 	movi	r2,32
   21abc:	00c00044 	movi	r3,1
   21ac0:	00000106 	br	21ac8 <__divsi3+0x30>
   21ac4:	10001226 	beq	r2,zero,21b10 <__divsi3+0x78>
   21ac8:	294b883a 	add	r5,r5,r5
   21acc:	10bfffc4 	addi	r2,r2,-1
   21ad0:	18c7883a 	add	r3,r3,r3
   21ad4:	293ffb36 	bltu	r5,r4,21ac4 <__divsi3+0x2c>
   21ad8:	18000d26 	beq	r3,zero,21b10 <__divsi3+0x78>
   21adc:	0005883a 	mov	r2,zero
   21ae0:	31400236 	bltu	r6,r5,21aec <__divsi3+0x54>
   21ae4:	314dc83a 	sub	r6,r6,r5
   21ae8:	10c4b03a 	or	r2,r2,r3
   21aec:	1806d07a 	srli	r3,r3,1
   21af0:	280ad07a 	srli	r5,r5,1
   21af4:	183ffa1e 	bne	r3,zero,21ae0 <__divsi3+0x48>
   21af8:	38000126 	beq	r7,zero,21b00 <__divsi3+0x68>
   21afc:	0085c83a 	sub	r2,zero,r2
   21b00:	f800283a 	ret
   21b04:	0109c83a 	sub	r4,zero,r4
   21b08:	01c00044 	movi	r7,1
   21b0c:	003fe406 	br	21aa0 <__divsi3+0x8>
   21b10:	0005883a 	mov	r2,zero
   21b14:	003ff806 	br	21af8 <__divsi3+0x60>

00021b18 <__modsi3>:
   21b18:	20001916 	blt	r4,zero,21b80 <__modsi3+0x68>
   21b1c:	000f883a 	mov	r7,zero
   21b20:	2005883a 	mov	r2,r4
   21b24:	2800010e 	bge	r5,zero,21b2c <__modsi3+0x14>
   21b28:	014bc83a 	sub	r5,zero,r5
   21b2c:	00c00044 	movi	r3,1
   21b30:	2900092e 	bgeu	r5,r4,21b58 <__modsi3+0x40>
   21b34:	01800804 	movi	r6,32
   21b38:	00c00044 	movi	r3,1
   21b3c:	00000106 	br	21b44 <__modsi3+0x2c>
   21b40:	30000d26 	beq	r6,zero,21b78 <__modsi3+0x60>
   21b44:	294b883a 	add	r5,r5,r5
   21b48:	31bfffc4 	addi	r6,r6,-1
   21b4c:	18c7883a 	add	r3,r3,r3
   21b50:	293ffb36 	bltu	r5,r4,21b40 <__modsi3+0x28>
   21b54:	18000826 	beq	r3,zero,21b78 <__modsi3+0x60>
   21b58:	1806d07a 	srli	r3,r3,1
   21b5c:	11400136 	bltu	r2,r5,21b64 <__modsi3+0x4c>
   21b60:	1145c83a 	sub	r2,r2,r5
   21b64:	280ad07a 	srli	r5,r5,1
   21b68:	183ffb1e 	bne	r3,zero,21b58 <__modsi3+0x40>
   21b6c:	38000126 	beq	r7,zero,21b74 <__modsi3+0x5c>
   21b70:	0085c83a 	sub	r2,zero,r2
   21b74:	f800283a 	ret
   21b78:	2005883a 	mov	r2,r4
   21b7c:	003ffb06 	br	21b6c <__modsi3+0x54>
   21b80:	0109c83a 	sub	r4,zero,r4
   21b84:	01c00044 	movi	r7,1
   21b88:	003fe506 	br	21b20 <__modsi3+0x8>

00021b8c <__udivsi3>:
   21b8c:	200d883a 	mov	r6,r4
   21b90:	2900152e 	bgeu	r5,r4,21be8 <__udivsi3+0x5c>
   21b94:	28001416 	blt	r5,zero,21be8 <__udivsi3+0x5c>
   21b98:	00800804 	movi	r2,32
   21b9c:	00c00044 	movi	r3,1
   21ba0:	00000206 	br	21bac <__udivsi3+0x20>
   21ba4:	10000e26 	beq	r2,zero,21be0 <__udivsi3+0x54>
   21ba8:	28000516 	blt	r5,zero,21bc0 <__udivsi3+0x34>
   21bac:	294b883a 	add	r5,r5,r5
   21bb0:	10bfffc4 	addi	r2,r2,-1
   21bb4:	18c7883a 	add	r3,r3,r3
   21bb8:	293ffa36 	bltu	r5,r4,21ba4 <__udivsi3+0x18>
   21bbc:	18000826 	beq	r3,zero,21be0 <__udivsi3+0x54>
   21bc0:	0005883a 	mov	r2,zero
   21bc4:	31400236 	bltu	r6,r5,21bd0 <__udivsi3+0x44>
   21bc8:	314dc83a 	sub	r6,r6,r5
   21bcc:	10c4b03a 	or	r2,r2,r3
   21bd0:	1806d07a 	srli	r3,r3,1
   21bd4:	280ad07a 	srli	r5,r5,1
   21bd8:	183ffa1e 	bne	r3,zero,21bc4 <__udivsi3+0x38>
   21bdc:	f800283a 	ret
   21be0:	0005883a 	mov	r2,zero
   21be4:	f800283a 	ret
   21be8:	00c00044 	movi	r3,1
   21bec:	003ff406 	br	21bc0 <__udivsi3+0x34>

00021bf0 <__umodsi3>:
   21bf0:	2005883a 	mov	r2,r4
   21bf4:	2900132e 	bgeu	r5,r4,21c44 <__umodsi3+0x54>
   21bf8:	28001216 	blt	r5,zero,21c44 <__umodsi3+0x54>
   21bfc:	01800804 	movi	r6,32
   21c00:	00c00044 	movi	r3,1
   21c04:	00000206 	br	21c10 <__umodsi3+0x20>
   21c08:	30000c26 	beq	r6,zero,21c3c <__umodsi3+0x4c>
   21c0c:	28000516 	blt	r5,zero,21c24 <__umodsi3+0x34>
   21c10:	294b883a 	add	r5,r5,r5
   21c14:	31bfffc4 	addi	r6,r6,-1
   21c18:	18c7883a 	add	r3,r3,r3
   21c1c:	293ffa36 	bltu	r5,r4,21c08 <__umodsi3+0x18>
   21c20:	18000626 	beq	r3,zero,21c3c <__umodsi3+0x4c>
   21c24:	1806d07a 	srli	r3,r3,1
   21c28:	11400136 	bltu	r2,r5,21c30 <__umodsi3+0x40>
   21c2c:	1145c83a 	sub	r2,r2,r5
   21c30:	280ad07a 	srli	r5,r5,1
   21c34:	183ffb1e 	bne	r3,zero,21c24 <__umodsi3+0x34>
   21c38:	f800283a 	ret
   21c3c:	2005883a 	mov	r2,r4
   21c40:	f800283a 	ret
   21c44:	00c00044 	movi	r3,1
   21c48:	003ff606 	br	21c24 <__umodsi3+0x34>

00021c4c <alt_dcache_flush_all>:
   21c4c:	deffff04 	addi	sp,sp,-4
   21c50:	df000015 	stw	fp,0(sp)
   21c54:	d839883a 	mov	fp,sp
   21c58:	0001883a 	nop
   21c5c:	e037883a 	mov	sp,fp
   21c60:	df000017 	ldw	fp,0(sp)
   21c64:	dec00104 	addi	sp,sp,4
   21c68:	f800283a 	ret

00021c6c <alt_ic_isr_register>:
   21c6c:	defff904 	addi	sp,sp,-28
   21c70:	dfc00615 	stw	ra,24(sp)
   21c74:	df000515 	stw	fp,20(sp)
   21c78:	df000504 	addi	fp,sp,20
   21c7c:	e13fff15 	stw	r4,-4(fp)
   21c80:	e17ffe15 	stw	r5,-8(fp)
   21c84:	e1bffd15 	stw	r6,-12(fp)
   21c88:	e1fffc15 	stw	r7,-16(fp)
   21c8c:	e0800217 	ldw	r2,8(fp)
   21c90:	d8800015 	stw	r2,0(sp)
   21c94:	e1fffc17 	ldw	r7,-16(fp)
   21c98:	e1bffd17 	ldw	r6,-12(fp)
   21c9c:	e17ffe17 	ldw	r5,-8(fp)
   21ca0:	e13fff17 	ldw	r4,-4(fp)
   21ca4:	0021e1c0 	call	21e1c <alt_iic_isr_register>
   21ca8:	e037883a 	mov	sp,fp
   21cac:	dfc00117 	ldw	ra,4(sp)
   21cb0:	df000017 	ldw	fp,0(sp)
   21cb4:	dec00204 	addi	sp,sp,8
   21cb8:	f800283a 	ret

00021cbc <alt_ic_irq_enable>:
   21cbc:	defff904 	addi	sp,sp,-28
   21cc0:	df000615 	stw	fp,24(sp)
   21cc4:	df000604 	addi	fp,sp,24
   21cc8:	e13ffb15 	stw	r4,-20(fp)
   21ccc:	e17ffa15 	stw	r5,-24(fp)
   21cd0:	e0bffa17 	ldw	r2,-24(fp)
   21cd4:	e0bfff15 	stw	r2,-4(fp)
   21cd8:	0005303a 	rdctl	r2,status
   21cdc:	e0bffe15 	stw	r2,-8(fp)
   21ce0:	e0fffe17 	ldw	r3,-8(fp)
   21ce4:	00bfff84 	movi	r2,-2
   21ce8:	1884703a 	and	r2,r3,r2
   21cec:	1001703a 	wrctl	status,r2
   21cf0:	e0bffe17 	ldw	r2,-8(fp)
   21cf4:	e0bffd15 	stw	r2,-12(fp)
   21cf8:	00c00044 	movi	r3,1
   21cfc:	e0bfff17 	ldw	r2,-4(fp)
   21d00:	1884983a 	sll	r2,r3,r2
   21d04:	1007883a 	mov	r3,r2
   21d08:	d0a11717 	ldw	r2,-31652(gp)
   21d0c:	1884b03a 	or	r2,r3,r2
   21d10:	d0a11715 	stw	r2,-31652(gp)
   21d14:	d0a11717 	ldw	r2,-31652(gp)
   21d18:	100170fa 	wrctl	ienable,r2
   21d1c:	e0bffd17 	ldw	r2,-12(fp)
   21d20:	e0bffc15 	stw	r2,-16(fp)
   21d24:	e0bffc17 	ldw	r2,-16(fp)
   21d28:	1001703a 	wrctl	status,r2
   21d2c:	0001883a 	nop
   21d30:	0005883a 	mov	r2,zero
   21d34:	e037883a 	mov	sp,fp
   21d38:	df000017 	ldw	fp,0(sp)
   21d3c:	dec00104 	addi	sp,sp,4
   21d40:	f800283a 	ret

00021d44 <alt_ic_irq_disable>:
   21d44:	defff904 	addi	sp,sp,-28
   21d48:	df000615 	stw	fp,24(sp)
   21d4c:	df000604 	addi	fp,sp,24
   21d50:	e13ffb15 	stw	r4,-20(fp)
   21d54:	e17ffa15 	stw	r5,-24(fp)
   21d58:	e0bffa17 	ldw	r2,-24(fp)
   21d5c:	e0bfff15 	stw	r2,-4(fp)
   21d60:	0005303a 	rdctl	r2,status
   21d64:	e0bffe15 	stw	r2,-8(fp)
   21d68:	e0fffe17 	ldw	r3,-8(fp)
   21d6c:	00bfff84 	movi	r2,-2
   21d70:	1884703a 	and	r2,r3,r2
   21d74:	1001703a 	wrctl	status,r2
   21d78:	e0bffe17 	ldw	r2,-8(fp)
   21d7c:	e0bffd15 	stw	r2,-12(fp)
   21d80:	00c00044 	movi	r3,1
   21d84:	e0bfff17 	ldw	r2,-4(fp)
   21d88:	1884983a 	sll	r2,r3,r2
   21d8c:	0084303a 	nor	r2,zero,r2
   21d90:	1007883a 	mov	r3,r2
   21d94:	d0a11717 	ldw	r2,-31652(gp)
   21d98:	1884703a 	and	r2,r3,r2
   21d9c:	d0a11715 	stw	r2,-31652(gp)
   21da0:	d0a11717 	ldw	r2,-31652(gp)
   21da4:	100170fa 	wrctl	ienable,r2
   21da8:	e0bffd17 	ldw	r2,-12(fp)
   21dac:	e0bffc15 	stw	r2,-16(fp)
   21db0:	e0bffc17 	ldw	r2,-16(fp)
   21db4:	1001703a 	wrctl	status,r2
   21db8:	0001883a 	nop
   21dbc:	0005883a 	mov	r2,zero
   21dc0:	e037883a 	mov	sp,fp
   21dc4:	df000017 	ldw	fp,0(sp)
   21dc8:	dec00104 	addi	sp,sp,4
   21dcc:	f800283a 	ret

00021dd0 <alt_ic_irq_enabled>:
   21dd0:	defffc04 	addi	sp,sp,-16
   21dd4:	df000315 	stw	fp,12(sp)
   21dd8:	df000304 	addi	fp,sp,12
   21ddc:	e13ffe15 	stw	r4,-8(fp)
   21de0:	e17ffd15 	stw	r5,-12(fp)
   21de4:	000530fa 	rdctl	r2,ienable
   21de8:	e0bfff15 	stw	r2,-4(fp)
   21dec:	00c00044 	movi	r3,1
   21df0:	e0bffd17 	ldw	r2,-12(fp)
   21df4:	1884983a 	sll	r2,r3,r2
   21df8:	1007883a 	mov	r3,r2
   21dfc:	e0bfff17 	ldw	r2,-4(fp)
   21e00:	1884703a 	and	r2,r3,r2
   21e04:	1004c03a 	cmpne	r2,r2,zero
   21e08:	10803fcc 	andi	r2,r2,255
   21e0c:	e037883a 	mov	sp,fp
   21e10:	df000017 	ldw	fp,0(sp)
   21e14:	dec00104 	addi	sp,sp,4
   21e18:	f800283a 	ret

00021e1c <alt_iic_isr_register>:
   21e1c:	defff504 	addi	sp,sp,-44
   21e20:	dfc00a15 	stw	ra,40(sp)
   21e24:	df000915 	stw	fp,36(sp)
   21e28:	df000904 	addi	fp,sp,36
   21e2c:	e13ffa15 	stw	r4,-24(fp)
   21e30:	e17ff915 	stw	r5,-28(fp)
   21e34:	e1bff815 	stw	r6,-32(fp)
   21e38:	e1fff715 	stw	r7,-36(fp)
   21e3c:	00bffa84 	movi	r2,-22
   21e40:	e0bfff15 	stw	r2,-4(fp)
   21e44:	e0bff917 	ldw	r2,-28(fp)
   21e48:	e0bffe15 	stw	r2,-8(fp)
   21e4c:	e0bffe17 	ldw	r2,-8(fp)
   21e50:	10800808 	cmpgei	r2,r2,32
   21e54:	1000251e 	bne	r2,zero,21eec <alt_iic_isr_register+0xd0>
   21e58:	0005303a 	rdctl	r2,status
   21e5c:	e0bffc15 	stw	r2,-16(fp)
   21e60:	e0fffc17 	ldw	r3,-16(fp)
   21e64:	00bfff84 	movi	r2,-2
   21e68:	1884703a 	and	r2,r3,r2
   21e6c:	1001703a 	wrctl	status,r2
   21e70:	e0bffc17 	ldw	r2,-16(fp)
   21e74:	e0bffd15 	stw	r2,-12(fp)
   21e78:	e0bffe17 	ldw	r2,-8(fp)
   21e7c:	100890fa 	slli	r4,r2,3
   21e80:	e0fff817 	ldw	r3,-32(fp)
   21e84:	008000f4 	movhi	r2,3
   21e88:	2085883a 	add	r2,r4,r2
   21e8c:	10e1ac15 	stw	r3,-31056(r2)
   21e90:	e0bffe17 	ldw	r2,-8(fp)
   21e94:	100890fa 	slli	r4,r2,3
   21e98:	e0fff717 	ldw	r3,-36(fp)
   21e9c:	008000f4 	movhi	r2,3
   21ea0:	2085883a 	add	r2,r4,r2
   21ea4:	10e1ad15 	stw	r3,-31052(r2)
   21ea8:	e0bff817 	ldw	r2,-32(fp)
   21eac:	10000526 	beq	r2,zero,21ec4 <alt_iic_isr_register+0xa8>
   21eb0:	e0bffe17 	ldw	r2,-8(fp)
   21eb4:	100b883a 	mov	r5,r2
   21eb8:	e13ffa17 	ldw	r4,-24(fp)
   21ebc:	0021cbc0 	call	21cbc <alt_ic_irq_enable>
   21ec0:	00000406 	br	21ed4 <alt_iic_isr_register+0xb8>
   21ec4:	e0bffe17 	ldw	r2,-8(fp)
   21ec8:	100b883a 	mov	r5,r2
   21ecc:	e13ffa17 	ldw	r4,-24(fp)
   21ed0:	0021d440 	call	21d44 <alt_ic_irq_disable>
   21ed4:	e0bfff15 	stw	r2,-4(fp)
   21ed8:	e0bffd17 	ldw	r2,-12(fp)
   21edc:	e0bffb15 	stw	r2,-20(fp)
   21ee0:	e0bffb17 	ldw	r2,-20(fp)
   21ee4:	1001703a 	wrctl	status,r2
   21ee8:	0001883a 	nop
   21eec:	e0bfff17 	ldw	r2,-4(fp)
   21ef0:	e037883a 	mov	sp,fp
   21ef4:	dfc00117 	ldw	ra,4(sp)
   21ef8:	df000017 	ldw	fp,0(sp)
   21efc:	dec00204 	addi	sp,sp,8
   21f00:	f800283a 	ret

00021f04 <alt_load_section>:
   21f04:	defffc04 	addi	sp,sp,-16
   21f08:	df000315 	stw	fp,12(sp)
   21f0c:	df000304 	addi	fp,sp,12
   21f10:	e13fff15 	stw	r4,-4(fp)
   21f14:	e17ffe15 	stw	r5,-8(fp)
   21f18:	e1bffd15 	stw	r6,-12(fp)
   21f1c:	e0fffe17 	ldw	r3,-8(fp)
   21f20:	e0bfff17 	ldw	r2,-4(fp)
   21f24:	18800c26 	beq	r3,r2,21f58 <alt_load_section+0x54>
   21f28:	00000806 	br	21f4c <alt_load_section+0x48>
   21f2c:	e0ffff17 	ldw	r3,-4(fp)
   21f30:	18800104 	addi	r2,r3,4
   21f34:	e0bfff15 	stw	r2,-4(fp)
   21f38:	e0bffe17 	ldw	r2,-8(fp)
   21f3c:	11000104 	addi	r4,r2,4
   21f40:	e13ffe15 	stw	r4,-8(fp)
   21f44:	18c00017 	ldw	r3,0(r3)
   21f48:	10c00015 	stw	r3,0(r2)
   21f4c:	e0fffe17 	ldw	r3,-8(fp)
   21f50:	e0bffd17 	ldw	r2,-12(fp)
   21f54:	18bff51e 	bne	r3,r2,21f2c <alt_load_section+0x28>
   21f58:	0001883a 	nop
   21f5c:	e037883a 	mov	sp,fp
   21f60:	df000017 	ldw	fp,0(sp)
   21f64:	dec00104 	addi	sp,sp,4
   21f68:	f800283a 	ret

00021f6c <alt_load>:
   21f6c:	defffe04 	addi	sp,sp,-8
   21f70:	dfc00115 	stw	ra,4(sp)
   21f74:	df000015 	stw	fp,0(sp)
   21f78:	d839883a 	mov	fp,sp
   21f7c:	018000f4 	movhi	r6,3
   21f80:	31a03304 	addi	r6,r6,-32564
   21f84:	014000b4 	movhi	r5,2
   21f88:	295f3504 	addi	r5,r5,31956
   21f8c:	010000f4 	movhi	r4,3
   21f90:	21203304 	addi	r4,r4,-32564
   21f94:	0021f040 	call	21f04 <alt_load_section>
   21f98:	018000b4 	movhi	r6,2
   21f9c:	31808904 	addi	r6,r6,548
   21fa0:	014000b4 	movhi	r5,2
   21fa4:	29400804 	addi	r5,r5,32
   21fa8:	010000b4 	movhi	r4,2
   21fac:	21000804 	addi	r4,r4,32
   21fb0:	0021f040 	call	21f04 <alt_load_section>
   21fb4:	018000b4 	movhi	r6,2
   21fb8:	319f3504 	addi	r6,r6,31956
   21fbc:	014000b4 	movhi	r5,2
   21fc0:	295e2504 	addi	r5,r5,30868
   21fc4:	010000b4 	movhi	r4,2
   21fc8:	211e2504 	addi	r4,r4,30868
   21fcc:	0021f040 	call	21f04 <alt_load_section>
   21fd0:	0021c4c0 	call	21c4c <alt_dcache_flush_all>
   21fd4:	00269840 	call	26984 <alt_icache_flush_all>
   21fd8:	0001883a 	nop
   21fdc:	e037883a 	mov	sp,fp
   21fe0:	dfc00117 	ldw	ra,4(sp)
   21fe4:	df000017 	ldw	fp,0(sp)
   21fe8:	dec00204 	addi	sp,sp,8
   21fec:	f800283a 	ret

00021ff0 <alt_main>:
   21ff0:	defffd04 	addi	sp,sp,-12
   21ff4:	dfc00215 	stw	ra,8(sp)
   21ff8:	df000115 	stw	fp,4(sp)
   21ffc:	df000104 	addi	fp,sp,4
   22000:	0009883a 	mov	r4,zero
   22004:	00220a00 	call	220a0 <alt_irq_init>
   22008:	0001883a 	nop
   2200c:	00220dc0 	call	220dc <alt_sys_init>
   22010:	018000b4 	movhi	r6,2
   22014:	319e9804 	addi	r6,r6,31328
   22018:	014000b4 	movhi	r5,2
   2201c:	295e9804 	addi	r5,r5,31328
   22020:	010000b4 	movhi	r4,2
   22024:	211e9804 	addi	r4,r4,31328
   22028:	0026b100 	call	26b10 <alt_io_redirect>
   2202c:	002682c0 	call	2682c <_do_ctors>
   22030:	010000b4 	movhi	r4,2
   22034:	211a2404 	addi	r4,r4,26768
   22038:	00272b40 	call	272b4 <atexit>
   2203c:	d0a11817 	ldw	r2,-31648(gp)
   22040:	d0e11917 	ldw	r3,-31644(gp)
   22044:	d1211a17 	ldw	r4,-31640(gp)
   22048:	200d883a 	mov	r6,r4
   2204c:	180b883a 	mov	r5,r3
   22050:	1009883a 	mov	r4,r2
   22054:	00211400 	call	21140 <main>
   22058:	e0bfff15 	stw	r2,-4(fp)
   2205c:	01000044 	movi	r4,1
   22060:	00266180 	call	26618 <close>
   22064:	e13fff17 	ldw	r4,-4(fp)
   22068:	00272c80 	call	272c8 <exit>

0002206c <alt_dev_reg>:
   2206c:	defffd04 	addi	sp,sp,-12
   22070:	dfc00215 	stw	ra,8(sp)
   22074:	df000115 	stw	fp,4(sp)
   22078:	df000104 	addi	fp,sp,4
   2207c:	e13fff15 	stw	r4,-4(fp)
   22080:	d1600d04 	addi	r5,gp,-32716
   22084:	e13fff17 	ldw	r4,-4(fp)
   22088:	00267840 	call	26784 <alt_dev_llist_insert>
   2208c:	e037883a 	mov	sp,fp
   22090:	dfc00117 	ldw	ra,4(sp)
   22094:	df000017 	ldw	fp,0(sp)
   22098:	dec00204 	addi	sp,sp,8
   2209c:	f800283a 	ret

000220a0 <alt_irq_init>:
   220a0:	defffd04 	addi	sp,sp,-12
   220a4:	dfc00215 	stw	ra,8(sp)
   220a8:	df000115 	stw	fp,4(sp)
   220ac:	df000104 	addi	fp,sp,4
   220b0:	e13fff15 	stw	r4,-4(fp)
   220b4:	00270d00 	call	270d0 <altera_nios2_gen2_irq_init>
   220b8:	00800044 	movi	r2,1
   220bc:	1001703a 	wrctl	status,r2
   220c0:	0001883a 	nop
   220c4:	0001883a 	nop
   220c8:	e037883a 	mov	sp,fp
   220cc:	dfc00117 	ldw	ra,4(sp)
   220d0:	df000017 	ldw	fp,0(sp)
   220d4:	dec00204 	addi	sp,sp,8
   220d8:	f800283a 	ret

000220dc <alt_sys_init>:
   220dc:	defffe04 	addi	sp,sp,-8
   220e0:	dfc00115 	stw	ra,4(sp)
   220e4:	df000015 	stw	fp,0(sp)
   220e8:	d839883a 	mov	fp,sp
   220ec:	0001883a 	nop
   220f0:	010000b4 	movhi	r4,2
   220f4:	211f8404 	addi	r4,r4,32272
   220f8:	00228940 	call	22894 <alt_avalon_i2c_init>
   220fc:	010000b4 	movhi	r4,2
   22100:	211f9204 	addi	r4,r4,32328
   22104:	002206c0 	call	2206c <alt_dev_reg>
   22108:	0001883a 	nop
   2210c:	008000b4 	movhi	r2,2
   22110:	10dfa717 	ldw	r3,32412(r2)
   22114:	008000b4 	movhi	r2,2
   22118:	109fa817 	ldw	r2,32416(r2)
   2211c:	100d883a 	mov	r6,r2
   22120:	180b883a 	mov	r5,r3
   22124:	010000b4 	movhi	r4,2
   22128:	211fa004 	addi	r4,r4,32384
   2212c:	00261d80 	call	261d8 <alt_msgdma_init>
   22130:	0001883a 	nop
   22134:	e037883a 	mov	sp,fp
   22138:	dfc00117 	ldw	ra,4(sp)
   2213c:	df000017 	ldw	fp,0(sp)
   22140:	dec00204 	addi	sp,sp,8
   22144:	f800283a 	ret

00022148 <altera_avalon_fifo_init>:
   22148:	defffa04 	addi	sp,sp,-24
   2214c:	dfc00515 	stw	ra,20(sp)
   22150:	df000415 	stw	fp,16(sp)
   22154:	df000404 	addi	fp,sp,16
   22158:	e13fff15 	stw	r4,-4(fp)
   2215c:	e17ffe15 	stw	r5,-8(fp)
   22160:	e1bffd15 	stw	r6,-12(fp)
   22164:	e1fffc15 	stw	r7,-16(fp)
   22168:	01400fc4 	movi	r5,63
   2216c:	e13fff17 	ldw	r4,-4(fp)
   22170:	00223140 	call	22314 <altera_avalon_fifo_clear_event>
   22174:	10000226 	beq	r2,zero,22180 <altera_avalon_fifo_init+0x38>
   22178:	00bfffc4 	movi	r2,-1
   2217c:	00001306 	br	221cc <altera_avalon_fifo_init+0x84>
   22180:	e17ffe17 	ldw	r5,-8(fp)
   22184:	e13fff17 	ldw	r4,-4(fp)
   22188:	00223740 	call	22374 <altera_avalon_fifo_write_ienable>
   2218c:	10000226 	beq	r2,zero,22198 <altera_avalon_fifo_init+0x50>
   22190:	00bfff84 	movi	r2,-2
   22194:	00000d06 	br	221cc <altera_avalon_fifo_init+0x84>
   22198:	e17ffc17 	ldw	r5,-16(fp)
   2219c:	e13fff17 	ldw	r4,-4(fp)
   221a0:	00223cc0 	call	223cc <altera_avalon_fifo_write_almostfull>
   221a4:	10000226 	beq	r2,zero,221b0 <altera_avalon_fifo_init+0x68>
   221a8:	00bfff44 	movi	r2,-3
   221ac:	00000706 	br	221cc <altera_avalon_fifo_init+0x84>
   221b0:	e17ffd17 	ldw	r5,-12(fp)
   221b4:	e13fff17 	ldw	r4,-4(fp)
   221b8:	00224240 	call	22424 <altera_avalon_fifo_write_almostempty>
   221bc:	10000226 	beq	r2,zero,221c8 <altera_avalon_fifo_init+0x80>
   221c0:	00bfff44 	movi	r2,-3
   221c4:	00000106 	br	221cc <altera_avalon_fifo_init+0x84>
   221c8:	0005883a 	mov	r2,zero
   221cc:	e037883a 	mov	sp,fp
   221d0:	dfc00117 	ldw	ra,4(sp)
   221d4:	df000017 	ldw	fp,0(sp)
   221d8:	dec00204 	addi	sp,sp,8
   221dc:	f800283a 	ret

000221e0 <altera_avalon_fifo_read_status>:
   221e0:	defffd04 	addi	sp,sp,-12
   221e4:	df000215 	stw	fp,8(sp)
   221e8:	df000204 	addi	fp,sp,8
   221ec:	e13fff15 	stw	r4,-4(fp)
   221f0:	e17ffe15 	stw	r5,-8(fp)
   221f4:	e0bfff17 	ldw	r2,-4(fp)
   221f8:	10800104 	addi	r2,r2,4
   221fc:	10800037 	ldwio	r2,0(r2)
   22200:	1007883a 	mov	r3,r2
   22204:	e0bffe17 	ldw	r2,-8(fp)
   22208:	1884703a 	and	r2,r3,r2
   2220c:	e037883a 	mov	sp,fp
   22210:	df000017 	ldw	fp,0(sp)
   22214:	dec00104 	addi	sp,sp,4
   22218:	f800283a 	ret

0002221c <altera_avalon_fifo_read_ienable>:
   2221c:	defffd04 	addi	sp,sp,-12
   22220:	df000215 	stw	fp,8(sp)
   22224:	df000204 	addi	fp,sp,8
   22228:	e13fff15 	stw	r4,-4(fp)
   2222c:	e17ffe15 	stw	r5,-8(fp)
   22230:	e0bfff17 	ldw	r2,-4(fp)
   22234:	10800304 	addi	r2,r2,12
   22238:	10800037 	ldwio	r2,0(r2)
   2223c:	1007883a 	mov	r3,r2
   22240:	e0bffe17 	ldw	r2,-8(fp)
   22244:	1884703a 	and	r2,r3,r2
   22248:	e037883a 	mov	sp,fp
   2224c:	df000017 	ldw	fp,0(sp)
   22250:	dec00104 	addi	sp,sp,4
   22254:	f800283a 	ret

00022258 <altera_avalon_fifo_read_almostfull>:
   22258:	defffe04 	addi	sp,sp,-8
   2225c:	df000115 	stw	fp,4(sp)
   22260:	df000104 	addi	fp,sp,4
   22264:	e13fff15 	stw	r4,-4(fp)
   22268:	e0bfff17 	ldw	r2,-4(fp)
   2226c:	10800404 	addi	r2,r2,16
   22270:	10800037 	ldwio	r2,0(r2)
   22274:	e037883a 	mov	sp,fp
   22278:	df000017 	ldw	fp,0(sp)
   2227c:	dec00104 	addi	sp,sp,4
   22280:	f800283a 	ret

00022284 <altera_avalon_fifo_read_almostempty>:
   22284:	defffe04 	addi	sp,sp,-8
   22288:	df000115 	stw	fp,4(sp)
   2228c:	df000104 	addi	fp,sp,4
   22290:	e13fff15 	stw	r4,-4(fp)
   22294:	e0bfff17 	ldw	r2,-4(fp)
   22298:	10800504 	addi	r2,r2,20
   2229c:	10800037 	ldwio	r2,0(r2)
   222a0:	e037883a 	mov	sp,fp
   222a4:	df000017 	ldw	fp,0(sp)
   222a8:	dec00104 	addi	sp,sp,4
   222ac:	f800283a 	ret

000222b0 <altera_avalon_fifo_read_event>:
   222b0:	defffd04 	addi	sp,sp,-12
   222b4:	df000215 	stw	fp,8(sp)
   222b8:	df000204 	addi	fp,sp,8
   222bc:	e13fff15 	stw	r4,-4(fp)
   222c0:	e17ffe15 	stw	r5,-8(fp)
   222c4:	e0bfff17 	ldw	r2,-4(fp)
   222c8:	10800204 	addi	r2,r2,8
   222cc:	10800037 	ldwio	r2,0(r2)
   222d0:	1007883a 	mov	r3,r2
   222d4:	e0bffe17 	ldw	r2,-8(fp)
   222d8:	1884703a 	and	r2,r3,r2
   222dc:	e037883a 	mov	sp,fp
   222e0:	df000017 	ldw	fp,0(sp)
   222e4:	dec00104 	addi	sp,sp,4
   222e8:	f800283a 	ret

000222ec <altera_avalon_fifo_read_level>:
   222ec:	defffe04 	addi	sp,sp,-8
   222f0:	df000115 	stw	fp,4(sp)
   222f4:	df000104 	addi	fp,sp,4
   222f8:	e13fff15 	stw	r4,-4(fp)
   222fc:	e0bfff17 	ldw	r2,-4(fp)
   22300:	10800037 	ldwio	r2,0(r2)
   22304:	e037883a 	mov	sp,fp
   22308:	df000017 	ldw	fp,0(sp)
   2230c:	dec00104 	addi	sp,sp,4
   22310:	f800283a 	ret

00022314 <altera_avalon_fifo_clear_event>:
   22314:	defffd04 	addi	sp,sp,-12
   22318:	df000215 	stw	fp,8(sp)
   2231c:	df000204 	addi	fp,sp,8
   22320:	e13fff15 	stw	r4,-4(fp)
   22324:	e17ffe15 	stw	r5,-8(fp)
   22328:	e0bfff17 	ldw	r2,-4(fp)
   2232c:	10800204 	addi	r2,r2,8
   22330:	1007883a 	mov	r3,r2
   22334:	e0bffe17 	ldw	r2,-8(fp)
   22338:	18800035 	stwio	r2,0(r3)
   2233c:	e0bfff17 	ldw	r2,-4(fp)
   22340:	10800204 	addi	r2,r2,8
   22344:	10800037 	ldwio	r2,0(r2)
   22348:	1007883a 	mov	r3,r2
   2234c:	e0bffe17 	ldw	r2,-8(fp)
   22350:	1884703a 	and	r2,r3,r2
   22354:	1000021e 	bne	r2,zero,22360 <altera_avalon_fifo_clear_event+0x4c>
   22358:	0005883a 	mov	r2,zero
   2235c:	00000106 	br	22364 <altera_avalon_fifo_clear_event+0x50>
   22360:	00bfffc4 	movi	r2,-1
   22364:	e037883a 	mov	sp,fp
   22368:	df000017 	ldw	fp,0(sp)
   2236c:	dec00104 	addi	sp,sp,4
   22370:	f800283a 	ret

00022374 <altera_avalon_fifo_write_ienable>:
   22374:	defffd04 	addi	sp,sp,-12
   22378:	df000215 	stw	fp,8(sp)
   2237c:	df000204 	addi	fp,sp,8
   22380:	e13fff15 	stw	r4,-4(fp)
   22384:	e17ffe15 	stw	r5,-8(fp)
   22388:	e0bfff17 	ldw	r2,-4(fp)
   2238c:	10800304 	addi	r2,r2,12
   22390:	1007883a 	mov	r3,r2
   22394:	e0bffe17 	ldw	r2,-8(fp)
   22398:	18800035 	stwio	r2,0(r3)
   2239c:	e0bfff17 	ldw	r2,-4(fp)
   223a0:	10800304 	addi	r2,r2,12
   223a4:	10c00037 	ldwio	r3,0(r2)
   223a8:	e0bffe17 	ldw	r2,-8(fp)
   223ac:	1880021e 	bne	r3,r2,223b8 <altera_avalon_fifo_write_ienable+0x44>
   223b0:	0005883a 	mov	r2,zero
   223b4:	00000106 	br	223bc <altera_avalon_fifo_write_ienable+0x48>
   223b8:	00bfff84 	movi	r2,-2
   223bc:	e037883a 	mov	sp,fp
   223c0:	df000017 	ldw	fp,0(sp)
   223c4:	dec00104 	addi	sp,sp,4
   223c8:	f800283a 	ret

000223cc <altera_avalon_fifo_write_almostfull>:
   223cc:	defffd04 	addi	sp,sp,-12
   223d0:	df000215 	stw	fp,8(sp)
   223d4:	df000204 	addi	fp,sp,8
   223d8:	e13fff15 	stw	r4,-4(fp)
   223dc:	e17ffe15 	stw	r5,-8(fp)
   223e0:	e0bfff17 	ldw	r2,-4(fp)
   223e4:	10800404 	addi	r2,r2,16
   223e8:	1007883a 	mov	r3,r2
   223ec:	e0bffe17 	ldw	r2,-8(fp)
   223f0:	18800035 	stwio	r2,0(r3)
   223f4:	e0bfff17 	ldw	r2,-4(fp)
   223f8:	10800404 	addi	r2,r2,16
   223fc:	10c00037 	ldwio	r3,0(r2)
   22400:	e0bffe17 	ldw	r2,-8(fp)
   22404:	1880021e 	bne	r3,r2,22410 <altera_avalon_fifo_write_almostfull+0x44>
   22408:	0005883a 	mov	r2,zero
   2240c:	00000106 	br	22414 <altera_avalon_fifo_write_almostfull+0x48>
   22410:	00bfff44 	movi	r2,-3
   22414:	e037883a 	mov	sp,fp
   22418:	df000017 	ldw	fp,0(sp)
   2241c:	dec00104 	addi	sp,sp,4
   22420:	f800283a 	ret

00022424 <altera_avalon_fifo_write_almostempty>:
   22424:	defffd04 	addi	sp,sp,-12
   22428:	df000215 	stw	fp,8(sp)
   2242c:	df000204 	addi	fp,sp,8
   22430:	e13fff15 	stw	r4,-4(fp)
   22434:	e17ffe15 	stw	r5,-8(fp)
   22438:	e0bfff17 	ldw	r2,-4(fp)
   2243c:	10800504 	addi	r2,r2,20
   22440:	1007883a 	mov	r3,r2
   22444:	e0bffe17 	ldw	r2,-8(fp)
   22448:	18800035 	stwio	r2,0(r3)
   2244c:	e0bfff17 	ldw	r2,-4(fp)
   22450:	10800504 	addi	r2,r2,20
   22454:	10c00037 	ldwio	r3,0(r2)
   22458:	e0bffe17 	ldw	r2,-8(fp)
   2245c:	1880021e 	bne	r3,r2,22468 <altera_avalon_fifo_write_almostempty+0x44>
   22460:	0005883a 	mov	r2,zero
   22464:	00000106 	br	2246c <altera_avalon_fifo_write_almostempty+0x48>
   22468:	00bfff44 	movi	r2,-3
   2246c:	e037883a 	mov	sp,fp
   22470:	df000017 	ldw	fp,0(sp)
   22474:	dec00104 	addi	sp,sp,4
   22478:	f800283a 	ret

0002247c <altera_avalon_fifo_write_fifo>:
   2247c:	defffb04 	addi	sp,sp,-20
   22480:	dfc00415 	stw	ra,16(sp)
   22484:	df000315 	stw	fp,12(sp)
   22488:	df000304 	addi	fp,sp,12
   2248c:	e13fff15 	stw	r4,-4(fp)
   22490:	e17ffe15 	stw	r5,-8(fp)
   22494:	e1bffd15 	stw	r6,-12(fp)
   22498:	01400044 	movi	r5,1
   2249c:	e13ffe17 	ldw	r4,-8(fp)
   224a0:	00221e00 	call	221e0 <altera_avalon_fifo_read_status>
   224a4:	1000051e 	bne	r2,zero,224bc <altera_avalon_fifo_write_fifo+0x40>
   224a8:	e0bfff17 	ldw	r2,-4(fp)
   224ac:	e0fffd17 	ldw	r3,-12(fp)
   224b0:	10c00035 	stwio	r3,0(r2)
   224b4:	0005883a 	mov	r2,zero
   224b8:	00000106 	br	224c0 <altera_avalon_fifo_write_fifo+0x44>
   224bc:	00bfff04 	movi	r2,-4
   224c0:	e037883a 	mov	sp,fp
   224c4:	dfc00117 	ldw	ra,4(sp)
   224c8:	df000017 	ldw	fp,0(sp)
   224cc:	dec00204 	addi	sp,sp,8
   224d0:	f800283a 	ret

000224d4 <altera_avalon_read_fifo>:
   224d4:	defffa04 	addi	sp,sp,-24
   224d8:	dfc00515 	stw	ra,20(sp)
   224dc:	df000415 	stw	fp,16(sp)
   224e0:	df000404 	addi	fp,sp,16
   224e4:	e13ffe15 	stw	r4,-8(fp)
   224e8:	e17ffd15 	stw	r5,-12(fp)
   224ec:	e1bffc15 	stw	r6,-16(fp)
   224f0:	e03fff15 	stw	zero,-4(fp)
   224f4:	e0bffc17 	ldw	r2,-16(fp)
   224f8:	10000015 	stw	zero,0(r2)
   224fc:	01400084 	movi	r5,2
   22500:	e13ffd17 	ldw	r4,-12(fp)
   22504:	00221e00 	call	221e0 <altera_avalon_fifo_read_status>
   22508:	1000071e 	bne	r2,zero,22528 <altera_avalon_read_fifo+0x54>
   2250c:	e13ffd17 	ldw	r4,-12(fp)
   22510:	00222ec0 	call	222ec <altera_avalon_fifo_read_level>
   22514:	e0bfff15 	stw	r2,-4(fp)
   22518:	e0bffe17 	ldw	r2,-8(fp)
   2251c:	10c00037 	ldwio	r3,0(r2)
   22520:	e0bffc17 	ldw	r2,-16(fp)
   22524:	10c00015 	stw	r3,0(r2)
   22528:	e0bfff17 	ldw	r2,-4(fp)
   2252c:	e037883a 	mov	sp,fp
   22530:	dfc00117 	ldw	ra,4(sp)
   22534:	df000017 	ldw	fp,0(sp)
   22538:	dec00204 	addi	sp,sp,8
   2253c:	f800283a 	ret

00022540 <altera_avalon_fifo_read_fifo>:
   22540:	defffc04 	addi	sp,sp,-16
   22544:	dfc00315 	stw	ra,12(sp)
   22548:	df000215 	stw	fp,8(sp)
   2254c:	df000204 	addi	fp,sp,8
   22550:	e13fff15 	stw	r4,-4(fp)
   22554:	e17ffe15 	stw	r5,-8(fp)
   22558:	01400084 	movi	r5,2
   2255c:	e13ffe17 	ldw	r4,-8(fp)
   22560:	00221e00 	call	221e0 <altera_avalon_fifo_read_status>
   22564:	1000031e 	bne	r2,zero,22574 <altera_avalon_fifo_read_fifo+0x34>
   22568:	e0bfff17 	ldw	r2,-4(fp)
   2256c:	10800037 	ldwio	r2,0(r2)
   22570:	00000106 	br	22578 <altera_avalon_fifo_read_fifo+0x38>
   22574:	0005883a 	mov	r2,zero
   22578:	e037883a 	mov	sp,fp
   2257c:	dfc00117 	ldw	ra,4(sp)
   22580:	df000017 	ldw	fp,0(sp)
   22584:	dec00204 	addi	sp,sp,8
   22588:	f800283a 	ret

0002258c <altera_avalon_fifo_write_other_info>:
   2258c:	defffb04 	addi	sp,sp,-20
   22590:	dfc00415 	stw	ra,16(sp)
   22594:	df000315 	stw	fp,12(sp)
   22598:	df000304 	addi	fp,sp,12
   2259c:	e13fff15 	stw	r4,-4(fp)
   225a0:	e17ffe15 	stw	r5,-8(fp)
   225a4:	e1bffd15 	stw	r6,-12(fp)
   225a8:	01400044 	movi	r5,1
   225ac:	e13ffe17 	ldw	r4,-8(fp)
   225b0:	00221e00 	call	221e0 <altera_avalon_fifo_read_status>
   225b4:	1000071e 	bne	r2,zero,225d4 <altera_avalon_fifo_write_other_info+0x48>
   225b8:	e0bfff17 	ldw	r2,-4(fp)
   225bc:	10800104 	addi	r2,r2,4
   225c0:	1007883a 	mov	r3,r2
   225c4:	e0bffd17 	ldw	r2,-12(fp)
   225c8:	18800035 	stwio	r2,0(r3)
   225cc:	0005883a 	mov	r2,zero
   225d0:	00000106 	br	225d8 <altera_avalon_fifo_write_other_info+0x4c>
   225d4:	00bfff04 	movi	r2,-4
   225d8:	e037883a 	mov	sp,fp
   225dc:	dfc00117 	ldw	ra,4(sp)
   225e0:	df000017 	ldw	fp,0(sp)
   225e4:	dec00204 	addi	sp,sp,8
   225e8:	f800283a 	ret

000225ec <altera_avalon_fifo_read_other_info>:
   225ec:	defffe04 	addi	sp,sp,-8
   225f0:	df000115 	stw	fp,4(sp)
   225f4:	df000104 	addi	fp,sp,4
   225f8:	e13fff15 	stw	r4,-4(fp)
   225fc:	e0bfff17 	ldw	r2,-4(fp)
   22600:	10800104 	addi	r2,r2,4
   22604:	10800037 	ldwio	r2,0(r2)
   22608:	e037883a 	mov	sp,fp
   2260c:	df000017 	ldw	fp,0(sp)
   22610:	dec00104 	addi	sp,sp,4
   22614:	f800283a 	ret

00022618 <altera_avalon_fifo_read_backpressure>:
   22618:	defffe04 	addi	sp,sp,-8
   2261c:	df000115 	stw	fp,4(sp)
   22620:	df000104 	addi	fp,sp,4
   22624:	e13fff15 	stw	r4,-4(fp)
   22628:	e0bfff17 	ldw	r2,-4(fp)
   2262c:	10800037 	ldwio	r2,0(r2)
   22630:	e037883a 	mov	sp,fp
   22634:	df000017 	ldw	fp,0(sp)
   22638:	dec00104 	addi	sp,sp,4
   2263c:	f800283a 	ret

00022640 <optional_irq_callback>:
   22640:	defff904 	addi	sp,sp,-28
   22644:	dfc00615 	stw	ra,24(sp)
   22648:	df000515 	stw	fp,20(sp)
   2264c:	df000504 	addi	fp,sp,20
   22650:	e13ffb15 	stw	r4,-20(fp)
   22654:	008000b4 	movhi	r2,2
   22658:	10a1a804 	addi	r2,r2,-31072
   2265c:	e0bfff15 	stw	r2,-4(fp)
   22660:	e0bffb17 	ldw	r2,-20(fp)
   22664:	e0bffe15 	stw	r2,-8(fp)
   22668:	e0bffe17 	ldw	r2,-8(fp)
   2266c:	10800717 	ldw	r2,28(r2)
   22670:	e0bffd15 	stw	r2,-12(fp)
   22674:	e0bffd17 	ldw	r2,-12(fp)
   22678:	10800217 	ldw	r2,8(r2)
   2267c:	10800098 	cmpnei	r2,r2,2
   22680:	1000251e 	bne	r2,zero,22718 <optional_irq_callback+0xd8>
   22684:	e0bffd17 	ldw	r2,-12(fp)
   22688:	10c00017 	ldw	r3,0(r2)
   2268c:	e0bffd17 	ldw	r2,-12(fp)
   22690:	10800117 	ldw	r2,4(r2)
   22694:	e13ffc04 	addi	r4,fp,-16
   22698:	200f883a 	mov	r7,r4
   2269c:	100d883a 	mov	r6,r2
   226a0:	180b883a 	mov	r5,r3
   226a4:	e13ffe17 	ldw	r4,-8(fp)
   226a8:	0022df40 	call	22df4 <alt_avalon_i2c_rx_read_available>
   226ac:	e0bffd17 	ldw	r2,-12(fp)
   226b0:	10c00117 	ldw	r3,4(r2)
   226b4:	e0bffc17 	ldw	r2,-16(fp)
   226b8:	1887c83a 	sub	r3,r3,r2
   226bc:	e0bffd17 	ldw	r2,-12(fp)
   226c0:	10c00115 	stw	r3,4(r2)
   226c4:	e0bffd17 	ldw	r2,-12(fp)
   226c8:	10c00017 	ldw	r3,0(r2)
   226cc:	e0bffc17 	ldw	r2,-16(fp)
   226d0:	1887883a 	add	r3,r3,r2
   226d4:	e0bffd17 	ldw	r2,-12(fp)
   226d8:	10c00015 	stw	r3,0(r2)
   226dc:	e0bffd17 	ldw	r2,-12(fp)
   226e0:	10800117 	ldw	r2,4(r2)
   226e4:	10000c26 	beq	r2,zero,22718 <optional_irq_callback+0xd8>
   226e8:	01400704 	movi	r5,28
   226ec:	e13ffe17 	ldw	r4,-8(fp)
   226f0:	0023fb80 	call	23fb8 <alt_avalon_i2c_int_clear>
   226f4:	01400084 	movi	r5,2
   226f8:	e13ffe17 	ldw	r4,-8(fp)
   226fc:	00240600 	call	24060 <alt_avalon_i2c_int_enable>
   22700:	00000e06 	br	2273c <optional_irq_callback+0xfc>
   22704:	e0bfff17 	ldw	r2,-4(fp)
   22708:	10bfffc4 	addi	r2,r2,-1
   2270c:	e0bfff15 	stw	r2,-4(fp)
   22710:	e0bfff17 	ldw	r2,-4(fp)
   22714:	10000426 	beq	r2,zero,22728 <optional_irq_callback+0xe8>
   22718:	e13ffe17 	ldw	r4,-8(fp)
   2271c:	0022db00 	call	22db0 <alt_avalon_i2c_is_busy>
   22720:	103ff81e 	bne	r2,zero,22704 <optional_irq_callback+0xc4>
   22724:	00000106 	br	2272c <optional_irq_callback+0xec>
   22728:	0001883a 	nop
   2272c:	e13ffe17 	ldw	r4,-8(fp)
   22730:	0022a580 	call	22a58 <alt_avalon_i2c_disable>
   22734:	e0bffd17 	ldw	r2,-12(fp)
   22738:	10000215 	stw	zero,8(r2)
   2273c:	e037883a 	mov	sp,fp
   22740:	dfc00117 	ldw	ra,4(sp)
   22744:	df000017 	ldw	fp,0(sp)
   22748:	dec00204 	addi	sp,sp,8
   2274c:	f800283a 	ret

00022750 <alt_avalon_i2c_register_optional_irq_handler>:
   22750:	defffc04 	addi	sp,sp,-16
   22754:	dfc00315 	stw	ra,12(sp)
   22758:	df000215 	stw	fp,8(sp)
   2275c:	df000204 	addi	fp,sp,8
   22760:	e13fff15 	stw	r4,-4(fp)
   22764:	e17ffe15 	stw	r5,-8(fp)
   22768:	e0bffe17 	ldw	r2,-8(fp)
   2276c:	10000215 	stw	zero,8(r2)
   22770:	e1fffe17 	ldw	r7,-8(fp)
   22774:	000d883a 	mov	r6,zero
   22778:	014000b4 	movhi	r5,2
   2277c:	29499004 	addi	r5,r5,9792
   22780:	e13fff17 	ldw	r4,-4(fp)
   22784:	00228400 	call	22840 <alt_avalon_i2c_register_callback>
   22788:	0001883a 	nop
   2278c:	e037883a 	mov	sp,fp
   22790:	dfc00117 	ldw	ra,4(sp)
   22794:	df000017 	ldw	fp,0(sp)
   22798:	dec00204 	addi	sp,sp,8
   2279c:	f800283a 	ret

000227a0 <alt_avalon_i2c_irq>:
   227a0:	defff904 	addi	sp,sp,-28
   227a4:	dfc00615 	stw	ra,24(sp)
   227a8:	df000515 	stw	fp,20(sp)
   227ac:	df000504 	addi	fp,sp,20
   227b0:	e13ffb15 	stw	r4,-20(fp)
   227b4:	e0bffb17 	ldw	r2,-20(fp)
   227b8:	e0bfff15 	stw	r2,-4(fp)
   227bc:	014007c4 	movi	r5,31
   227c0:	e13fff17 	ldw	r4,-4(fp)
   227c4:	0023ff40 	call	23ff4 <alt_avalon_i2c_int_disable>
   227c8:	01400704 	movi	r5,28
   227cc:	e13fff17 	ldw	r4,-4(fp)
   227d0:	0023fb80 	call	23fb8 <alt_avalon_i2c_int_clear>
   227d4:	e0bfff17 	ldw	r2,-4(fp)
   227d8:	10800617 	ldw	r2,24(r2)
   227dc:	10001226 	beq	r2,zero,22828 <alt_avalon_i2c_irq+0x88>
   227e0:	0005303a 	rdctl	r2,status
   227e4:	e0bffc15 	stw	r2,-16(fp)
   227e8:	e0fffc17 	ldw	r3,-16(fp)
   227ec:	00bfff84 	movi	r2,-2
   227f0:	1884703a 	and	r2,r3,r2
   227f4:	1001703a 	wrctl	status,r2
   227f8:	e0bffc17 	ldw	r2,-16(fp)
   227fc:	e0bffe15 	stw	r2,-8(fp)
   22800:	e0bfff17 	ldw	r2,-4(fp)
   22804:	10800617 	ldw	r2,24(r2)
   22808:	e13fff17 	ldw	r4,-4(fp)
   2280c:	103ee83a 	callr	r2
   22810:	e0bffe17 	ldw	r2,-8(fp)
   22814:	e0bffd15 	stw	r2,-12(fp)
   22818:	e0bffd17 	ldw	r2,-12(fp)
   2281c:	1001703a 	wrctl	status,r2
   22820:	0001883a 	nop
   22824:	0001883a 	nop
   22828:	0001883a 	nop
   2282c:	e037883a 	mov	sp,fp
   22830:	dfc00117 	ldw	ra,4(sp)
   22834:	df000017 	ldw	fp,0(sp)
   22838:	dec00204 	addi	sp,sp,8
   2283c:	f800283a 	ret

00022840 <alt_avalon_i2c_register_callback>:
   22840:	defffb04 	addi	sp,sp,-20
   22844:	df000415 	stw	fp,16(sp)
   22848:	df000404 	addi	fp,sp,16
   2284c:	e13fff15 	stw	r4,-4(fp)
   22850:	e17ffe15 	stw	r5,-8(fp)
   22854:	e1bffd15 	stw	r6,-12(fp)
   22858:	e1fffc15 	stw	r7,-16(fp)
   2285c:	e0bfff17 	ldw	r2,-4(fp)
   22860:	e0fffe17 	ldw	r3,-8(fp)
   22864:	10c00615 	stw	r3,24(r2)
   22868:	e0bfff17 	ldw	r2,-4(fp)
   2286c:	e0fffc17 	ldw	r3,-16(fp)
   22870:	10c00715 	stw	r3,28(r2)
   22874:	e0bfff17 	ldw	r2,-4(fp)
   22878:	e0fffd17 	ldw	r3,-12(fp)
   2287c:	10c00815 	stw	r3,32(r2)
   22880:	0001883a 	nop
   22884:	e037883a 	mov	sp,fp
   22888:	df000017 	ldw	fp,0(sp)
   2288c:	dec00104 	addi	sp,sp,4
   22890:	f800283a 	ret

00022894 <alt_avalon_i2c_init>:
   22894:	defff704 	addi	sp,sp,-36
   22898:	dfc00815 	stw	ra,32(sp)
   2289c:	df000715 	stw	fp,28(sp)
   228a0:	df000704 	addi	fp,sp,28
   228a4:	e13ffa15 	stw	r4,-24(fp)
   228a8:	e13ffa17 	ldw	r4,-24(fp)
   228ac:	0022a580 	call	22a58 <alt_avalon_i2c_disable>
   228b0:	014007c4 	movi	r5,31
   228b4:	e13ffa17 	ldw	r4,-24(fp)
   228b8:	0023ff40 	call	23ff4 <alt_avalon_i2c_int_disable>
   228bc:	01400704 	movi	r5,28
   228c0:	e13ffa17 	ldw	r4,-24(fp)
   228c4:	0023fb80 	call	23fb8 <alt_avalon_i2c_int_clear>
   228c8:	014000c4 	movi	r5,3
   228cc:	e13ffa17 	ldw	r4,-24(fp)
   228d0:	00242080 	call	24208 <alt_avalon_i2c_tfr_cmd_fifo_threshold_set>
   228d4:	014000c4 	movi	r5,3
   228d8:	e13ffa17 	ldw	r4,-24(fp)
   228dc:	00241580 	call	24158 <alt_avalon_i2c_rx_fifo_threshold_set>
   228e0:	e03ffc15 	stw	zero,-16(fp)
   228e4:	e03ffb15 	stw	zero,-20(fp)
   228e8:	e0bffb04 	addi	r2,fp,-20
   228ec:	018000b4 	movhi	r6,2
   228f0:	31a1a804 	addi	r6,r6,-31072
   228f4:	100b883a 	mov	r5,r2
   228f8:	e13ffa17 	ldw	r4,-24(fp)
   228fc:	0022cb40 	call	22cb4 <alt_avalon_i2c_master_config_speed_set>
   22900:	e0bffb04 	addi	r2,fp,-20
   22904:	100b883a 	mov	r5,r2
   22908:	e13ffa17 	ldw	r4,-24(fp)
   2290c:	0022b540 	call	22b54 <alt_avalon_i2c_master_config_set>
   22910:	d1600704 	addi	r5,gp,-32740
   22914:	e13ffa17 	ldw	r4,-24(fp)
   22918:	00267840 	call	26784 <alt_dev_llist_insert>
   2291c:	0005883a 	mov	r2,zero
   22920:	e0bfff15 	stw	r2,-4(fp)
   22924:	e0bfff17 	ldw	r2,-4(fp)
   22928:	10000c1e 	bne	r2,zero,2295c <alt_avalon_i2c_init+0xc8>
   2292c:	e0bffa17 	ldw	r2,-24(fp)
   22930:	10c00417 	ldw	r3,16(r2)
   22934:	e0bffa17 	ldw	r2,-24(fp)
   22938:	10800517 	ldw	r2,20(r2)
   2293c:	d8000015 	stw	zero,0(sp)
   22940:	e1fffa17 	ldw	r7,-24(fp)
   22944:	018000b4 	movhi	r6,2
   22948:	3189e804 	addi	r6,r6,10144
   2294c:	100b883a 	mov	r5,r2
   22950:	1809883a 	mov	r4,r3
   22954:	0021c6c0 	call	21c6c <alt_ic_isr_register>
   22958:	00000406 	br	2296c <alt_avalon_i2c_init+0xd8>
   2295c:	010000b4 	movhi	r4,2
   22960:	211eae04 	addi	r4,r4,31416
   22964:	0026e040 	call	26e04 <alt_printf>
   22968:	0001883a 	nop
   2296c:	e037883a 	mov	sp,fp
   22970:	dfc00117 	ldw	ra,4(sp)
   22974:	df000017 	ldw	fp,0(sp)
   22978:	dec00204 	addi	sp,sp,8
   2297c:	f800283a 	ret

00022980 <alt_avalon_i2c_open>:
   22980:	defffc04 	addi	sp,sp,-16
   22984:	dfc00315 	stw	ra,12(sp)
   22988:	df000215 	stw	fp,8(sp)
   2298c:	df000204 	addi	fp,sp,8
   22990:	e13ffe15 	stw	r4,-8(fp)
   22994:	e03fff15 	stw	zero,-4(fp)
   22998:	d1600704 	addi	r5,gp,-32740
   2299c:	e13ffe17 	ldw	r4,-8(fp)
   229a0:	00268f40 	call	268f4 <alt_find_dev>
   229a4:	e0bfff15 	stw	r2,-4(fp)
   229a8:	e0bfff17 	ldw	r2,-4(fp)
   229ac:	e037883a 	mov	sp,fp
   229b0:	dfc00117 	ldw	ra,4(sp)
   229b4:	df000017 	ldw	fp,0(sp)
   229b8:	dec00204 	addi	sp,sp,8
   229bc:	f800283a 	ret

000229c0 <alt_avalon_i2c_enable>:
   229c0:	defffc04 	addi	sp,sp,-16
   229c4:	df000315 	stw	fp,12(sp)
   229c8:	df000304 	addi	fp,sp,12
   229cc:	e13ffd15 	stw	r4,-12(fp)
   229d0:	e0bffd17 	ldw	r2,-12(fp)
   229d4:	10800717 	ldw	r2,28(r2)
   229d8:	e0bfff15 	stw	r2,-4(fp)
   229dc:	e0bffd17 	ldw	r2,-12(fp)
   229e0:	10800317 	ldw	r2,12(r2)
   229e4:	10800204 	addi	r2,r2,8
   229e8:	10800037 	ldwio	r2,0(r2)
   229ec:	1080004c 	andi	r2,r2,1
   229f0:	e0bffe15 	stw	r2,-8(fp)
   229f4:	e0bffe17 	ldw	r2,-8(fp)
   229f8:	10000226 	beq	r2,zero,22a04 <alt_avalon_i2c_enable+0x44>
   229fc:	00bffe44 	movi	r2,-7
   22a00:	00001106 	br	22a48 <alt_avalon_i2c_enable+0x88>
   22a04:	e0bffd17 	ldw	r2,-12(fp)
   22a08:	10c00617 	ldw	r3,24(r2)
   22a0c:	008000b4 	movhi	r2,2
   22a10:	10899004 	addi	r2,r2,9792
   22a14:	1880021e 	bne	r3,r2,22a20 <alt_avalon_i2c_enable+0x60>
   22a18:	e0bfff17 	ldw	r2,-4(fp)
   22a1c:	10000215 	stw	zero,8(r2)
   22a20:	e0bffd17 	ldw	r2,-12(fp)
   22a24:	10800317 	ldw	r2,12(r2)
   22a28:	10800204 	addi	r2,r2,8
   22a2c:	e0fffd17 	ldw	r3,-12(fp)
   22a30:	18c00317 	ldw	r3,12(r3)
   22a34:	18c00204 	addi	r3,r3,8
   22a38:	18c00037 	ldwio	r3,0(r3)
   22a3c:	18c00054 	ori	r3,r3,1
   22a40:	10c00035 	stwio	r3,0(r2)
   22a44:	0005883a 	mov	r2,zero
   22a48:	e037883a 	mov	sp,fp
   22a4c:	df000017 	ldw	fp,0(sp)
   22a50:	dec00104 	addi	sp,sp,4
   22a54:	f800283a 	ret

00022a58 <alt_avalon_i2c_disable>:
   22a58:	defffe04 	addi	sp,sp,-8
   22a5c:	df000115 	stw	fp,4(sp)
   22a60:	df000104 	addi	fp,sp,4
   22a64:	e13fff15 	stw	r4,-4(fp)
   22a68:	e0bfff17 	ldw	r2,-4(fp)
   22a6c:	10800317 	ldw	r2,12(r2)
   22a70:	10800204 	addi	r2,r2,8
   22a74:	e0ffff17 	ldw	r3,-4(fp)
   22a78:	18c00317 	ldw	r3,12(r3)
   22a7c:	18c00204 	addi	r3,r3,8
   22a80:	19000037 	ldwio	r4,0(r3)
   22a84:	00ffff84 	movi	r3,-2
   22a88:	20c6703a 	and	r3,r4,r3
   22a8c:	10c00035 	stwio	r3,0(r2)
   22a90:	0001883a 	nop
   22a94:	e037883a 	mov	sp,fp
   22a98:	df000017 	ldw	fp,0(sp)
   22a9c:	dec00104 	addi	sp,sp,4
   22aa0:	f800283a 	ret

00022aa4 <alt_avalon_i2c_master_config_get>:
   22aa4:	defffd04 	addi	sp,sp,-12
   22aa8:	df000215 	stw	fp,8(sp)
   22aac:	df000204 	addi	fp,sp,8
   22ab0:	e13fff15 	stw	r4,-4(fp)
   22ab4:	e17ffe15 	stw	r5,-8(fp)
   22ab8:	e0bfff17 	ldw	r2,-4(fp)
   22abc:	10c00d17 	ldw	r3,52(r2)
   22ac0:	e0bffe17 	ldw	r2,-8(fp)
   22ac4:	10c00015 	stw	r3,0(r2)
   22ac8:	e0bfff17 	ldw	r2,-4(fp)
   22acc:	10800317 	ldw	r2,12(r2)
   22ad0:	10800204 	addi	r2,r2,8
   22ad4:	10800037 	ldwio	r2,0(r2)
   22ad8:	1005d07a 	srai	r2,r2,1
   22adc:	1080004c 	andi	r2,r2,1
   22ae0:	1007883a 	mov	r3,r2
   22ae4:	e0bffe17 	ldw	r2,-8(fp)
   22ae8:	10c00115 	stw	r3,4(r2)
   22aec:	e0bfff17 	ldw	r2,-4(fp)
   22af0:	10800317 	ldw	r2,12(r2)
   22af4:	10800904 	addi	r2,r2,36
   22af8:	10800037 	ldwio	r2,0(r2)
   22afc:	1007883a 	mov	r3,r2
   22b00:	e0bffe17 	ldw	r2,-8(fp)
   22b04:	10c0020d 	sth	r3,8(r2)
   22b08:	e0bfff17 	ldw	r2,-4(fp)
   22b0c:	10800317 	ldw	r2,12(r2)
   22b10:	10800804 	addi	r2,r2,32
   22b14:	10800037 	ldwio	r2,0(r2)
   22b18:	1007883a 	mov	r3,r2
   22b1c:	e0bffe17 	ldw	r2,-8(fp)
   22b20:	10c0028d 	sth	r3,10(r2)
   22b24:	e0bfff17 	ldw	r2,-4(fp)
   22b28:	10800317 	ldw	r2,12(r2)
   22b2c:	10800a04 	addi	r2,r2,40
   22b30:	10800037 	ldwio	r2,0(r2)
   22b34:	1007883a 	mov	r3,r2
   22b38:	e0bffe17 	ldw	r2,-8(fp)
   22b3c:	10c0030d 	sth	r3,12(r2)
   22b40:	0001883a 	nop
   22b44:	e037883a 	mov	sp,fp
   22b48:	df000017 	ldw	fp,0(sp)
   22b4c:	dec00104 	addi	sp,sp,4
   22b50:	f800283a 	ret

00022b54 <alt_avalon_i2c_master_config_set>:
   22b54:	defffd04 	addi	sp,sp,-12
   22b58:	df000215 	stw	fp,8(sp)
   22b5c:	df000204 	addi	fp,sp,8
   22b60:	e13fff15 	stw	r4,-4(fp)
   22b64:	e17ffe15 	stw	r5,-8(fp)
   22b68:	e0bffe17 	ldw	r2,-8(fp)
   22b6c:	10c00017 	ldw	r3,0(r2)
   22b70:	e0bfff17 	ldw	r2,-4(fp)
   22b74:	10c00d15 	stw	r3,52(r2)
   22b78:	e0bfff17 	ldw	r2,-4(fp)
   22b7c:	10800317 	ldw	r2,12(r2)
   22b80:	10c00204 	addi	r3,r2,8
   22b84:	e0bfff17 	ldw	r2,-4(fp)
   22b88:	10800317 	ldw	r2,12(r2)
   22b8c:	10800204 	addi	r2,r2,8
   22b90:	10800037 	ldwio	r2,0(r2)
   22b94:	1009883a 	mov	r4,r2
   22b98:	00bfff44 	movi	r2,-3
   22b9c:	2088703a 	and	r4,r4,r2
   22ba0:	e0bffe17 	ldw	r2,-8(fp)
   22ba4:	10800117 	ldw	r2,4(r2)
   22ba8:	1085883a 	add	r2,r2,r2
   22bac:	1080008c 	andi	r2,r2,2
   22bb0:	2084b03a 	or	r2,r4,r2
   22bb4:	18800035 	stwio	r2,0(r3)
   22bb8:	e0bfff17 	ldw	r2,-4(fp)
   22bbc:	10800317 	ldw	r2,12(r2)
   22bc0:	10800904 	addi	r2,r2,36
   22bc4:	e0fffe17 	ldw	r3,-8(fp)
   22bc8:	18c0020b 	ldhu	r3,8(r3)
   22bcc:	18ffffcc 	andi	r3,r3,65535
   22bd0:	10c00035 	stwio	r3,0(r2)
   22bd4:	e0bfff17 	ldw	r2,-4(fp)
   22bd8:	10800317 	ldw	r2,12(r2)
   22bdc:	10800804 	addi	r2,r2,32
   22be0:	e0fffe17 	ldw	r3,-8(fp)
   22be4:	18c0028b 	ldhu	r3,10(r3)
   22be8:	18ffffcc 	andi	r3,r3,65535
   22bec:	10c00035 	stwio	r3,0(r2)
   22bf0:	e0bfff17 	ldw	r2,-4(fp)
   22bf4:	10800317 	ldw	r2,12(r2)
   22bf8:	10800a04 	addi	r2,r2,40
   22bfc:	e0fffe17 	ldw	r3,-8(fp)
   22c00:	18c0030b 	ldhu	r3,12(r3)
   22c04:	18ffffcc 	andi	r3,r3,65535
   22c08:	10c00035 	stwio	r3,0(r2)
   22c0c:	0001883a 	nop
   22c10:	e037883a 	mov	sp,fp
   22c14:	df000017 	ldw	fp,0(sp)
   22c18:	dec00104 	addi	sp,sp,4
   22c1c:	f800283a 	ret

00022c20 <alt_avalon_i2c_master_config_speed_get>:
   22c20:	defffb04 	addi	sp,sp,-20
   22c24:	dfc00415 	stw	ra,16(sp)
   22c28:	df000315 	stw	fp,12(sp)
   22c2c:	df000304 	addi	fp,sp,12
   22c30:	e13fff15 	stw	r4,-4(fp)
   22c34:	e17ffe15 	stw	r5,-8(fp)
   22c38:	e1bffd15 	stw	r6,-12(fp)
   22c3c:	e0bffe17 	ldw	r2,-8(fp)
   22c40:	1080028b 	ldhu	r2,10(r2)
   22c44:	10bfffcc 	andi	r2,r2,65535
   22c48:	10000426 	beq	r2,zero,22c5c <alt_avalon_i2c_master_config_speed_get+0x3c>
   22c4c:	e0bffe17 	ldw	r2,-8(fp)
   22c50:	1080020b 	ldhu	r2,8(r2)
   22c54:	10bfffcc 	andi	r2,r2,65535
   22c58:	1000021e 	bne	r2,zero,22c64 <alt_avalon_i2c_master_config_speed_get+0x44>
   22c5c:	00bfff44 	movi	r2,-3
   22c60:	00000f06 	br	22ca0 <alt_avalon_i2c_master_config_speed_get+0x80>
   22c64:	e0bfff17 	ldw	r2,-4(fp)
   22c68:	11000c17 	ldw	r4,48(r2)
   22c6c:	e0bffe17 	ldw	r2,-8(fp)
   22c70:	1080028b 	ldhu	r2,10(r2)
   22c74:	10ffffcc 	andi	r3,r2,65535
   22c78:	e0bffe17 	ldw	r2,-8(fp)
   22c7c:	1080020b 	ldhu	r2,8(r2)
   22c80:	10bfffcc 	andi	r2,r2,65535
   22c84:	1885883a 	add	r2,r3,r2
   22c88:	100b883a 	mov	r5,r2
   22c8c:	0021b8c0 	call	21b8c <__udivsi3>
   22c90:	1007883a 	mov	r3,r2
   22c94:	e0bffd17 	ldw	r2,-12(fp)
   22c98:	10c00015 	stw	r3,0(r2)
   22c9c:	0005883a 	mov	r2,zero
   22ca0:	e037883a 	mov	sp,fp
   22ca4:	dfc00117 	ldw	ra,4(sp)
   22ca8:	df000017 	ldw	fp,0(sp)
   22cac:	dec00204 	addi	sp,sp,8
   22cb0:	f800283a 	ret

00022cb4 <alt_avalon_i2c_master_config_speed_set>:
   22cb4:	defff904 	addi	sp,sp,-28
   22cb8:	dfc00615 	stw	ra,24(sp)
   22cbc:	df000515 	stw	fp,20(sp)
   22cc0:	df000504 	addi	fp,sp,20
   22cc4:	e13ffd15 	stw	r4,-12(fp)
   22cc8:	e17ffc15 	stw	r5,-16(fp)
   22ccc:	e1bffb15 	stw	r6,-20(fp)
   22cd0:	e0fffb17 	ldw	r3,-20(fp)
   22cd4:	008001b4 	movhi	r2,6
   22cd8:	1086a004 	addi	r2,r2,6784
   22cdc:	10c00436 	bltu	r2,r3,22cf0 <alt_avalon_i2c_master_config_speed_set+0x3c>
   22ce0:	e0bffb17 	ldw	r2,-20(fp)
   22ce4:	10000226 	beq	r2,zero,22cf0 <alt_avalon_i2c_master_config_speed_set+0x3c>
   22ce8:	e0bffb17 	ldw	r2,-20(fp)
   22cec:	1000021e 	bne	r2,zero,22cf8 <alt_avalon_i2c_master_config_speed_set+0x44>
   22cf0:	00bfff04 	movi	r2,-4
   22cf4:	00002906 	br	22d9c <alt_avalon_i2c_master_config_speed_set+0xe8>
   22cf8:	e0bffd17 	ldw	r2,-12(fp)
   22cfc:	10c00c17 	ldw	r3,48(r2)
   22d00:	e0bffb17 	ldw	r2,-20(fp)
   22d04:	1085883a 	add	r2,r2,r2
   22d08:	100b883a 	mov	r5,r2
   22d0c:	1809883a 	mov	r4,r3
   22d10:	0021b8c0 	call	21b8c <__udivsi3>
   22d14:	e0bfff15 	stw	r2,-4(fp)
   22d18:	e0bfff17 	ldw	r2,-4(fp)
   22d1c:	10800f04 	addi	r2,r2,60
   22d20:	e0bffe15 	stw	r2,-8(fp)
   22d24:	e0bfff17 	ldw	r2,-4(fp)
   22d28:	10bff104 	addi	r2,r2,-60
   22d2c:	e0bfff15 	stw	r2,-4(fp)
   22d30:	e0fffb17 	ldw	r3,-20(fp)
   22d34:	008000b4 	movhi	r2,2
   22d38:	10a1a804 	addi	r2,r2,-31072
   22d3c:	10c0042e 	bgeu	r2,r3,22d50 <alt_avalon_i2c_master_config_speed_set+0x9c>
   22d40:	e0bffc17 	ldw	r2,-16(fp)
   22d44:	00c00044 	movi	r3,1
   22d48:	10c00115 	stw	r3,4(r2)
   22d4c:	00000206 	br	22d58 <alt_avalon_i2c_master_config_speed_set+0xa4>
   22d50:	e0bffc17 	ldw	r2,-16(fp)
   22d54:	10000115 	stw	zero,4(r2)
   22d58:	e0bfff17 	ldw	r2,-4(fp)
   22d5c:	1007883a 	mov	r3,r2
   22d60:	e0bffc17 	ldw	r2,-16(fp)
   22d64:	10c0028d 	sth	r3,10(r2)
   22d68:	e0bffe17 	ldw	r2,-8(fp)
   22d6c:	1007883a 	mov	r3,r2
   22d70:	e0bffc17 	ldw	r2,-16(fp)
   22d74:	10c0020d 	sth	r3,8(r2)
   22d78:	e0bfff17 	ldw	r2,-4(fp)
   22d7c:	1007883a 	mov	r3,r2
   22d80:	e0bfff17 	ldw	r2,-4(fp)
   22d84:	1004d07a 	srli	r2,r2,1
   22d88:	1885c83a 	sub	r2,r3,r2
   22d8c:	1007883a 	mov	r3,r2
   22d90:	e0bffc17 	ldw	r2,-16(fp)
   22d94:	10c0030d 	sth	r3,12(r2)
   22d98:	0005883a 	mov	r2,zero
   22d9c:	e037883a 	mov	sp,fp
   22da0:	dfc00117 	ldw	ra,4(sp)
   22da4:	df000017 	ldw	fp,0(sp)
   22da8:	dec00204 	addi	sp,sp,8
   22dac:	f800283a 	ret

00022db0 <alt_avalon_i2c_is_busy>:
   22db0:	defffe04 	addi	sp,sp,-8
   22db4:	df000115 	stw	fp,4(sp)
   22db8:	df000104 	addi	fp,sp,4
   22dbc:	e13fff15 	stw	r4,-4(fp)
   22dc0:	e0bfff17 	ldw	r2,-4(fp)
   22dc4:	10800317 	ldw	r2,12(r2)
   22dc8:	10800504 	addi	r2,r2,20
   22dcc:	10800037 	ldwio	r2,0(r2)
   22dd0:	1080004c 	andi	r2,r2,1
   22dd4:	10000226 	beq	r2,zero,22de0 <alt_avalon_i2c_is_busy+0x30>
   22dd8:	00800044 	movi	r2,1
   22ddc:	00000106 	br	22de4 <alt_avalon_i2c_is_busy+0x34>
   22de0:	0005883a 	mov	r2,zero
   22de4:	e037883a 	mov	sp,fp
   22de8:	df000017 	ldw	fp,0(sp)
   22dec:	dec00104 	addi	sp,sp,4
   22df0:	f800283a 	ret

00022df4 <alt_avalon_i2c_rx_read_available>:
   22df4:	defffb04 	addi	sp,sp,-20
   22df8:	df000415 	stw	fp,16(sp)
   22dfc:	df000404 	addi	fp,sp,16
   22e00:	e13fff15 	stw	r4,-4(fp)
   22e04:	e17ffe15 	stw	r5,-8(fp)
   22e08:	e1bffd15 	stw	r6,-12(fp)
   22e0c:	e1fffc15 	stw	r7,-16(fp)
   22e10:	e0bffc17 	ldw	r2,-16(fp)
   22e14:	10000015 	stw	zero,0(r2)
   22e18:	00001506 	br	22e70 <alt_avalon_i2c_rx_read_available+0x7c>
   22e1c:	e0bfff17 	ldw	r2,-4(fp)
   22e20:	10800317 	ldw	r2,12(r2)
   22e24:	10800104 	addi	r2,r2,4
   22e28:	11000037 	ldwio	r4,0(r2)
   22e2c:	e0bffc17 	ldw	r2,-16(fp)
   22e30:	10800017 	ldw	r2,0(r2)
   22e34:	e0fffe17 	ldw	r3,-8(fp)
   22e38:	1885883a 	add	r2,r3,r2
   22e3c:	2007883a 	mov	r3,r4
   22e40:	10c00005 	stb	r3,0(r2)
   22e44:	e0bffc17 	ldw	r2,-16(fp)
   22e48:	10800017 	ldw	r2,0(r2)
   22e4c:	10c00044 	addi	r3,r2,1
   22e50:	e0bffc17 	ldw	r2,-16(fp)
   22e54:	10c00015 	stw	r3,0(r2)
   22e58:	e0bffc17 	ldw	r2,-16(fp)
   22e5c:	10800017 	ldw	r2,0(r2)
   22e60:	e0fffd17 	ldw	r3,-12(fp)
   22e64:	1880021e 	bne	r3,r2,22e70 <alt_avalon_i2c_rx_read_available+0x7c>
   22e68:	e0bffd17 	ldw	r2,-12(fp)
   22e6c:	1000061e 	bne	r2,zero,22e88 <alt_avalon_i2c_rx_read_available+0x94>
   22e70:	e0bfff17 	ldw	r2,-4(fp)
   22e74:	10800317 	ldw	r2,12(r2)
   22e78:	10800704 	addi	r2,r2,28
   22e7c:	10800037 	ldwio	r2,0(r2)
   22e80:	103fe61e 	bne	r2,zero,22e1c <alt_avalon_i2c_rx_read_available+0x28>
   22e84:	00000106 	br	22e8c <alt_avalon_i2c_rx_read_available+0x98>
   22e88:	0001883a 	nop
   22e8c:	0001883a 	nop
   22e90:	e037883a 	mov	sp,fp
   22e94:	df000017 	ldw	fp,0(sp)
   22e98:	dec00104 	addi	sp,sp,4
   22e9c:	f800283a 	ret

00022ea0 <alt_avalon_i2c_rx_read>:
   22ea0:	defffa04 	addi	sp,sp,-24
   22ea4:	dfc00515 	stw	ra,20(sp)
   22ea8:	df000415 	stw	fp,16(sp)
   22eac:	df000404 	addi	fp,sp,16
   22eb0:	e13ffd15 	stw	r4,-12(fp)
   22eb4:	e17ffc15 	stw	r5,-16(fp)
   22eb8:	e03fff15 	stw	zero,-4(fp)
   22ebc:	008000b4 	movhi	r2,2
   22ec0:	10a1a804 	addi	r2,r2,-31072
   22ec4:	e0bffe15 	stw	r2,-8(fp)
   22ec8:	00000d06 	br	22f00 <alt_avalon_i2c_rx_read+0x60>
   22ecc:	e0bffe17 	ldw	r2,-8(fp)
   22ed0:	108002a8 	cmpgeui	r2,r2,10
   22ed4:	1000021e 	bne	r2,zero,22ee0 <alt_avalon_i2c_rx_read+0x40>
   22ed8:	0109c404 	movi	r4,10000
   22edc:	00264840 	call	26484 <alt_busy_sleep>
   22ee0:	e0bffe17 	ldw	r2,-8(fp)
   22ee4:	10bfffc4 	addi	r2,r2,-1
   22ee8:	e0bffe15 	stw	r2,-8(fp)
   22eec:	e0bffe17 	ldw	r2,-8(fp)
   22ef0:	1000031e 	bne	r2,zero,22f00 <alt_avalon_i2c_rx_read+0x60>
   22ef4:	00bfff84 	movi	r2,-2
   22ef8:	e0bfff15 	stw	r2,-4(fp)
   22efc:	00000506 	br	22f14 <alt_avalon_i2c_rx_read+0x74>
   22f00:	e0bffd17 	ldw	r2,-12(fp)
   22f04:	10800317 	ldw	r2,12(r2)
   22f08:	10800704 	addi	r2,r2,28
   22f0c:	10800037 	ldwio	r2,0(r2)
   22f10:	103fee26 	beq	r2,zero,22ecc <alt_avalon_i2c_rx_read+0x2c>
   22f14:	e0bffd17 	ldw	r2,-12(fp)
   22f18:	10800317 	ldw	r2,12(r2)
   22f1c:	10800104 	addi	r2,r2,4
   22f20:	10800037 	ldwio	r2,0(r2)
   22f24:	1007883a 	mov	r3,r2
   22f28:	e0bffc17 	ldw	r2,-16(fp)
   22f2c:	10c00005 	stb	r3,0(r2)
   22f30:	e0bfff17 	ldw	r2,-4(fp)
   22f34:	e037883a 	mov	sp,fp
   22f38:	dfc00117 	ldw	ra,4(sp)
   22f3c:	df000017 	ldw	fp,0(sp)
   22f40:	dec00204 	addi	sp,sp,8
   22f44:	f800283a 	ret

00022f48 <alt_avalon_i2c_cmd_write>:
   22f48:	defff804 	addi	sp,sp,-32
   22f4c:	dfc00715 	stw	ra,28(sp)
   22f50:	df000615 	stw	fp,24(sp)
   22f54:	df000604 	addi	fp,sp,24
   22f58:	e13ffd15 	stw	r4,-12(fp)
   22f5c:	2805883a 	mov	r2,r5
   22f60:	3009883a 	mov	r4,r6
   22f64:	3807883a 	mov	r3,r7
   22f68:	e0bffc05 	stb	r2,-16(fp)
   22f6c:	2005883a 	mov	r2,r4
   22f70:	e0bffb05 	stb	r2,-20(fp)
   22f74:	1805883a 	mov	r2,r3
   22f78:	e0bffa05 	stb	r2,-24(fp)
   22f7c:	0089c404 	movi	r2,10000
   22f80:	e0bfff15 	stw	r2,-4(fp)
   22f84:	e03ffe15 	stw	zero,-8(fp)
   22f88:	00000c06 	br	22fbc <alt_avalon_i2c_cmd_write+0x74>
   22f8c:	e0bfff17 	ldw	r2,-4(fp)
   22f90:	108002a8 	cmpgeui	r2,r2,10
   22f94:	1000021e 	bne	r2,zero,22fa0 <alt_avalon_i2c_cmd_write+0x58>
   22f98:	0109c404 	movi	r4,10000
   22f9c:	00264840 	call	26484 <alt_busy_sleep>
   22fa0:	e0bfff17 	ldw	r2,-4(fp)
   22fa4:	10bfffc4 	addi	r2,r2,-1
   22fa8:	e0bfff15 	stw	r2,-4(fp)
   22fac:	e0bfff17 	ldw	r2,-4(fp)
   22fb0:	1000021e 	bne	r2,zero,22fbc <alt_avalon_i2c_cmd_write+0x74>
   22fb4:	00bfff84 	movi	r2,-2
   22fb8:	00001906 	br	23020 <alt_avalon_i2c_cmd_write+0xd8>
   22fbc:	e0bffd17 	ldw	r2,-12(fp)
   22fc0:	10800317 	ldw	r2,12(r2)
   22fc4:	10800404 	addi	r2,r2,16
   22fc8:	10800037 	ldwio	r2,0(r2)
   22fcc:	1080004c 	andi	r2,r2,1
   22fd0:	103fee26 	beq	r2,zero,22f8c <alt_avalon_i2c_cmd_write+0x44>
   22fd4:	e0bffd17 	ldw	r2,-12(fp)
   22fd8:	10800317 	ldw	r2,12(r2)
   22fdc:	e13ffc03 	ldbu	r4,-16(fp)
   22fe0:	e0fffb03 	ldbu	r3,-20(fp)
   22fe4:	1806927a 	slli	r3,r3,9
   22fe8:	20c8b03a 	or	r4,r4,r3
   22fec:	e0fffa03 	ldbu	r3,-24(fp)
   22ff0:	1806923a 	slli	r3,r3,8
   22ff4:	20c6b03a 	or	r3,r4,r3
   22ff8:	10c00035 	stwio	r3,0(r2)
   22ffc:	e0bffe04 	addi	r2,fp,-8
   23000:	100b883a 	mov	r5,r2
   23004:	e13ffd17 	ldw	r4,-12(fp)
   23008:	00231900 	call	23190 <alt_avalon_i2c_check_nack>
   2300c:	e0bffe04 	addi	r2,fp,-8
   23010:	100b883a 	mov	r5,r2
   23014:	e13ffd17 	ldw	r4,-12(fp)
   23018:	00231dc0 	call	231dc <alt_avalon_i2c_check_arblost>
   2301c:	e0bffe17 	ldw	r2,-8(fp)
   23020:	e037883a 	mov	sp,fp
   23024:	dfc00117 	ldw	ra,4(sp)
   23028:	df000017 	ldw	fp,0(sp)
   2302c:	dec00204 	addi	sp,sp,8
   23030:	f800283a 	ret

00023034 <alt_avalon_i2c_send_address>:
   23034:	defffa04 	addi	sp,sp,-24
   23038:	dfc00515 	stw	ra,20(sp)
   2303c:	df000415 	stw	fp,16(sp)
   23040:	df000404 	addi	fp,sp,16
   23044:	e13ffe15 	stw	r4,-8(fp)
   23048:	e17ffd15 	stw	r5,-12(fp)
   2304c:	3005883a 	mov	r2,r6
   23050:	e0bffc05 	stb	r2,-16(fp)
   23054:	e0bffe17 	ldw	r2,-8(fp)
   23058:	10800d17 	ldw	r2,52(r2)
   2305c:	10800058 	cmpnei	r2,r2,1
   23060:	10001c1e 	bne	r2,zero,230d4 <alt_avalon_i2c_send_address+0xa0>
   23064:	e0bffe17 	ldw	r2,-8(fp)
   23068:	10800917 	ldw	r2,36(r2)
   2306c:	1004d1fa 	srli	r2,r2,7
   23070:	1080038c 	andi	r2,r2,14
   23074:	1007883a 	mov	r3,r2
   23078:	e0bffd17 	ldw	r2,-12(fp)
   2307c:	1884b03a 	or	r2,r3,r2
   23080:	1007883a 	mov	r3,r2
   23084:	00bffc04 	movi	r2,-16
   23088:	1884b03a 	or	r2,r3,r2
   2308c:	10803fcc 	andi	r2,r2,255
   23090:	e0fffc03 	ldbu	r3,-16(fp)
   23094:	000f883a 	mov	r7,zero
   23098:	180d883a 	mov	r6,r3
   2309c:	100b883a 	mov	r5,r2
   230a0:	e13ffe17 	ldw	r4,-8(fp)
   230a4:	0022f480 	call	22f48 <alt_avalon_i2c_cmd_write>
   230a8:	e0bfff15 	stw	r2,-4(fp)
   230ac:	e0bffe17 	ldw	r2,-8(fp)
   230b0:	10800917 	ldw	r2,36(r2)
   230b4:	10803fcc 	andi	r2,r2,255
   230b8:	000f883a 	mov	r7,zero
   230bc:	000d883a 	mov	r6,zero
   230c0:	100b883a 	mov	r5,r2
   230c4:	e13ffe17 	ldw	r4,-8(fp)
   230c8:	0022f480 	call	22f48 <alt_avalon_i2c_cmd_write>
   230cc:	e0bfff15 	stw	r2,-4(fp)
   230d0:	00000e06 	br	2310c <alt_avalon_i2c_send_address+0xd8>
   230d4:	e0bffe17 	ldw	r2,-8(fp)
   230d8:	10800917 	ldw	r2,36(r2)
   230dc:	1085883a 	add	r2,r2,r2
   230e0:	1007883a 	mov	r3,r2
   230e4:	e0bffd17 	ldw	r2,-12(fp)
   230e8:	1884b03a 	or	r2,r3,r2
   230ec:	10803fcc 	andi	r2,r2,255
   230f0:	e0fffc03 	ldbu	r3,-16(fp)
   230f4:	000f883a 	mov	r7,zero
   230f8:	180d883a 	mov	r6,r3
   230fc:	100b883a 	mov	r5,r2
   23100:	e13ffe17 	ldw	r4,-8(fp)
   23104:	0022f480 	call	22f48 <alt_avalon_i2c_cmd_write>
   23108:	e0bfff15 	stw	r2,-4(fp)
   2310c:	e0bfff17 	ldw	r2,-4(fp)
   23110:	e037883a 	mov	sp,fp
   23114:	dfc00117 	ldw	ra,4(sp)
   23118:	df000017 	ldw	fp,0(sp)
   2311c:	dec00204 	addi	sp,sp,8
   23120:	f800283a 	ret

00023124 <alt_avalon_i2c_master_target_get>:
   23124:	defffd04 	addi	sp,sp,-12
   23128:	df000215 	stw	fp,8(sp)
   2312c:	df000204 	addi	fp,sp,8
   23130:	e13fff15 	stw	r4,-4(fp)
   23134:	e17ffe15 	stw	r5,-8(fp)
   23138:	e0bfff17 	ldw	r2,-4(fp)
   2313c:	10c00917 	ldw	r3,36(r2)
   23140:	e0bffe17 	ldw	r2,-8(fp)
   23144:	10c00015 	stw	r3,0(r2)
   23148:	0001883a 	nop
   2314c:	e037883a 	mov	sp,fp
   23150:	df000017 	ldw	fp,0(sp)
   23154:	dec00104 	addi	sp,sp,4
   23158:	f800283a 	ret

0002315c <alt_avalon_i2c_master_target_set>:
   2315c:	defffd04 	addi	sp,sp,-12
   23160:	df000215 	stw	fp,8(sp)
   23164:	df000204 	addi	fp,sp,8
   23168:	e13fff15 	stw	r4,-4(fp)
   2316c:	e17ffe15 	stw	r5,-8(fp)
   23170:	e0bfff17 	ldw	r2,-4(fp)
   23174:	e0fffe17 	ldw	r3,-8(fp)
   23178:	10c00915 	stw	r3,36(r2)
   2317c:	0001883a 	nop
   23180:	e037883a 	mov	sp,fp
   23184:	df000017 	ldw	fp,0(sp)
   23188:	dec00104 	addi	sp,sp,4
   2318c:	f800283a 	ret

00023190 <alt_avalon_i2c_check_nack>:
   23190:	defffd04 	addi	sp,sp,-12
   23194:	df000215 	stw	fp,8(sp)
   23198:	df000204 	addi	fp,sp,8
   2319c:	e13fff15 	stw	r4,-4(fp)
   231a0:	e17ffe15 	stw	r5,-8(fp)
   231a4:	e0bfff17 	ldw	r2,-4(fp)
   231a8:	10800317 	ldw	r2,12(r2)
   231ac:	10800404 	addi	r2,r2,16
   231b0:	10800037 	ldwio	r2,0(r2)
   231b4:	1080010c 	andi	r2,r2,4
   231b8:	10000326 	beq	r2,zero,231c8 <alt_avalon_i2c_check_nack+0x38>
   231bc:	e0bffe17 	ldw	r2,-8(fp)
   231c0:	00fffec4 	movi	r3,-5
   231c4:	10c00015 	stw	r3,0(r2)
   231c8:	0001883a 	nop
   231cc:	e037883a 	mov	sp,fp
   231d0:	df000017 	ldw	fp,0(sp)
   231d4:	dec00104 	addi	sp,sp,4
   231d8:	f800283a 	ret

000231dc <alt_avalon_i2c_check_arblost>:
   231dc:	defffd04 	addi	sp,sp,-12
   231e0:	df000215 	stw	fp,8(sp)
   231e4:	df000204 	addi	fp,sp,8
   231e8:	e13fff15 	stw	r4,-4(fp)
   231ec:	e17ffe15 	stw	r5,-8(fp)
   231f0:	e0bfff17 	ldw	r2,-4(fp)
   231f4:	10800317 	ldw	r2,12(r2)
   231f8:	10800404 	addi	r2,r2,16
   231fc:	10800037 	ldwio	r2,0(r2)
   23200:	1080020c 	andi	r2,r2,8
   23204:	10000326 	beq	r2,zero,23214 <alt_avalon_i2c_check_arblost+0x38>
   23208:	e0bffe17 	ldw	r2,-8(fp)
   2320c:	00fffe84 	movi	r3,-6
   23210:	10c00015 	stw	r3,0(r2)
   23214:	0001883a 	nop
   23218:	e037883a 	mov	sp,fp
   2321c:	df000017 	ldw	fp,0(sp)
   23220:	dec00104 	addi	sp,sp,4
   23224:	f800283a 	ret

00023228 <alt_avalon_i2c_interrupt_transaction_status>:
   23228:	defff804 	addi	sp,sp,-32
   2322c:	dfc00715 	stw	ra,28(sp)
   23230:	df000615 	stw	fp,24(sp)
   23234:	df000604 	addi	fp,sp,24
   23238:	e13ffa15 	stw	r4,-24(fp)
   2323c:	e03ffd15 	stw	zero,-12(fp)
   23240:	e0bffa17 	ldw	r2,-24(fp)
   23244:	10800717 	ldw	r2,28(r2)
   23248:	e0bffe15 	stw	r2,-8(fp)
   2324c:	e0bffe17 	ldw	r2,-8(fp)
   23250:	10800117 	ldw	r2,4(r2)
   23254:	10800044 	addi	r2,r2,1
   23258:	0149c404 	movi	r5,10000
   2325c:	1009883a 	mov	r4,r2
   23260:	00212e80 	call	212e8 <__mulsi3>
   23264:	e0bfff15 	stw	r2,-4(fp)
   23268:	e0bffc04 	addi	r2,fp,-16
   2326c:	100b883a 	mov	r5,r2
   23270:	e13ffa17 	ldw	r4,-24(fp)
   23274:	00240c80 	call	240c8 <alt_avalon_i2c_enabled_ints_get>
   23278:	e0bffc17 	ldw	r2,-16(fp)
   2327c:	100b883a 	mov	r5,r2
   23280:	e13ffa17 	ldw	r4,-24(fp)
   23284:	0023ff40 	call	23ff4 <alt_avalon_i2c_int_disable>
   23288:	e0bffd04 	addi	r2,fp,-12
   2328c:	100b883a 	mov	r5,r2
   23290:	e13ffa17 	ldw	r4,-24(fp)
   23294:	00231900 	call	23190 <alt_avalon_i2c_check_nack>
   23298:	e0bffd17 	ldw	r2,-12(fp)
   2329c:	10002226 	beq	r2,zero,23328 <alt_avalon_i2c_interrupt_transaction_status+0x100>
   232a0:	e0bffe17 	ldw	r2,-8(fp)
   232a4:	10800217 	ldw	r2,8(r2)
   232a8:	10001d26 	beq	r2,zero,23320 <alt_avalon_i2c_interrupt_transaction_status+0xf8>
   232ac:	00000d06 	br	232e4 <alt_avalon_i2c_interrupt_transaction_status+0xbc>
   232b0:	e0bfff17 	ldw	r2,-4(fp)
   232b4:	108002a8 	cmpgeui	r2,r2,10
   232b8:	1000021e 	bne	r2,zero,232c4 <alt_avalon_i2c_interrupt_transaction_status+0x9c>
   232bc:	0109c404 	movi	r4,10000
   232c0:	00264840 	call	26484 <alt_busy_sleep>
   232c4:	e0bfff17 	ldw	r2,-4(fp)
   232c8:	10bfffc4 	addi	r2,r2,-1
   232cc:	e0bfff15 	stw	r2,-4(fp)
   232d0:	e0bfff17 	ldw	r2,-4(fp)
   232d4:	1000031e 	bne	r2,zero,232e4 <alt_avalon_i2c_interrupt_transaction_status+0xbc>
   232d8:	00bfff84 	movi	r2,-2
   232dc:	e0bffd15 	stw	r2,-12(fp)
   232e0:	00000306 	br	232f0 <alt_avalon_i2c_interrupt_transaction_status+0xc8>
   232e4:	e13ffa17 	ldw	r4,-24(fp)
   232e8:	0022db00 	call	22db0 <alt_avalon_i2c_is_busy>
   232ec:	103ff01e 	bne	r2,zero,232b0 <alt_avalon_i2c_interrupt_transaction_status+0x88>
   232f0:	e0bffe17 	ldw	r2,-8(fp)
   232f4:	10800017 	ldw	r2,0(r2)
   232f8:	e0fffb04 	addi	r3,fp,-20
   232fc:	180f883a 	mov	r7,r3
   23300:	000d883a 	mov	r6,zero
   23304:	100b883a 	mov	r5,r2
   23308:	e13ffa17 	ldw	r4,-24(fp)
   2330c:	0022df40 	call	22df4 <alt_avalon_i2c_rx_read_available>
   23310:	e13ffa17 	ldw	r4,-24(fp)
   23314:	0022a580 	call	22a58 <alt_avalon_i2c_disable>
   23318:	e0bffe17 	ldw	r2,-8(fp)
   2331c:	10000215 	stw	zero,8(r2)
   23320:	e0bffd17 	ldw	r2,-12(fp)
   23324:	00000a06 	br	23350 <alt_avalon_i2c_interrupt_transaction_status+0x128>
   23328:	e0bffe17 	ldw	r2,-8(fp)
   2332c:	10800217 	ldw	r2,8(r2)
   23330:	10000626 	beq	r2,zero,2334c <alt_avalon_i2c_interrupt_transaction_status+0x124>
   23334:	e0bffc17 	ldw	r2,-16(fp)
   23338:	100b883a 	mov	r5,r2
   2333c:	e13ffa17 	ldw	r4,-24(fp)
   23340:	00240600 	call	24060 <alt_avalon_i2c_int_enable>
   23344:	00bffe44 	movi	r2,-7
   23348:	00000106 	br	23350 <alt_avalon_i2c_interrupt_transaction_status+0x128>
   2334c:	0005883a 	mov	r2,zero
   23350:	e037883a 	mov	sp,fp
   23354:	dfc00117 	ldw	ra,4(sp)
   23358:	df000017 	ldw	fp,0(sp)
   2335c:	dec00204 	addi	sp,sp,8
   23360:	f800283a 	ret

00023364 <alt_avalon_i2c_master_tx>:
   23364:	defff704 	addi	sp,sp,-36
   23368:	dfc00815 	stw	ra,32(sp)
   2336c:	df000715 	stw	fp,28(sp)
   23370:	df000704 	addi	fp,sp,28
   23374:	e13ffd15 	stw	r4,-12(fp)
   23378:	e17ffc15 	stw	r5,-16(fp)
   2337c:	e1bffb15 	stw	r6,-20(fp)
   23380:	3805883a 	mov	r2,r7
   23384:	e0bffa05 	stb	r2,-24(fp)
   23388:	0089c404 	movi	r2,10000
   2338c:	e0bffe15 	stw	r2,-8(fp)
   23390:	00002206 	br	2341c <alt_avalon_i2c_master_tx+0xb8>
   23394:	e0bffe17 	ldw	r2,-8(fp)
   23398:	108002a8 	cmpgeui	r2,r2,10
   2339c:	1000021e 	bne	r2,zero,233a8 <alt_avalon_i2c_master_tx+0x44>
   233a0:	0109c404 	movi	r4,10000
   233a4:	00264840 	call	26484 <alt_busy_sleep>
   233a8:	e0bffa03 	ldbu	r2,-24(fp)
   233ac:	10000926 	beq	r2,zero,233d4 <alt_avalon_i2c_master_tx+0x70>
   233b0:	00800044 	movi	r2,1
   233b4:	d8800015 	stw	r2,0(sp)
   233b8:	000f883a 	mov	r7,zero
   233bc:	e1bffb17 	ldw	r6,-20(fp)
   233c0:	e17ffc17 	ldw	r5,-16(fp)
   233c4:	e13ffd17 	ldw	r4,-12(fp)
   233c8:	00239100 	call	23910 <alt_avalon_i2c_master_transmit_using_interrupts>
   233cc:	e0bfff15 	stw	r2,-4(fp)
   233d0:	00000806 	br	233f4 <alt_avalon_i2c_master_tx+0x90>
   233d4:	00800044 	movi	r2,1
   233d8:	d8800015 	stw	r2,0(sp)
   233dc:	000f883a 	mov	r7,zero
   233e0:	e1bffb17 	ldw	r6,-20(fp)
   233e4:	e17ffc17 	ldw	r5,-16(fp)
   233e8:	e13ffd17 	ldw	r4,-12(fp)
   233ec:	00237500 	call	23750 <alt_avalon_i2c_master_transmit>
   233f0:	e0bfff15 	stw	r2,-4(fp)
   233f4:	e0bfff17 	ldw	r2,-4(fp)
   233f8:	10bffea0 	cmpeqi	r2,r2,-6
   233fc:	1000061e 	bne	r2,zero,23418 <alt_avalon_i2c_master_tx+0xb4>
   23400:	e0bfff17 	ldw	r2,-4(fp)
   23404:	10bffee0 	cmpeqi	r2,r2,-5
   23408:	1000031e 	bne	r2,zero,23418 <alt_avalon_i2c_master_tx+0xb4>
   2340c:	e0bfff17 	ldw	r2,-4(fp)
   23410:	10bffe58 	cmpnei	r2,r2,-7
   23414:	1000061e 	bne	r2,zero,23430 <alt_avalon_i2c_master_tx+0xcc>
   23418:	0001883a 	nop
   2341c:	e0bffe17 	ldw	r2,-8(fp)
   23420:	10ffffc4 	addi	r3,r2,-1
   23424:	e0fffe15 	stw	r3,-8(fp)
   23428:	103fda1e 	bne	r2,zero,23394 <alt_avalon_i2c_master_tx+0x30>
   2342c:	00000106 	br	23434 <alt_avalon_i2c_master_tx+0xd0>
   23430:	0001883a 	nop
   23434:	e0bfff17 	ldw	r2,-4(fp)
   23438:	e037883a 	mov	sp,fp
   2343c:	dfc00117 	ldw	ra,4(sp)
   23440:	df000017 	ldw	fp,0(sp)
   23444:	dec00204 	addi	sp,sp,8
   23448:	f800283a 	ret

0002344c <alt_avalon_i2c_master_rx>:
   2344c:	defff704 	addi	sp,sp,-36
   23450:	dfc00815 	stw	ra,32(sp)
   23454:	df000715 	stw	fp,28(sp)
   23458:	df000704 	addi	fp,sp,28
   2345c:	e13ffd15 	stw	r4,-12(fp)
   23460:	e17ffc15 	stw	r5,-16(fp)
   23464:	e1bffb15 	stw	r6,-20(fp)
   23468:	3805883a 	mov	r2,r7
   2346c:	e0bffa05 	stb	r2,-24(fp)
   23470:	0089c404 	movi	r2,10000
   23474:	e0bffe15 	stw	r2,-8(fp)
   23478:	e0bffa03 	ldbu	r2,-24(fp)
   2347c:	10003426 	beq	r2,zero,23550 <alt_avalon_i2c_master_rx+0x104>
   23480:	00001706 	br	234e0 <alt_avalon_i2c_master_rx+0x94>
   23484:	e0bffe17 	ldw	r2,-8(fp)
   23488:	108002a8 	cmpgeui	r2,r2,10
   2348c:	1000021e 	bne	r2,zero,23498 <alt_avalon_i2c_master_rx+0x4c>
   23490:	0109c404 	movi	r4,10000
   23494:	00264840 	call	26484 <alt_busy_sleep>
   23498:	00800044 	movi	r2,1
   2349c:	d8800015 	stw	r2,0(sp)
   234a0:	000f883a 	mov	r7,zero
   234a4:	e1bffb17 	ldw	r6,-20(fp)
   234a8:	e17ffc17 	ldw	r5,-16(fp)
   234ac:	e13ffd17 	ldw	r4,-12(fp)
   234b0:	0023d2c0 	call	23d2c <alt_avalon_i2c_master_receive_using_interrupts>
   234b4:	e0bfff15 	stw	r2,-4(fp)
   234b8:	e0bfff17 	ldw	r2,-4(fp)
   234bc:	10bffea0 	cmpeqi	r2,r2,-6
   234c0:	1000061e 	bne	r2,zero,234dc <alt_avalon_i2c_master_rx+0x90>
   234c4:	e0bfff17 	ldw	r2,-4(fp)
   234c8:	10bffee0 	cmpeqi	r2,r2,-5
   234cc:	1000031e 	bne	r2,zero,234dc <alt_avalon_i2c_master_rx+0x90>
   234d0:	e0bfff17 	ldw	r2,-4(fp)
   234d4:	10bffe58 	cmpnei	r2,r2,-7
   234d8:	1000221e 	bne	r2,zero,23564 <alt_avalon_i2c_master_rx+0x118>
   234dc:	0001883a 	nop
   234e0:	e0bffe17 	ldw	r2,-8(fp)
   234e4:	10ffffc4 	addi	r3,r2,-1
   234e8:	e0fffe15 	stw	r3,-8(fp)
   234ec:	103fe51e 	bne	r2,zero,23484 <alt_avalon_i2c_master_rx+0x38>
   234f0:	00001f06 	br	23570 <alt_avalon_i2c_master_rx+0x124>
   234f4:	e0bffe17 	ldw	r2,-8(fp)
   234f8:	108002a8 	cmpgeui	r2,r2,10
   234fc:	1000021e 	bne	r2,zero,23508 <alt_avalon_i2c_master_rx+0xbc>
   23500:	0109c404 	movi	r4,10000
   23504:	00264840 	call	26484 <alt_busy_sleep>
   23508:	00800044 	movi	r2,1
   2350c:	d8800015 	stw	r2,0(sp)
   23510:	000f883a 	mov	r7,zero
   23514:	e1bffb17 	ldw	r6,-20(fp)
   23518:	e17ffc17 	ldw	r5,-16(fp)
   2351c:	e13ffd17 	ldw	r4,-12(fp)
   23520:	0023b1c0 	call	23b1c <alt_avalon_i2c_master_receive>
   23524:	e0bfff15 	stw	r2,-4(fp)
   23528:	e0bfff17 	ldw	r2,-4(fp)
   2352c:	10bffea0 	cmpeqi	r2,r2,-6
   23530:	1000061e 	bne	r2,zero,2354c <alt_avalon_i2c_master_rx+0x100>
   23534:	e0bfff17 	ldw	r2,-4(fp)
   23538:	10bffee0 	cmpeqi	r2,r2,-5
   2353c:	1000031e 	bne	r2,zero,2354c <alt_avalon_i2c_master_rx+0x100>
   23540:	e0bfff17 	ldw	r2,-4(fp)
   23544:	10bffe58 	cmpnei	r2,r2,-7
   23548:	1000081e 	bne	r2,zero,2356c <alt_avalon_i2c_master_rx+0x120>
   2354c:	0001883a 	nop
   23550:	e0bffe17 	ldw	r2,-8(fp)
   23554:	10ffffc4 	addi	r3,r2,-1
   23558:	e0fffe15 	stw	r3,-8(fp)
   2355c:	103fe51e 	bne	r2,zero,234f4 <alt_avalon_i2c_master_rx+0xa8>
   23560:	00000306 	br	23570 <alt_avalon_i2c_master_rx+0x124>
   23564:	0001883a 	nop
   23568:	00000106 	br	23570 <alt_avalon_i2c_master_rx+0x124>
   2356c:	0001883a 	nop
   23570:	e0bfff17 	ldw	r2,-4(fp)
   23574:	e037883a 	mov	sp,fp
   23578:	dfc00117 	ldw	ra,4(sp)
   2357c:	df000017 	ldw	fp,0(sp)
   23580:	dec00204 	addi	sp,sp,8
   23584:	f800283a 	ret

00023588 <alt_avalon_i2c_master_tx_rx>:
   23588:	defff604 	addi	sp,sp,-40
   2358c:	dfc00915 	stw	ra,36(sp)
   23590:	df000815 	stw	fp,32(sp)
   23594:	df000804 	addi	fp,sp,32
   23598:	e13ffd15 	stw	r4,-12(fp)
   2359c:	e17ffc15 	stw	r5,-16(fp)
   235a0:	e1bffb15 	stw	r6,-20(fp)
   235a4:	e1fffa15 	stw	r7,-24(fp)
   235a8:	e0800317 	ldw	r2,12(fp)
   235ac:	e0bff905 	stb	r2,-28(fp)
   235b0:	0089c404 	movi	r2,10000
   235b4:	e0bffe15 	stw	r2,-8(fp)
   235b8:	e0bff903 	ldbu	r2,-28(fp)
   235bc:	10005626 	beq	r2,zero,23718 <alt_avalon_i2c_master_tx_rx+0x190>
   235c0:	00002806 	br	23664 <alt_avalon_i2c_master_tx_rx+0xdc>
   235c4:	e0bffe17 	ldw	r2,-8(fp)
   235c8:	108002a8 	cmpgeui	r2,r2,10
   235cc:	1000021e 	bne	r2,zero,235d8 <alt_avalon_i2c_master_tx_rx+0x50>
   235d0:	0109c404 	movi	r4,10000
   235d4:	00264840 	call	26484 <alt_busy_sleep>
   235d8:	d8000015 	stw	zero,0(sp)
   235dc:	000f883a 	mov	r7,zero
   235e0:	e1bffb17 	ldw	r6,-20(fp)
   235e4:	e17ffc17 	ldw	r5,-16(fp)
   235e8:	e13ffd17 	ldw	r4,-12(fp)
   235ec:	00239100 	call	23910 <alt_avalon_i2c_master_transmit_using_interrupts>
   235f0:	e0bfff15 	stw	r2,-4(fp)
   235f4:	e0bfff17 	ldw	r2,-4(fp)
   235f8:	10bffea0 	cmpeqi	r2,r2,-6
   235fc:	1000191e 	bne	r2,zero,23664 <alt_avalon_i2c_master_tx_rx+0xdc>
   23600:	e0bfff17 	ldw	r2,-4(fp)
   23604:	10bffee0 	cmpeqi	r2,r2,-5
   23608:	1000161e 	bne	r2,zero,23664 <alt_avalon_i2c_master_tx_rx+0xdc>
   2360c:	e0bfff17 	ldw	r2,-4(fp)
   23610:	10bffe58 	cmpnei	r2,r2,-7
   23614:	1000011e 	bne	r2,zero,2361c <alt_avalon_i2c_master_tx_rx+0x94>
   23618:	00001206 	br	23664 <alt_avalon_i2c_master_tx_rx+0xdc>
   2361c:	00800044 	movi	r2,1
   23620:	d8800015 	stw	r2,0(sp)
   23624:	01c00044 	movi	r7,1
   23628:	e1800217 	ldw	r6,8(fp)
   2362c:	e17ffa17 	ldw	r5,-24(fp)
   23630:	e13ffd17 	ldw	r4,-12(fp)
   23634:	0023d2c0 	call	23d2c <alt_avalon_i2c_master_receive_using_interrupts>
   23638:	e0bfff15 	stw	r2,-4(fp)
   2363c:	e0bfff17 	ldw	r2,-4(fp)
   23640:	10bffea0 	cmpeqi	r2,r2,-6
   23644:	1000061e 	bne	r2,zero,23660 <alt_avalon_i2c_master_tx_rx+0xd8>
   23648:	e0bfff17 	ldw	r2,-4(fp)
   2364c:	10bffee0 	cmpeqi	r2,r2,-5
   23650:	1000031e 	bne	r2,zero,23660 <alt_avalon_i2c_master_tx_rx+0xd8>
   23654:	e0bfff17 	ldw	r2,-4(fp)
   23658:	10bffe58 	cmpnei	r2,r2,-7
   2365c:	1000331e 	bne	r2,zero,2372c <alt_avalon_i2c_master_tx_rx+0x1a4>
   23660:	0001883a 	nop
   23664:	e0bffe17 	ldw	r2,-8(fp)
   23668:	10ffffc4 	addi	r3,r2,-1
   2366c:	e0fffe15 	stw	r3,-8(fp)
   23670:	103fd41e 	bne	r2,zero,235c4 <alt_avalon_i2c_master_tx_rx+0x3c>
   23674:	00003006 	br	23738 <alt_avalon_i2c_master_tx_rx+0x1b0>
   23678:	e0bffe17 	ldw	r2,-8(fp)
   2367c:	108002a8 	cmpgeui	r2,r2,10
   23680:	1000021e 	bne	r2,zero,2368c <alt_avalon_i2c_master_tx_rx+0x104>
   23684:	0109c404 	movi	r4,10000
   23688:	00264840 	call	26484 <alt_busy_sleep>
   2368c:	d8000015 	stw	zero,0(sp)
   23690:	000f883a 	mov	r7,zero
   23694:	e1bffb17 	ldw	r6,-20(fp)
   23698:	e17ffc17 	ldw	r5,-16(fp)
   2369c:	e13ffd17 	ldw	r4,-12(fp)
   236a0:	00237500 	call	23750 <alt_avalon_i2c_master_transmit>
   236a4:	e0bfff15 	stw	r2,-4(fp)
   236a8:	e0bfff17 	ldw	r2,-4(fp)
   236ac:	10bffea0 	cmpeqi	r2,r2,-6
   236b0:	1000191e 	bne	r2,zero,23718 <alt_avalon_i2c_master_tx_rx+0x190>
   236b4:	e0bfff17 	ldw	r2,-4(fp)
   236b8:	10bffee0 	cmpeqi	r2,r2,-5
   236bc:	1000161e 	bne	r2,zero,23718 <alt_avalon_i2c_master_tx_rx+0x190>
   236c0:	e0bfff17 	ldw	r2,-4(fp)
   236c4:	10bffe58 	cmpnei	r2,r2,-7
   236c8:	1000011e 	bne	r2,zero,236d0 <alt_avalon_i2c_master_tx_rx+0x148>
   236cc:	00001206 	br	23718 <alt_avalon_i2c_master_tx_rx+0x190>
   236d0:	00800044 	movi	r2,1
   236d4:	d8800015 	stw	r2,0(sp)
   236d8:	01c00044 	movi	r7,1
   236dc:	e1800217 	ldw	r6,8(fp)
   236e0:	e17ffa17 	ldw	r5,-24(fp)
   236e4:	e13ffd17 	ldw	r4,-12(fp)
   236e8:	0023b1c0 	call	23b1c <alt_avalon_i2c_master_receive>
   236ec:	e0bfff15 	stw	r2,-4(fp)
   236f0:	e0bfff17 	ldw	r2,-4(fp)
   236f4:	10bffea0 	cmpeqi	r2,r2,-6
   236f8:	1000061e 	bne	r2,zero,23714 <alt_avalon_i2c_master_tx_rx+0x18c>
   236fc:	e0bfff17 	ldw	r2,-4(fp)
   23700:	10bffee0 	cmpeqi	r2,r2,-5
   23704:	1000031e 	bne	r2,zero,23714 <alt_avalon_i2c_master_tx_rx+0x18c>
   23708:	e0bfff17 	ldw	r2,-4(fp)
   2370c:	10bffe58 	cmpnei	r2,r2,-7
   23710:	1000081e 	bne	r2,zero,23734 <alt_avalon_i2c_master_tx_rx+0x1ac>
   23714:	0001883a 	nop
   23718:	e0bffe17 	ldw	r2,-8(fp)
   2371c:	10ffffc4 	addi	r3,r2,-1
   23720:	e0fffe15 	stw	r3,-8(fp)
   23724:	103fd41e 	bne	r2,zero,23678 <alt_avalon_i2c_master_tx_rx+0xf0>
   23728:	00000306 	br	23738 <alt_avalon_i2c_master_tx_rx+0x1b0>
   2372c:	0001883a 	nop
   23730:	00000106 	br	23738 <alt_avalon_i2c_master_tx_rx+0x1b0>
   23734:	0001883a 	nop
   23738:	e0bfff17 	ldw	r2,-4(fp)
   2373c:	e037883a 	mov	sp,fp
   23740:	dfc00117 	ldw	ra,4(sp)
   23744:	df000017 	ldw	fp,0(sp)
   23748:	dec00204 	addi	sp,sp,8
   2374c:	f800283a 	ret

00023750 <alt_avalon_i2c_master_transmit>:
   23750:	defff704 	addi	sp,sp,-36
   23754:	dfc00815 	stw	ra,32(sp)
   23758:	df000715 	stw	fp,28(sp)
   2375c:	df000704 	addi	fp,sp,28
   23760:	e13ffd15 	stw	r4,-12(fp)
   23764:	e17ffc15 	stw	r5,-16(fp)
   23768:	e1bffb15 	stw	r6,-20(fp)
   2376c:	3807883a 	mov	r3,r7
   23770:	e0800217 	ldw	r2,8(fp)
   23774:	e0fffa05 	stb	r3,-24(fp)
   23778:	e0bff905 	stb	r2,-28(fp)
   2377c:	e03ffe15 	stw	zero,-8(fp)
   23780:	0149c404 	movi	r5,10000
   23784:	e13ffb17 	ldw	r4,-20(fp)
   23788:	00212e80 	call	212e8 <__mulsi3>
   2378c:	e0bfff15 	stw	r2,-4(fp)
   23790:	e0bffb17 	ldw	r2,-20(fp)
   23794:	1000021e 	bne	r2,zero,237a0 <alt_avalon_i2c_master_transmit+0x50>
   23798:	0005883a 	mov	r2,zero
   2379c:	00005706 	br	238fc <alt_avalon_i2c_master_transmit+0x1ac>
   237a0:	e0bffa03 	ldbu	r2,-24(fp)
   237a4:	10000a1e 	bne	r2,zero,237d0 <alt_avalon_i2c_master_transmit+0x80>
   237a8:	e13ffd17 	ldw	r4,-12(fp)
   237ac:	00229c00 	call	229c0 <alt_avalon_i2c_enable>
   237b0:	e0bffe15 	stw	r2,-8(fp)
   237b4:	e0bffe17 	ldw	r2,-8(fp)
   237b8:	10000226 	beq	r2,zero,237c4 <alt_avalon_i2c_master_transmit+0x74>
   237bc:	e0bffe17 	ldw	r2,-8(fp)
   237c0:	00004e06 	br	238fc <alt_avalon_i2c_master_transmit+0x1ac>
   237c4:	01400704 	movi	r5,28
   237c8:	e13ffd17 	ldw	r4,-12(fp)
   237cc:	0023fb80 	call	23fb8 <alt_avalon_i2c_int_clear>
   237d0:	e0bffa03 	ldbu	r2,-24(fp)
   237d4:	100d883a 	mov	r6,r2
   237d8:	000b883a 	mov	r5,zero
   237dc:	e13ffd17 	ldw	r4,-12(fp)
   237e0:	00230340 	call	23034 <alt_avalon_i2c_send_address>
   237e4:	e0bffe15 	stw	r2,-8(fp)
   237e8:	e0bffe17 	ldw	r2,-8(fp)
   237ec:	1000271e 	bne	r2,zero,2388c <alt_avalon_i2c_master_transmit+0x13c>
   237f0:	00000f06 	br	23830 <alt_avalon_i2c_master_transmit+0xe0>
   237f4:	e0bffc17 	ldw	r2,-16(fp)
   237f8:	10800003 	ldbu	r2,0(r2)
   237fc:	10803fcc 	andi	r2,r2,255
   23800:	000f883a 	mov	r7,zero
   23804:	000d883a 	mov	r6,zero
   23808:	100b883a 	mov	r5,r2
   2380c:	e13ffd17 	ldw	r4,-12(fp)
   23810:	0022f480 	call	22f48 <alt_avalon_i2c_cmd_write>
   23814:	e0bffe15 	stw	r2,-8(fp)
   23818:	e0bffc17 	ldw	r2,-16(fp)
   2381c:	10800044 	addi	r2,r2,1
   23820:	e0bffc15 	stw	r2,-16(fp)
   23824:	e0bffb17 	ldw	r2,-20(fp)
   23828:	10bfffc4 	addi	r2,r2,-1
   2382c:	e0bffb15 	stw	r2,-20(fp)
   23830:	e0bffb17 	ldw	r2,-20(fp)
   23834:	108000b0 	cmpltui	r2,r2,2
   23838:	1000021e 	bne	r2,zero,23844 <alt_avalon_i2c_master_transmit+0xf4>
   2383c:	e0bffe17 	ldw	r2,-8(fp)
   23840:	103fec26 	beq	r2,zero,237f4 <alt_avalon_i2c_master_transmit+0xa4>
   23844:	e0bffe17 	ldw	r2,-8(fp)
   23848:	1000101e 	bne	r2,zero,2388c <alt_avalon_i2c_master_transmit+0x13c>
   2384c:	e0bffc17 	ldw	r2,-16(fp)
   23850:	10800003 	ldbu	r2,0(r2)
   23854:	10803fcc 	andi	r2,r2,255
   23858:	e0fff903 	ldbu	r3,-28(fp)
   2385c:	180f883a 	mov	r7,r3
   23860:	000d883a 	mov	r6,zero
   23864:	100b883a 	mov	r5,r2
   23868:	e13ffd17 	ldw	r4,-12(fp)
   2386c:	0022f480 	call	22f48 <alt_avalon_i2c_cmd_write>
   23870:	e0bffe15 	stw	r2,-8(fp)
   23874:	e0bffc17 	ldw	r2,-16(fp)
   23878:	10800044 	addi	r2,r2,1
   2387c:	e0bffc15 	stw	r2,-16(fp)
   23880:	e0bffb17 	ldw	r2,-20(fp)
   23884:	10bfffc4 	addi	r2,r2,-1
   23888:	e0bffb15 	stw	r2,-20(fp)
   2388c:	e0bff903 	ldbu	r2,-28(fp)
   23890:	1000101e 	bne	r2,zero,238d4 <alt_avalon_i2c_master_transmit+0x184>
   23894:	e0bffe17 	ldw	r2,-8(fp)
   23898:	10001726 	beq	r2,zero,238f8 <alt_avalon_i2c_master_transmit+0x1a8>
   2389c:	00000d06 	br	238d4 <alt_avalon_i2c_master_transmit+0x184>
   238a0:	e0bfff17 	ldw	r2,-4(fp)
   238a4:	108002a8 	cmpgeui	r2,r2,10
   238a8:	1000021e 	bne	r2,zero,238b4 <alt_avalon_i2c_master_transmit+0x164>
   238ac:	0109c404 	movi	r4,10000
   238b0:	00264840 	call	26484 <alt_busy_sleep>
   238b4:	e0bfff17 	ldw	r2,-4(fp)
   238b8:	10bfffc4 	addi	r2,r2,-1
   238bc:	e0bfff15 	stw	r2,-4(fp)
   238c0:	e0bfff17 	ldw	r2,-4(fp)
   238c4:	1000031e 	bne	r2,zero,238d4 <alt_avalon_i2c_master_transmit+0x184>
   238c8:	00bfff84 	movi	r2,-2
   238cc:	e0bffe15 	stw	r2,-8(fp)
   238d0:	00000306 	br	238e0 <alt_avalon_i2c_master_transmit+0x190>
   238d4:	e13ffd17 	ldw	r4,-12(fp)
   238d8:	0022db00 	call	22db0 <alt_avalon_i2c_is_busy>
   238dc:	103ff01e 	bne	r2,zero,238a0 <alt_avalon_i2c_master_transmit+0x150>
   238e0:	e0bffe04 	addi	r2,fp,-8
   238e4:	100b883a 	mov	r5,r2
   238e8:	e13ffd17 	ldw	r4,-12(fp)
   238ec:	00231900 	call	23190 <alt_avalon_i2c_check_nack>
   238f0:	e13ffd17 	ldw	r4,-12(fp)
   238f4:	0022a580 	call	22a58 <alt_avalon_i2c_disable>
   238f8:	e0bffe17 	ldw	r2,-8(fp)
   238fc:	e037883a 	mov	sp,fp
   23900:	dfc00117 	ldw	ra,4(sp)
   23904:	df000017 	ldw	fp,0(sp)
   23908:	dec00204 	addi	sp,sp,8
   2390c:	f800283a 	ret

00023910 <alt_avalon_i2c_master_transmit_using_interrupts>:
   23910:	defff604 	addi	sp,sp,-40
   23914:	dfc00915 	stw	ra,36(sp)
   23918:	df000815 	stw	fp,32(sp)
   2391c:	df000804 	addi	fp,sp,32
   23920:	e13ffc15 	stw	r4,-16(fp)
   23924:	e17ffb15 	stw	r5,-20(fp)
   23928:	e1bffa15 	stw	r6,-24(fp)
   2392c:	3807883a 	mov	r3,r7
   23930:	e0800217 	ldw	r2,8(fp)
   23934:	e0fff905 	stb	r3,-28(fp)
   23938:	e0bff805 	stb	r2,-32(fp)
   2393c:	e03fff15 	stw	zero,-4(fp)
   23940:	0149c404 	movi	r5,10000
   23944:	e13ffa17 	ldw	r4,-24(fp)
   23948:	00212e80 	call	212e8 <__mulsi3>
   2394c:	e0bffe15 	stw	r2,-8(fp)
   23950:	e0bffc17 	ldw	r2,-16(fp)
   23954:	10800717 	ldw	r2,28(r2)
   23958:	e0bffd15 	stw	r2,-12(fp)
   2395c:	e0bffa17 	ldw	r2,-24(fp)
   23960:	1000021e 	bne	r2,zero,2396c <alt_avalon_i2c_master_transmit_using_interrupts+0x5c>
   23964:	0005883a 	mov	r2,zero
   23968:	00006706 	br	23b08 <alt_avalon_i2c_master_transmit_using_interrupts+0x1f8>
   2396c:	e0bffc17 	ldw	r2,-16(fp)
   23970:	10c00617 	ldw	r3,24(r2)
   23974:	008000b4 	movhi	r2,2
   23978:	10899004 	addi	r2,r2,9792
   2397c:	18800226 	beq	r3,r2,23988 <alt_avalon_i2c_master_transmit_using_interrupts+0x78>
   23980:	00bfff44 	movi	r2,-3
   23984:	00006006 	br	23b08 <alt_avalon_i2c_master_transmit_using_interrupts+0x1f8>
   23988:	e0bff903 	ldbu	r2,-28(fp)
   2398c:	10000a1e 	bne	r2,zero,239b8 <alt_avalon_i2c_master_transmit_using_interrupts+0xa8>
   23990:	e13ffc17 	ldw	r4,-16(fp)
   23994:	00229c00 	call	229c0 <alt_avalon_i2c_enable>
   23998:	e0bfff15 	stw	r2,-4(fp)
   2399c:	e0bfff17 	ldw	r2,-4(fp)
   239a0:	10000226 	beq	r2,zero,239ac <alt_avalon_i2c_master_transmit_using_interrupts+0x9c>
   239a4:	e0bfff17 	ldw	r2,-4(fp)
   239a8:	00005706 	br	23b08 <alt_avalon_i2c_master_transmit_using_interrupts+0x1f8>
   239ac:	01400704 	movi	r5,28
   239b0:	e13ffc17 	ldw	r4,-16(fp)
   239b4:	0023fb80 	call	23fb8 <alt_avalon_i2c_int_clear>
   239b8:	e0bff903 	ldbu	r2,-28(fp)
   239bc:	100d883a 	mov	r6,r2
   239c0:	000b883a 	mov	r5,zero
   239c4:	e13ffc17 	ldw	r4,-16(fp)
   239c8:	00230340 	call	23034 <alt_avalon_i2c_send_address>
   239cc:	e0bfff15 	stw	r2,-4(fp)
   239d0:	e0bfff17 	ldw	r2,-4(fp)
   239d4:	1000271e 	bne	r2,zero,23a74 <alt_avalon_i2c_master_transmit_using_interrupts+0x164>
   239d8:	00000f06 	br	23a18 <alt_avalon_i2c_master_transmit_using_interrupts+0x108>
   239dc:	e0bffb17 	ldw	r2,-20(fp)
   239e0:	10800003 	ldbu	r2,0(r2)
   239e4:	10803fcc 	andi	r2,r2,255
   239e8:	000f883a 	mov	r7,zero
   239ec:	000d883a 	mov	r6,zero
   239f0:	100b883a 	mov	r5,r2
   239f4:	e13ffc17 	ldw	r4,-16(fp)
   239f8:	0022f480 	call	22f48 <alt_avalon_i2c_cmd_write>
   239fc:	e0bfff15 	stw	r2,-4(fp)
   23a00:	e0bffb17 	ldw	r2,-20(fp)
   23a04:	10800044 	addi	r2,r2,1
   23a08:	e0bffb15 	stw	r2,-20(fp)
   23a0c:	e0bffa17 	ldw	r2,-24(fp)
   23a10:	10bfffc4 	addi	r2,r2,-1
   23a14:	e0bffa15 	stw	r2,-24(fp)
   23a18:	e0bffa17 	ldw	r2,-24(fp)
   23a1c:	108000b0 	cmpltui	r2,r2,2
   23a20:	1000021e 	bne	r2,zero,23a2c <alt_avalon_i2c_master_transmit_using_interrupts+0x11c>
   23a24:	e0bfff17 	ldw	r2,-4(fp)
   23a28:	103fec26 	beq	r2,zero,239dc <alt_avalon_i2c_master_transmit_using_interrupts+0xcc>
   23a2c:	e0bfff17 	ldw	r2,-4(fp)
   23a30:	1000101e 	bne	r2,zero,23a74 <alt_avalon_i2c_master_transmit_using_interrupts+0x164>
   23a34:	e0bffb17 	ldw	r2,-20(fp)
   23a38:	10800003 	ldbu	r2,0(r2)
   23a3c:	10803fcc 	andi	r2,r2,255
   23a40:	e0fff803 	ldbu	r3,-32(fp)
   23a44:	180f883a 	mov	r7,r3
   23a48:	000d883a 	mov	r6,zero
   23a4c:	100b883a 	mov	r5,r2
   23a50:	e13ffc17 	ldw	r4,-16(fp)
   23a54:	0022f480 	call	22f48 <alt_avalon_i2c_cmd_write>
   23a58:	e0bfff15 	stw	r2,-4(fp)
   23a5c:	e0bffb17 	ldw	r2,-20(fp)
   23a60:	10800044 	addi	r2,r2,1
   23a64:	e0bffb15 	stw	r2,-20(fp)
   23a68:	e0bffa17 	ldw	r2,-24(fp)
   23a6c:	10bfffc4 	addi	r2,r2,-1
   23a70:	e0bffa15 	stw	r2,-24(fp)
   23a74:	e0bfff17 	ldw	r2,-4(fp)
   23a78:	10001426 	beq	r2,zero,23acc <alt_avalon_i2c_master_transmit_using_interrupts+0x1bc>
   23a7c:	00000d06 	br	23ab4 <alt_avalon_i2c_master_transmit_using_interrupts+0x1a4>
   23a80:	e0bffe17 	ldw	r2,-8(fp)
   23a84:	108002a8 	cmpgeui	r2,r2,10
   23a88:	1000021e 	bne	r2,zero,23a94 <alt_avalon_i2c_master_transmit_using_interrupts+0x184>
   23a8c:	0109c404 	movi	r4,10000
   23a90:	00264840 	call	26484 <alt_busy_sleep>
   23a94:	e0bffe17 	ldw	r2,-8(fp)
   23a98:	10bfffc4 	addi	r2,r2,-1
   23a9c:	e0bffe15 	stw	r2,-8(fp)
   23aa0:	e0bffe17 	ldw	r2,-8(fp)
   23aa4:	1000031e 	bne	r2,zero,23ab4 <alt_avalon_i2c_master_transmit_using_interrupts+0x1a4>
   23aa8:	00bfff84 	movi	r2,-2
   23aac:	e0bfff15 	stw	r2,-4(fp)
   23ab0:	00000306 	br	23ac0 <alt_avalon_i2c_master_transmit_using_interrupts+0x1b0>
   23ab4:	e13ffc17 	ldw	r4,-16(fp)
   23ab8:	0022db00 	call	22db0 <alt_avalon_i2c_is_busy>
   23abc:	103ff01e 	bne	r2,zero,23a80 <alt_avalon_i2c_master_transmit_using_interrupts+0x170>
   23ac0:	e13ffc17 	ldw	r4,-16(fp)
   23ac4:	0022a580 	call	22a58 <alt_avalon_i2c_disable>
   23ac8:	00000e06 	br	23b04 <alt_avalon_i2c_master_transmit_using_interrupts+0x1f4>
   23acc:	e0bff803 	ldbu	r2,-32(fp)
   23ad0:	10000c26 	beq	r2,zero,23b04 <alt_avalon_i2c_master_transmit_using_interrupts+0x1f4>
   23ad4:	01400704 	movi	r5,28
   23ad8:	e13ffc17 	ldw	r4,-16(fp)
   23adc:	0023fb80 	call	23fb8 <alt_avalon_i2c_int_clear>
   23ae0:	000b883a 	mov	r5,zero
   23ae4:	e13ffc17 	ldw	r4,-16(fp)
   23ae8:	00242080 	call	24208 <alt_avalon_i2c_tfr_cmd_fifo_threshold_set>
   23aec:	e0bffd17 	ldw	r2,-12(fp)
   23af0:	00c00044 	movi	r3,1
   23af4:	10c00215 	stw	r3,8(r2)
   23af8:	01400044 	movi	r5,1
   23afc:	e13ffc17 	ldw	r4,-16(fp)
   23b00:	00240600 	call	24060 <alt_avalon_i2c_int_enable>
   23b04:	e0bfff17 	ldw	r2,-4(fp)
   23b08:	e037883a 	mov	sp,fp
   23b0c:	dfc00117 	ldw	ra,4(sp)
   23b10:	df000017 	ldw	fp,0(sp)
   23b14:	dec00204 	addi	sp,sp,8
   23b18:	f800283a 	ret

00023b1c <alt_avalon_i2c_master_receive>:
   23b1c:	defff404 	addi	sp,sp,-48
   23b20:	dfc00b15 	stw	ra,44(sp)
   23b24:	df000a15 	stw	fp,40(sp)
   23b28:	df000a04 	addi	fp,sp,40
   23b2c:	e13ffa15 	stw	r4,-24(fp)
   23b30:	e17ff915 	stw	r5,-28(fp)
   23b34:	e1bff815 	stw	r6,-32(fp)
   23b38:	3807883a 	mov	r3,r7
   23b3c:	e0800217 	ldw	r2,8(fp)
   23b40:	e0fff705 	stb	r3,-36(fp)
   23b44:	e0bff605 	stb	r2,-40(fp)
   23b48:	e03ffc15 	stw	zero,-16(fp)
   23b4c:	e03ffe15 	stw	zero,-8(fp)
   23b50:	e03ffd15 	stw	zero,-12(fp)
   23b54:	e0bff817 	ldw	r2,-32(fp)
   23b58:	1000021e 	bne	r2,zero,23b64 <alt_avalon_i2c_master_receive+0x48>
   23b5c:	0005883a 	mov	r2,zero
   23b60:	00006d06 	br	23d18 <alt_avalon_i2c_master_receive+0x1fc>
   23b64:	e0bff703 	ldbu	r2,-36(fp)
   23b68:	10000a1e 	bne	r2,zero,23b94 <alt_avalon_i2c_master_receive+0x78>
   23b6c:	e13ffa17 	ldw	r4,-24(fp)
   23b70:	00229c00 	call	229c0 <alt_avalon_i2c_enable>
   23b74:	e0bffc15 	stw	r2,-16(fp)
   23b78:	e0bffc17 	ldw	r2,-16(fp)
   23b7c:	10000226 	beq	r2,zero,23b88 <alt_avalon_i2c_master_receive+0x6c>
   23b80:	e0bffc17 	ldw	r2,-16(fp)
   23b84:	00006406 	br	23d18 <alt_avalon_i2c_master_receive+0x1fc>
   23b88:	01400704 	movi	r5,28
   23b8c:	e13ffa17 	ldw	r4,-24(fp)
   23b90:	0023fb80 	call	23fb8 <alt_avalon_i2c_int_clear>
   23b94:	e0bff703 	ldbu	r2,-36(fp)
   23b98:	100d883a 	mov	r6,r2
   23b9c:	01400044 	movi	r5,1
   23ba0:	e13ffa17 	ldw	r4,-24(fp)
   23ba4:	00230340 	call	23034 <alt_avalon_i2c_send_address>
   23ba8:	e0bffc15 	stw	r2,-16(fp)
   23bac:	e0bffc17 	ldw	r2,-16(fp)
   23bb0:	1000341e 	bne	r2,zero,23c84 <alt_avalon_i2c_master_receive+0x168>
   23bb4:	00001906 	br	23c1c <alt_avalon_i2c_master_receive+0x100>
   23bb8:	000f883a 	mov	r7,zero
   23bbc:	000d883a 	mov	r6,zero
   23bc0:	000b883a 	mov	r5,zero
   23bc4:	e13ffa17 	ldw	r4,-24(fp)
   23bc8:	0022f480 	call	22f48 <alt_avalon_i2c_cmd_write>
   23bcc:	e0bffc15 	stw	r2,-16(fp)
   23bd0:	e0bffd17 	ldw	r2,-12(fp)
   23bd4:	10800044 	addi	r2,r2,1
   23bd8:	e0bffd15 	stw	r2,-12(fp)
   23bdc:	e0bffc17 	ldw	r2,-16(fp)
   23be0:	10000e1e 	bne	r2,zero,23c1c <alt_avalon_i2c_master_receive+0x100>
   23be4:	e0bffb04 	addi	r2,fp,-20
   23be8:	100f883a 	mov	r7,r2
   23bec:	000d883a 	mov	r6,zero
   23bf0:	e17ff917 	ldw	r5,-28(fp)
   23bf4:	e13ffa17 	ldw	r4,-24(fp)
   23bf8:	0022df40 	call	22df4 <alt_avalon_i2c_rx_read_available>
   23bfc:	e0bffb17 	ldw	r2,-20(fp)
   23c00:	e0fff917 	ldw	r3,-28(fp)
   23c04:	1885883a 	add	r2,r3,r2
   23c08:	e0bff915 	stw	r2,-28(fp)
   23c0c:	e0bffb17 	ldw	r2,-20(fp)
   23c10:	e0fffe17 	ldw	r3,-8(fp)
   23c14:	1885883a 	add	r2,r3,r2
   23c18:	e0bffe15 	stw	r2,-8(fp)
   23c1c:	e0bff817 	ldw	r2,-32(fp)
   23c20:	10bfffc4 	addi	r2,r2,-1
   23c24:	e0fffd17 	ldw	r3,-12(fp)
   23c28:	1880022e 	bgeu	r3,r2,23c34 <alt_avalon_i2c_master_receive+0x118>
   23c2c:	e0bffc17 	ldw	r2,-16(fp)
   23c30:	103fe126 	beq	r2,zero,23bb8 <alt_avalon_i2c_master_receive+0x9c>
   23c34:	e0bffc17 	ldw	r2,-16(fp)
   23c38:	1000121e 	bne	r2,zero,23c84 <alt_avalon_i2c_master_receive+0x168>
   23c3c:	e0bff603 	ldbu	r2,-40(fp)
   23c40:	100f883a 	mov	r7,r2
   23c44:	000d883a 	mov	r6,zero
   23c48:	000b883a 	mov	r5,zero
   23c4c:	e13ffa17 	ldw	r4,-24(fp)
   23c50:	0022f480 	call	22f48 <alt_avalon_i2c_cmd_write>
   23c54:	e0bffc15 	stw	r2,-16(fp)
   23c58:	00000a06 	br	23c84 <alt_avalon_i2c_master_receive+0x168>
   23c5c:	e17ff917 	ldw	r5,-28(fp)
   23c60:	e13ffa17 	ldw	r4,-24(fp)
   23c64:	0022ea00 	call	22ea0 <alt_avalon_i2c_rx_read>
   23c68:	e0bffc15 	stw	r2,-16(fp)
   23c6c:	e0bff917 	ldw	r2,-28(fp)
   23c70:	10800044 	addi	r2,r2,1
   23c74:	e0bff915 	stw	r2,-28(fp)
   23c78:	e0bffe17 	ldw	r2,-8(fp)
   23c7c:	10800044 	addi	r2,r2,1
   23c80:	e0bffe15 	stw	r2,-8(fp)
   23c84:	e0fffe17 	ldw	r3,-8(fp)
   23c88:	e0bff817 	ldw	r2,-32(fp)
   23c8c:	1880022e 	bgeu	r3,r2,23c98 <alt_avalon_i2c_master_receive+0x17c>
   23c90:	e0bffc17 	ldw	r2,-16(fp)
   23c94:	103ff126 	beq	r2,zero,23c5c <alt_avalon_i2c_master_receive+0x140>
   23c98:	e0bff603 	ldbu	r2,-40(fp)
   23c9c:	1000021e 	bne	r2,zero,23ca8 <alt_avalon_i2c_master_receive+0x18c>
   23ca0:	e0bffc17 	ldw	r2,-16(fp)
   23ca4:	10001b26 	beq	r2,zero,23d14 <alt_avalon_i2c_master_receive+0x1f8>
   23ca8:	0149c404 	movi	r5,10000
   23cac:	e13ff817 	ldw	r4,-32(fp)
   23cb0:	00212e80 	call	212e8 <__mulsi3>
   23cb4:	e0bfff15 	stw	r2,-4(fp)
   23cb8:	00000d06 	br	23cf0 <alt_avalon_i2c_master_receive+0x1d4>
   23cbc:	e0bfff17 	ldw	r2,-4(fp)
   23cc0:	108002a8 	cmpgeui	r2,r2,10
   23cc4:	1000021e 	bne	r2,zero,23cd0 <alt_avalon_i2c_master_receive+0x1b4>
   23cc8:	0109c404 	movi	r4,10000
   23ccc:	00264840 	call	26484 <alt_busy_sleep>
   23cd0:	e0bfff17 	ldw	r2,-4(fp)
   23cd4:	10bfffc4 	addi	r2,r2,-1
   23cd8:	e0bfff15 	stw	r2,-4(fp)
   23cdc:	e0bfff17 	ldw	r2,-4(fp)
   23ce0:	1000031e 	bne	r2,zero,23cf0 <alt_avalon_i2c_master_receive+0x1d4>
   23ce4:	00bfff84 	movi	r2,-2
   23ce8:	e0bffc15 	stw	r2,-16(fp)
   23cec:	00000306 	br	23cfc <alt_avalon_i2c_master_receive+0x1e0>
   23cf0:	e13ffa17 	ldw	r4,-24(fp)
   23cf4:	0022db00 	call	22db0 <alt_avalon_i2c_is_busy>
   23cf8:	103ff01e 	bne	r2,zero,23cbc <alt_avalon_i2c_master_receive+0x1a0>
   23cfc:	e0bffc04 	addi	r2,fp,-16
   23d00:	100b883a 	mov	r5,r2
   23d04:	e13ffa17 	ldw	r4,-24(fp)
   23d08:	00231900 	call	23190 <alt_avalon_i2c_check_nack>
   23d0c:	e13ffa17 	ldw	r4,-24(fp)
   23d10:	0022a580 	call	22a58 <alt_avalon_i2c_disable>
   23d14:	e0bffc17 	ldw	r2,-16(fp)
   23d18:	e037883a 	mov	sp,fp
   23d1c:	dfc00117 	ldw	ra,4(sp)
   23d20:	df000017 	ldw	fp,0(sp)
   23d24:	dec00204 	addi	sp,sp,8
   23d28:	f800283a 	ret

00023d2c <alt_avalon_i2c_master_receive_using_interrupts>:
   23d2c:	defff504 	addi	sp,sp,-44
   23d30:	dfc00a15 	stw	ra,40(sp)
   23d34:	df000915 	stw	fp,36(sp)
   23d38:	df000904 	addi	fp,sp,36
   23d3c:	e13ffb15 	stw	r4,-20(fp)
   23d40:	e17ffa15 	stw	r5,-24(fp)
   23d44:	e1bff915 	stw	r6,-28(fp)
   23d48:	3807883a 	mov	r3,r7
   23d4c:	e0800217 	ldw	r2,8(fp)
   23d50:	e0fff805 	stb	r3,-32(fp)
   23d54:	e0bff705 	stb	r2,-36(fp)
   23d58:	e03fff15 	stw	zero,-4(fp)
   23d5c:	e0bffb17 	ldw	r2,-20(fp)
   23d60:	10800717 	ldw	r2,28(r2)
   23d64:	e0bffc15 	stw	r2,-16(fp)
   23d68:	e03ffd15 	stw	zero,-12(fp)
   23d6c:	e0bff917 	ldw	r2,-28(fp)
   23d70:	1000021e 	bne	r2,zero,23d7c <alt_avalon_i2c_master_receive_using_interrupts+0x50>
   23d74:	0005883a 	mov	r2,zero
   23d78:	00006306 	br	23f08 <alt_avalon_i2c_master_receive_using_interrupts+0x1dc>
   23d7c:	e0bffb17 	ldw	r2,-20(fp)
   23d80:	10c00617 	ldw	r3,24(r2)
   23d84:	008000b4 	movhi	r2,2
   23d88:	10899004 	addi	r2,r2,9792
   23d8c:	18800226 	beq	r3,r2,23d98 <alt_avalon_i2c_master_receive_using_interrupts+0x6c>
   23d90:	00bfff44 	movi	r2,-3
   23d94:	00005c06 	br	23f08 <alt_avalon_i2c_master_receive_using_interrupts+0x1dc>
   23d98:	e0bff803 	ldbu	r2,-32(fp)
   23d9c:	10000a1e 	bne	r2,zero,23dc8 <alt_avalon_i2c_master_receive_using_interrupts+0x9c>
   23da0:	e13ffb17 	ldw	r4,-20(fp)
   23da4:	00229c00 	call	229c0 <alt_avalon_i2c_enable>
   23da8:	e0bfff15 	stw	r2,-4(fp)
   23dac:	e0bfff17 	ldw	r2,-4(fp)
   23db0:	10000226 	beq	r2,zero,23dbc <alt_avalon_i2c_master_receive_using_interrupts+0x90>
   23db4:	e0bfff17 	ldw	r2,-4(fp)
   23db8:	00005306 	br	23f08 <alt_avalon_i2c_master_receive_using_interrupts+0x1dc>
   23dbc:	01400704 	movi	r5,28
   23dc0:	e13ffb17 	ldw	r4,-20(fp)
   23dc4:	0023fb80 	call	23fb8 <alt_avalon_i2c_int_clear>
   23dc8:	e0bff803 	ldbu	r2,-32(fp)
   23dcc:	100d883a 	mov	r6,r2
   23dd0:	01400044 	movi	r5,1
   23dd4:	e13ffb17 	ldw	r4,-20(fp)
   23dd8:	00230340 	call	23034 <alt_avalon_i2c_send_address>
   23ddc:	e0bfff15 	stw	r2,-4(fp)
   23de0:	e0bfff17 	ldw	r2,-4(fp)
   23de4:	1000191e 	bne	r2,zero,23e4c <alt_avalon_i2c_master_receive_using_interrupts+0x120>
   23de8:	00000906 	br	23e10 <alt_avalon_i2c_master_receive_using_interrupts+0xe4>
   23dec:	000f883a 	mov	r7,zero
   23df0:	000d883a 	mov	r6,zero
   23df4:	000b883a 	mov	r5,zero
   23df8:	e13ffb17 	ldw	r4,-20(fp)
   23dfc:	0022f480 	call	22f48 <alt_avalon_i2c_cmd_write>
   23e00:	e0bfff15 	stw	r2,-4(fp)
   23e04:	e0bffd17 	ldw	r2,-12(fp)
   23e08:	10800044 	addi	r2,r2,1
   23e0c:	e0bffd15 	stw	r2,-12(fp)
   23e10:	e0bff917 	ldw	r2,-28(fp)
   23e14:	10bfffc4 	addi	r2,r2,-1
   23e18:	e0fffd17 	ldw	r3,-12(fp)
   23e1c:	1880022e 	bgeu	r3,r2,23e28 <alt_avalon_i2c_master_receive_using_interrupts+0xfc>
   23e20:	e0bfff17 	ldw	r2,-4(fp)
   23e24:	103ff126 	beq	r2,zero,23dec <alt_avalon_i2c_master_receive_using_interrupts+0xc0>
   23e28:	e0bfff17 	ldw	r2,-4(fp)
   23e2c:	1000071e 	bne	r2,zero,23e4c <alt_avalon_i2c_master_receive_using_interrupts+0x120>
   23e30:	e0bff703 	ldbu	r2,-36(fp)
   23e34:	100f883a 	mov	r7,r2
   23e38:	000d883a 	mov	r6,zero
   23e3c:	000b883a 	mov	r5,zero
   23e40:	e13ffb17 	ldw	r4,-20(fp)
   23e44:	0022f480 	call	22f48 <alt_avalon_i2c_cmd_write>
   23e48:	e0bfff15 	stw	r2,-4(fp)
   23e4c:	e0bfff17 	ldw	r2,-4(fp)
   23e50:	10001826 	beq	r2,zero,23eb4 <alt_avalon_i2c_master_receive_using_interrupts+0x188>
   23e54:	0149c404 	movi	r5,10000
   23e58:	e13ff917 	ldw	r4,-28(fp)
   23e5c:	00212e80 	call	212e8 <__mulsi3>
   23e60:	e0bffe15 	stw	r2,-8(fp)
   23e64:	00000d06 	br	23e9c <alt_avalon_i2c_master_receive_using_interrupts+0x170>
   23e68:	e0bffe17 	ldw	r2,-8(fp)
   23e6c:	108002a8 	cmpgeui	r2,r2,10
   23e70:	1000021e 	bne	r2,zero,23e7c <alt_avalon_i2c_master_receive_using_interrupts+0x150>
   23e74:	0109c404 	movi	r4,10000
   23e78:	00264840 	call	26484 <alt_busy_sleep>
   23e7c:	e0bffe17 	ldw	r2,-8(fp)
   23e80:	10bfffc4 	addi	r2,r2,-1
   23e84:	e0bffe15 	stw	r2,-8(fp)
   23e88:	e0bffe17 	ldw	r2,-8(fp)
   23e8c:	1000031e 	bne	r2,zero,23e9c <alt_avalon_i2c_master_receive_using_interrupts+0x170>
   23e90:	00bfff84 	movi	r2,-2
   23e94:	e0bfff15 	stw	r2,-4(fp)
   23e98:	00000306 	br	23ea8 <alt_avalon_i2c_master_receive_using_interrupts+0x17c>
   23e9c:	e13ffb17 	ldw	r4,-20(fp)
   23ea0:	0022db00 	call	22db0 <alt_avalon_i2c_is_busy>
   23ea4:	103ff01e 	bne	r2,zero,23e68 <alt_avalon_i2c_master_receive_using_interrupts+0x13c>
   23ea8:	e13ffb17 	ldw	r4,-20(fp)
   23eac:	0022a580 	call	22a58 <alt_avalon_i2c_disable>
   23eb0:	00001406 	br	23f04 <alt_avalon_i2c_master_receive_using_interrupts+0x1d8>
   23eb4:	e0bff703 	ldbu	r2,-36(fp)
   23eb8:	10001226 	beq	r2,zero,23f04 <alt_avalon_i2c_master_receive_using_interrupts+0x1d8>
   23ebc:	01400704 	movi	r5,28
   23ec0:	e13ffb17 	ldw	r4,-20(fp)
   23ec4:	0023fb80 	call	23fb8 <alt_avalon_i2c_int_clear>
   23ec8:	000b883a 	mov	r5,zero
   23ecc:	e13ffb17 	ldw	r4,-20(fp)
   23ed0:	00241580 	call	24158 <alt_avalon_i2c_rx_fifo_threshold_set>
   23ed4:	e0bffc17 	ldw	r2,-16(fp)
   23ed8:	00c00084 	movi	r3,2
   23edc:	10c00215 	stw	r3,8(r2)
   23ee0:	e0bffc17 	ldw	r2,-16(fp)
   23ee4:	e0fffa17 	ldw	r3,-24(fp)
   23ee8:	10c00015 	stw	r3,0(r2)
   23eec:	e0bffc17 	ldw	r2,-16(fp)
   23ef0:	e0fff917 	ldw	r3,-28(fp)
   23ef4:	10c00115 	stw	r3,4(r2)
   23ef8:	01400084 	movi	r5,2
   23efc:	e13ffb17 	ldw	r4,-20(fp)
   23f00:	00240600 	call	24060 <alt_avalon_i2c_int_enable>
   23f04:	e0bfff17 	ldw	r2,-4(fp)
   23f08:	e037883a 	mov	sp,fp
   23f0c:	dfc00117 	ldw	ra,4(sp)
   23f10:	df000017 	ldw	fp,0(sp)
   23f14:	dec00204 	addi	sp,sp,8
   23f18:	f800283a 	ret

00023f1c <alt_avalon_i2c_int_status_get>:
   23f1c:	defffd04 	addi	sp,sp,-12
   23f20:	df000215 	stw	fp,8(sp)
   23f24:	df000204 	addi	fp,sp,8
   23f28:	e13fff15 	stw	r4,-4(fp)
   23f2c:	e17ffe15 	stw	r5,-8(fp)
   23f30:	e0bfff17 	ldw	r2,-4(fp)
   23f34:	10800317 	ldw	r2,12(r2)
   23f38:	10800404 	addi	r2,r2,16
   23f3c:	10c00037 	ldwio	r3,0(r2)
   23f40:	e0bfff17 	ldw	r2,-4(fp)
   23f44:	10800317 	ldw	r2,12(r2)
   23f48:	10800304 	addi	r2,r2,12
   23f4c:	10800037 	ldwio	r2,0(r2)
   23f50:	1884703a 	and	r2,r3,r2
   23f54:	1007883a 	mov	r3,r2
   23f58:	e0bffe17 	ldw	r2,-8(fp)
   23f5c:	10c00015 	stw	r3,0(r2)
   23f60:	0001883a 	nop
   23f64:	e037883a 	mov	sp,fp
   23f68:	df000017 	ldw	fp,0(sp)
   23f6c:	dec00104 	addi	sp,sp,4
   23f70:	f800283a 	ret

00023f74 <alt_avalon_i2c_int_raw_status_get>:
   23f74:	defffd04 	addi	sp,sp,-12
   23f78:	df000215 	stw	fp,8(sp)
   23f7c:	df000204 	addi	fp,sp,8
   23f80:	e13fff15 	stw	r4,-4(fp)
   23f84:	e17ffe15 	stw	r5,-8(fp)
   23f88:	e0bfff17 	ldw	r2,-4(fp)
   23f8c:	10800317 	ldw	r2,12(r2)
   23f90:	10800404 	addi	r2,r2,16
   23f94:	10800037 	ldwio	r2,0(r2)
   23f98:	1007883a 	mov	r3,r2
   23f9c:	e0bffe17 	ldw	r2,-8(fp)
   23fa0:	10c00015 	stw	r3,0(r2)
   23fa4:	0001883a 	nop
   23fa8:	e037883a 	mov	sp,fp
   23fac:	df000017 	ldw	fp,0(sp)
   23fb0:	dec00104 	addi	sp,sp,4
   23fb4:	f800283a 	ret

00023fb8 <alt_avalon_i2c_int_clear>:
   23fb8:	defffd04 	addi	sp,sp,-12
   23fbc:	df000215 	stw	fp,8(sp)
   23fc0:	df000204 	addi	fp,sp,8
   23fc4:	e13fff15 	stw	r4,-4(fp)
   23fc8:	e17ffe15 	stw	r5,-8(fp)
   23fcc:	e0bfff17 	ldw	r2,-4(fp)
   23fd0:	10800317 	ldw	r2,12(r2)
   23fd4:	10800404 	addi	r2,r2,16
   23fd8:	e0fffe17 	ldw	r3,-8(fp)
   23fdc:	10c00035 	stwio	r3,0(r2)
   23fe0:	0001883a 	nop
   23fe4:	e037883a 	mov	sp,fp
   23fe8:	df000017 	ldw	fp,0(sp)
   23fec:	dec00104 	addi	sp,sp,4
   23ff0:	f800283a 	ret

00023ff4 <alt_avalon_i2c_int_disable>:
   23ff4:	defffb04 	addi	sp,sp,-20
   23ff8:	dfc00415 	stw	ra,16(sp)
   23ffc:	df000315 	stw	fp,12(sp)
   24000:	df000304 	addi	fp,sp,12
   24004:	e13ffe15 	stw	r4,-8(fp)
   24008:	e17ffd15 	stw	r5,-12(fp)
   2400c:	e0bfff04 	addi	r2,fp,-4
   24010:	100b883a 	mov	r5,r2
   24014:	e13ffe17 	ldw	r4,-8(fp)
   24018:	00240c80 	call	240c8 <alt_avalon_i2c_enabled_ints_get>
   2401c:	e0bffd17 	ldw	r2,-12(fp)
   24020:	0086303a 	nor	r3,zero,r2
   24024:	e0bfff17 	ldw	r2,-4(fp)
   24028:	1884703a 	and	r2,r3,r2
   2402c:	e0bfff15 	stw	r2,-4(fp)
   24030:	e0bffe17 	ldw	r2,-8(fp)
   24034:	10800317 	ldw	r2,12(r2)
   24038:	10800304 	addi	r2,r2,12
   2403c:	e0ffff17 	ldw	r3,-4(fp)
   24040:	18c007cc 	andi	r3,r3,31
   24044:	10c00035 	stwio	r3,0(r2)
   24048:	0001883a 	nop
   2404c:	e037883a 	mov	sp,fp
   24050:	dfc00117 	ldw	ra,4(sp)
   24054:	df000017 	ldw	fp,0(sp)
   24058:	dec00204 	addi	sp,sp,8
   2405c:	f800283a 	ret

00024060 <alt_avalon_i2c_int_enable>:
   24060:	defffb04 	addi	sp,sp,-20
   24064:	dfc00415 	stw	ra,16(sp)
   24068:	df000315 	stw	fp,12(sp)
   2406c:	df000304 	addi	fp,sp,12
   24070:	e13ffe15 	stw	r4,-8(fp)
   24074:	e17ffd15 	stw	r5,-12(fp)
   24078:	e0bfff04 	addi	r2,fp,-4
   2407c:	100b883a 	mov	r5,r2
   24080:	e13ffe17 	ldw	r4,-8(fp)
   24084:	00240c80 	call	240c8 <alt_avalon_i2c_enabled_ints_get>
   24088:	e0ffff17 	ldw	r3,-4(fp)
   2408c:	e0bffd17 	ldw	r2,-12(fp)
   24090:	1884b03a 	or	r2,r3,r2
   24094:	e0bfff15 	stw	r2,-4(fp)
   24098:	e0bffe17 	ldw	r2,-8(fp)
   2409c:	10800317 	ldw	r2,12(r2)
   240a0:	10800304 	addi	r2,r2,12
   240a4:	e0ffff17 	ldw	r3,-4(fp)
   240a8:	18c007cc 	andi	r3,r3,31
   240ac:	10c00035 	stwio	r3,0(r2)
   240b0:	0001883a 	nop
   240b4:	e037883a 	mov	sp,fp
   240b8:	dfc00117 	ldw	ra,4(sp)
   240bc:	df000017 	ldw	fp,0(sp)
   240c0:	dec00204 	addi	sp,sp,8
   240c4:	f800283a 	ret

000240c8 <alt_avalon_i2c_enabled_ints_get>:
   240c8:	defffd04 	addi	sp,sp,-12
   240cc:	df000215 	stw	fp,8(sp)
   240d0:	df000204 	addi	fp,sp,8
   240d4:	e13fff15 	stw	r4,-4(fp)
   240d8:	e17ffe15 	stw	r5,-8(fp)
   240dc:	e0bfff17 	ldw	r2,-4(fp)
   240e0:	10800317 	ldw	r2,12(r2)
   240e4:	10800304 	addi	r2,r2,12
   240e8:	10800037 	ldwio	r2,0(r2)
   240ec:	10c007cc 	andi	r3,r2,31
   240f0:	e0bffe17 	ldw	r2,-8(fp)
   240f4:	10c00015 	stw	r3,0(r2)
   240f8:	0001883a 	nop
   240fc:	e037883a 	mov	sp,fp
   24100:	df000017 	ldw	fp,0(sp)
   24104:	dec00104 	addi	sp,sp,4
   24108:	f800283a 	ret

0002410c <alt_avalon_i2c_rx_fifo_threshold_get>:
   2410c:	defffd04 	addi	sp,sp,-12
   24110:	df000215 	stw	fp,8(sp)
   24114:	df000204 	addi	fp,sp,8
   24118:	e13fff15 	stw	r4,-4(fp)
   2411c:	e17ffe15 	stw	r5,-8(fp)
   24120:	e0bfff17 	ldw	r2,-4(fp)
   24124:	10800317 	ldw	r2,12(r2)
   24128:	10800204 	addi	r2,r2,8
   2412c:	10800037 	ldwio	r2,0(r2)
   24130:	1005d13a 	srai	r2,r2,4
   24134:	108000cc 	andi	r2,r2,3
   24138:	1007883a 	mov	r3,r2
   2413c:	e0bffe17 	ldw	r2,-8(fp)
   24140:	10c00015 	stw	r3,0(r2)
   24144:	0001883a 	nop
   24148:	e037883a 	mov	sp,fp
   2414c:	df000017 	ldw	fp,0(sp)
   24150:	dec00104 	addi	sp,sp,4
   24154:	f800283a 	ret

00024158 <alt_avalon_i2c_rx_fifo_threshold_set>:
   24158:	defffd04 	addi	sp,sp,-12
   2415c:	df000215 	stw	fp,8(sp)
   24160:	df000204 	addi	fp,sp,8
   24164:	e13fff15 	stw	r4,-4(fp)
   24168:	e17ffe15 	stw	r5,-8(fp)
   2416c:	e0bfff17 	ldw	r2,-4(fp)
   24170:	10800317 	ldw	r2,12(r2)
   24174:	10800204 	addi	r2,r2,8
   24178:	e0ffff17 	ldw	r3,-4(fp)
   2417c:	18c00317 	ldw	r3,12(r3)
   24180:	18c00204 	addi	r3,r3,8
   24184:	18c00037 	ldwio	r3,0(r3)
   24188:	1809883a 	mov	r4,r3
   2418c:	00fff3c4 	movi	r3,-49
   24190:	20c8703a 	and	r4,r4,r3
   24194:	e0fffe17 	ldw	r3,-8(fp)
   24198:	1806913a 	slli	r3,r3,4
   2419c:	18c00c0c 	andi	r3,r3,48
   241a0:	20c6b03a 	or	r3,r4,r3
   241a4:	10c00035 	stwio	r3,0(r2)
   241a8:	0001883a 	nop
   241ac:	e037883a 	mov	sp,fp
   241b0:	df000017 	ldw	fp,0(sp)
   241b4:	dec00104 	addi	sp,sp,4
   241b8:	f800283a 	ret

000241bc <alt_avalon_i2c_tfr_cmd_fifo_threshold_get>:
   241bc:	defffd04 	addi	sp,sp,-12
   241c0:	df000215 	stw	fp,8(sp)
   241c4:	df000204 	addi	fp,sp,8
   241c8:	e13fff15 	stw	r4,-4(fp)
   241cc:	e17ffe15 	stw	r5,-8(fp)
   241d0:	e0bfff17 	ldw	r2,-4(fp)
   241d4:	10800317 	ldw	r2,12(r2)
   241d8:	10800204 	addi	r2,r2,8
   241dc:	10800037 	ldwio	r2,0(r2)
   241e0:	1005d0ba 	srai	r2,r2,2
   241e4:	108000cc 	andi	r2,r2,3
   241e8:	1007883a 	mov	r3,r2
   241ec:	e0bffe17 	ldw	r2,-8(fp)
   241f0:	10c00015 	stw	r3,0(r2)
   241f4:	0001883a 	nop
   241f8:	e037883a 	mov	sp,fp
   241fc:	df000017 	ldw	fp,0(sp)
   24200:	dec00104 	addi	sp,sp,4
   24204:	f800283a 	ret

00024208 <alt_avalon_i2c_tfr_cmd_fifo_threshold_set>:
   24208:	defffd04 	addi	sp,sp,-12
   2420c:	df000215 	stw	fp,8(sp)
   24210:	df000204 	addi	fp,sp,8
   24214:	e13fff15 	stw	r4,-4(fp)
   24218:	e17ffe15 	stw	r5,-8(fp)
   2421c:	e0bfff17 	ldw	r2,-4(fp)
   24220:	10800317 	ldw	r2,12(r2)
   24224:	10800204 	addi	r2,r2,8
   24228:	e0ffff17 	ldw	r3,-4(fp)
   2422c:	18c00317 	ldw	r3,12(r3)
   24230:	18c00204 	addi	r3,r3,8
   24234:	18c00037 	ldwio	r3,0(r3)
   24238:	1809883a 	mov	r4,r3
   2423c:	00fffcc4 	movi	r3,-13
   24240:	20c8703a 	and	r4,r4,r3
   24244:	e0fffe17 	ldw	r3,-8(fp)
   24248:	180690ba 	slli	r3,r3,2
   2424c:	18c0030c 	andi	r3,r3,12
   24250:	20c6b03a 	or	r3,r4,r3
   24254:	10c00035 	stwio	r3,0(r2)
   24258:	0001883a 	nop
   2425c:	e037883a 	mov	sp,fp
   24260:	df000017 	ldw	fp,0(sp)
   24264:	dec00104 	addi	sp,sp,4
   24268:	f800283a 	ret

0002426c <altera_avalon_jtag_uart_read_fd>:
   2426c:	defffa04 	addi	sp,sp,-24
   24270:	dfc00515 	stw	ra,20(sp)
   24274:	df000415 	stw	fp,16(sp)
   24278:	df000404 	addi	fp,sp,16
   2427c:	e13ffe15 	stw	r4,-8(fp)
   24280:	e17ffd15 	stw	r5,-12(fp)
   24284:	e1bffc15 	stw	r6,-16(fp)
   24288:	e0bffe17 	ldw	r2,-8(fp)
   2428c:	10800017 	ldw	r2,0(r2)
   24290:	e0bfff15 	stw	r2,-4(fp)
   24294:	e0bfff17 	ldw	r2,-4(fp)
   24298:	10c00a04 	addi	r3,r2,40
   2429c:	e0bffe17 	ldw	r2,-8(fp)
   242a0:	10800217 	ldw	r2,8(r2)
   242a4:	100f883a 	mov	r7,r2
   242a8:	e1bffc17 	ldw	r6,-16(fp)
   242ac:	e17ffd17 	ldw	r5,-12(fp)
   242b0:	1809883a 	mov	r4,r3
   242b4:	002432c0 	call	2432c <altera_avalon_jtag_uart_read>
   242b8:	e037883a 	mov	sp,fp
   242bc:	dfc00117 	ldw	ra,4(sp)
   242c0:	df000017 	ldw	fp,0(sp)
   242c4:	dec00204 	addi	sp,sp,8
   242c8:	f800283a 	ret

000242cc <altera_avalon_jtag_uart_write_fd>:
   242cc:	defffa04 	addi	sp,sp,-24
   242d0:	dfc00515 	stw	ra,20(sp)
   242d4:	df000415 	stw	fp,16(sp)
   242d8:	df000404 	addi	fp,sp,16
   242dc:	e13ffe15 	stw	r4,-8(fp)
   242e0:	e17ffd15 	stw	r5,-12(fp)
   242e4:	e1bffc15 	stw	r6,-16(fp)
   242e8:	e0bffe17 	ldw	r2,-8(fp)
   242ec:	10800017 	ldw	r2,0(r2)
   242f0:	e0bfff15 	stw	r2,-4(fp)
   242f4:	e0bfff17 	ldw	r2,-4(fp)
   242f8:	10c00a04 	addi	r3,r2,40
   242fc:	e0bffe17 	ldw	r2,-8(fp)
   24300:	10800217 	ldw	r2,8(r2)
   24304:	100f883a 	mov	r7,r2
   24308:	e1bffc17 	ldw	r6,-16(fp)
   2430c:	e17ffd17 	ldw	r5,-12(fp)
   24310:	1809883a 	mov	r4,r3
   24314:	00244180 	call	24418 <altera_avalon_jtag_uart_write>
   24318:	e037883a 	mov	sp,fp
   2431c:	dfc00117 	ldw	ra,4(sp)
   24320:	df000017 	ldw	fp,0(sp)
   24324:	dec00204 	addi	sp,sp,8
   24328:	f800283a 	ret

0002432c <altera_avalon_jtag_uart_read>:
   2432c:	defff704 	addi	sp,sp,-36
   24330:	df000815 	stw	fp,32(sp)
   24334:	df000804 	addi	fp,sp,32
   24338:	e13ffb15 	stw	r4,-20(fp)
   2433c:	e17ffa15 	stw	r5,-24(fp)
   24340:	e1bff915 	stw	r6,-28(fp)
   24344:	e1fff815 	stw	r7,-32(fp)
   24348:	e0bffb17 	ldw	r2,-20(fp)
   2434c:	10800017 	ldw	r2,0(r2)
   24350:	e0bffe15 	stw	r2,-8(fp)
   24354:	e0bffa17 	ldw	r2,-24(fp)
   24358:	e0bfff15 	stw	r2,-4(fp)
   2435c:	e0bff917 	ldw	r2,-28(fp)
   24360:	e0fffa17 	ldw	r3,-24(fp)
   24364:	1885883a 	add	r2,r3,r2
   24368:	e0bffd15 	stw	r2,-12(fp)
   2436c:	00001206 	br	243b8 <altera_avalon_jtag_uart_read+0x8c>
   24370:	e0bffe17 	ldw	r2,-8(fp)
   24374:	10800037 	ldwio	r2,0(r2)
   24378:	e0bffc15 	stw	r2,-16(fp)
   2437c:	e0bffc17 	ldw	r2,-16(fp)
   24380:	10a0000c 	andi	r2,r2,32768
   24384:	10000626 	beq	r2,zero,243a0 <altera_avalon_jtag_uart_read+0x74>
   24388:	e0bfff17 	ldw	r2,-4(fp)
   2438c:	10c00044 	addi	r3,r2,1
   24390:	e0ffff15 	stw	r3,-4(fp)
   24394:	e0fffc17 	ldw	r3,-16(fp)
   24398:	10c00005 	stb	r3,0(r2)
   2439c:	00000606 	br	243b8 <altera_avalon_jtag_uart_read+0x8c>
   243a0:	e0ffff17 	ldw	r3,-4(fp)
   243a4:	e0bffa17 	ldw	r2,-24(fp)
   243a8:	1880071e 	bne	r3,r2,243c8 <altera_avalon_jtag_uart_read+0x9c>
   243ac:	e0bff817 	ldw	r2,-32(fp)
   243b0:	1090000c 	andi	r2,r2,16384
   243b4:	1000061e 	bne	r2,zero,243d0 <altera_avalon_jtag_uart_read+0xa4>
   243b8:	e0ffff17 	ldw	r3,-4(fp)
   243bc:	e0bffd17 	ldw	r2,-12(fp)
   243c0:	18bfeb36 	bltu	r3,r2,24370 <altera_avalon_jtag_uart_read+0x44>
   243c4:	00000306 	br	243d4 <altera_avalon_jtag_uart_read+0xa8>
   243c8:	0001883a 	nop
   243cc:	00000106 	br	243d4 <altera_avalon_jtag_uart_read+0xa8>
   243d0:	0001883a 	nop
   243d4:	e0ffff17 	ldw	r3,-4(fp)
   243d8:	e0bffa17 	ldw	r2,-24(fp)
   243dc:	18800426 	beq	r3,r2,243f0 <altera_avalon_jtag_uart_read+0xc4>
   243e0:	e0ffff17 	ldw	r3,-4(fp)
   243e4:	e0bffa17 	ldw	r2,-24(fp)
   243e8:	1885c83a 	sub	r2,r3,r2
   243ec:	00000606 	br	24408 <altera_avalon_jtag_uart_read+0xdc>
   243f0:	e0bff817 	ldw	r2,-32(fp)
   243f4:	1090000c 	andi	r2,r2,16384
   243f8:	10000226 	beq	r2,zero,24404 <altera_avalon_jtag_uart_read+0xd8>
   243fc:	00bffd44 	movi	r2,-11
   24400:	00000106 	br	24408 <altera_avalon_jtag_uart_read+0xdc>
   24404:	00bffec4 	movi	r2,-5
   24408:	e037883a 	mov	sp,fp
   2440c:	df000017 	ldw	fp,0(sp)
   24410:	dec00104 	addi	sp,sp,4
   24414:	f800283a 	ret

00024418 <altera_avalon_jtag_uart_write>:
   24418:	defff904 	addi	sp,sp,-28
   2441c:	df000615 	stw	fp,24(sp)
   24420:	df000604 	addi	fp,sp,24
   24424:	e13ffd15 	stw	r4,-12(fp)
   24428:	e17ffc15 	stw	r5,-16(fp)
   2442c:	e1bffb15 	stw	r6,-20(fp)
   24430:	e1fffa15 	stw	r7,-24(fp)
   24434:	e0bffd17 	ldw	r2,-12(fp)
   24438:	10800017 	ldw	r2,0(r2)
   2443c:	e0bfff15 	stw	r2,-4(fp)
   24440:	e0bffb17 	ldw	r2,-20(fp)
   24444:	e0fffc17 	ldw	r3,-16(fp)
   24448:	1885883a 	add	r2,r3,r2
   2444c:	e0bffe15 	stw	r2,-8(fp)
   24450:	00000e06 	br	2448c <altera_avalon_jtag_uart_write+0x74>
   24454:	e0bfff17 	ldw	r2,-4(fp)
   24458:	10800104 	addi	r2,r2,4
   2445c:	10800037 	ldwio	r2,0(r2)
   24460:	10bfffec 	andhi	r2,r2,65535
   24464:	10000926 	beq	r2,zero,2448c <altera_avalon_jtag_uart_write+0x74>
   24468:	e0ffff17 	ldw	r3,-4(fp)
   2446c:	e0bffc17 	ldw	r2,-16(fp)
   24470:	11000044 	addi	r4,r2,1
   24474:	e13ffc15 	stw	r4,-16(fp)
   24478:	10800003 	ldbu	r2,0(r2)
   2447c:	10803fcc 	andi	r2,r2,255
   24480:	1080201c 	xori	r2,r2,128
   24484:	10bfe004 	addi	r2,r2,-128
   24488:	18800035 	stwio	r2,0(r3)
   2448c:	e0fffc17 	ldw	r3,-16(fp)
   24490:	e0bffe17 	ldw	r2,-8(fp)
   24494:	18bfef36 	bltu	r3,r2,24454 <altera_avalon_jtag_uart_write+0x3c>
   24498:	e0bffb17 	ldw	r2,-20(fp)
   2449c:	e037883a 	mov	sp,fp
   244a0:	df000017 	ldw	fp,0(sp)
   244a4:	dec00104 	addi	sp,sp,4
   244a8:	f800283a 	ret

000244ac <alt_get_errno>:
   244ac:	defffe04 	addi	sp,sp,-8
   244b0:	dfc00115 	stw	ra,4(sp)
   244b4:	df000015 	stw	fp,0(sp)
   244b8:	d839883a 	mov	fp,sp
   244bc:	d0a01017 	ldw	r2,-32704(gp)
   244c0:	10000326 	beq	r2,zero,244d0 <alt_get_errno+0x24>
   244c4:	d0a01017 	ldw	r2,-32704(gp)
   244c8:	103ee83a 	callr	r2
   244cc:	00000106 	br	244d4 <alt_get_errno+0x28>
   244d0:	d0a11c04 	addi	r2,gp,-31632
   244d4:	e037883a 	mov	sp,fp
   244d8:	dfc00117 	ldw	ra,4(sp)
   244dc:	df000017 	ldw	fp,0(sp)
   244e0:	dec00204 	addi	sp,sp,8
   244e4:	f800283a 	ret

000244e8 <alt_msgdma_write_standard_descriptor>:
   244e8:	defffc04 	addi	sp,sp,-16
   244ec:	df000315 	stw	fp,12(sp)
   244f0:	df000304 	addi	fp,sp,12
   244f4:	e13fff15 	stw	r4,-4(fp)
   244f8:	e17ffe15 	stw	r5,-8(fp)
   244fc:	e1bffd15 	stw	r6,-12(fp)
   24500:	e0bfff17 	ldw	r2,-4(fp)
   24504:	10800037 	ldwio	r2,0(r2)
   24508:	1080010c 	andi	r2,r2,4
   2450c:	10000226 	beq	r2,zero,24518 <alt_msgdma_write_standard_descriptor+0x30>
   24510:	00bff904 	movi	r2,-28
   24514:	00001506 	br	2456c <alt_msgdma_write_standard_descriptor+0x84>
   24518:	e0bffd17 	ldw	r2,-12(fp)
   2451c:	10800017 	ldw	r2,0(r2)
   24520:	1007883a 	mov	r3,r2
   24524:	e0bffe17 	ldw	r2,-8(fp)
   24528:	10c00035 	stwio	r3,0(r2)
   2452c:	e0bffe17 	ldw	r2,-8(fp)
   24530:	10800104 	addi	r2,r2,4
   24534:	e0fffd17 	ldw	r3,-12(fp)
   24538:	18c00117 	ldw	r3,4(r3)
   2453c:	10c00035 	stwio	r3,0(r2)
   24540:	e0bffe17 	ldw	r2,-8(fp)
   24544:	10800204 	addi	r2,r2,8
   24548:	e0fffd17 	ldw	r3,-12(fp)
   2454c:	18c00217 	ldw	r3,8(r3)
   24550:	10c00035 	stwio	r3,0(r2)
   24554:	e0bffe17 	ldw	r2,-8(fp)
   24558:	10800304 	addi	r2,r2,12
   2455c:	e0fffd17 	ldw	r3,-12(fp)
   24560:	18c00317 	ldw	r3,12(r3)
   24564:	10c00035 	stwio	r3,0(r2)
   24568:	0005883a 	mov	r2,zero
   2456c:	e037883a 	mov	sp,fp
   24570:	df000017 	ldw	fp,0(sp)
   24574:	dec00104 	addi	sp,sp,4
   24578:	f800283a 	ret

0002457c <alt_msgdma_write_extended_descriptor>:
   2457c:	defffc04 	addi	sp,sp,-16
   24580:	df000315 	stw	fp,12(sp)
   24584:	df000304 	addi	fp,sp,12
   24588:	e13fff15 	stw	r4,-4(fp)
   2458c:	e17ffe15 	stw	r5,-8(fp)
   24590:	e1bffd15 	stw	r6,-12(fp)
   24594:	e0bfff17 	ldw	r2,-4(fp)
   24598:	10800037 	ldwio	r2,0(r2)
   2459c:	1080010c 	andi	r2,r2,4
   245a0:	10000226 	beq	r2,zero,245ac <alt_msgdma_write_extended_descriptor+0x30>
   245a4:	00bff904 	movi	r2,-28
   245a8:	00003b06 	br	24698 <alt_msgdma_write_extended_descriptor+0x11c>
   245ac:	e0bffd17 	ldw	r2,-12(fp)
   245b0:	10800017 	ldw	r2,0(r2)
   245b4:	1007883a 	mov	r3,r2
   245b8:	e0bffe17 	ldw	r2,-8(fp)
   245bc:	10c00035 	stwio	r3,0(r2)
   245c0:	e0bffe17 	ldw	r2,-8(fp)
   245c4:	10800104 	addi	r2,r2,4
   245c8:	e0fffd17 	ldw	r3,-12(fp)
   245cc:	18c00117 	ldw	r3,4(r3)
   245d0:	10c00035 	stwio	r3,0(r2)
   245d4:	e0bffe17 	ldw	r2,-8(fp)
   245d8:	10800204 	addi	r2,r2,8
   245dc:	e0fffd17 	ldw	r3,-12(fp)
   245e0:	18c00217 	ldw	r3,8(r3)
   245e4:	10c00035 	stwio	r3,0(r2)
   245e8:	e0bffe17 	ldw	r2,-8(fp)
   245ec:	10800304 	addi	r2,r2,12
   245f0:	e0fffd17 	ldw	r3,-12(fp)
   245f4:	18c0030b 	ldhu	r3,12(r3)
   245f8:	18ffffcc 	andi	r3,r3,65535
   245fc:	10c0002d 	sthio	r3,0(r2)
   24600:	e0bffe17 	ldw	r2,-8(fp)
   24604:	10800384 	addi	r2,r2,14
   24608:	e0fffd17 	ldw	r3,-12(fp)
   2460c:	18c00383 	ldbu	r3,14(r3)
   24610:	18c03fcc 	andi	r3,r3,255
   24614:	10c00025 	stbio	r3,0(r2)
   24618:	e0bffe17 	ldw	r2,-8(fp)
   2461c:	108003c4 	addi	r2,r2,15
   24620:	e0fffd17 	ldw	r3,-12(fp)
   24624:	18c003c3 	ldbu	r3,15(r3)
   24628:	18c03fcc 	andi	r3,r3,255
   2462c:	10c00025 	stbio	r3,0(r2)
   24630:	e0bffe17 	ldw	r2,-8(fp)
   24634:	10800404 	addi	r2,r2,16
   24638:	e0fffd17 	ldw	r3,-12(fp)
   2463c:	18c0040b 	ldhu	r3,16(r3)
   24640:	18ffffcc 	andi	r3,r3,65535
   24644:	10c0002d 	sthio	r3,0(r2)
   24648:	e0bffe17 	ldw	r2,-8(fp)
   2464c:	10800484 	addi	r2,r2,18
   24650:	e0fffd17 	ldw	r3,-12(fp)
   24654:	18c0048b 	ldhu	r3,18(r3)
   24658:	18ffffcc 	andi	r3,r3,65535
   2465c:	10c0002d 	sthio	r3,0(r2)
   24660:	e0bffe17 	ldw	r2,-8(fp)
   24664:	10800504 	addi	r2,r2,20
   24668:	0007883a 	mov	r3,zero
   2466c:	10c00035 	stwio	r3,0(r2)
   24670:	e0bffe17 	ldw	r2,-8(fp)
   24674:	10800604 	addi	r2,r2,24
   24678:	0007883a 	mov	r3,zero
   2467c:	10c00035 	stwio	r3,0(r2)
   24680:	e0bffe17 	ldw	r2,-8(fp)
   24684:	10800704 	addi	r2,r2,28
   24688:	e0fffd17 	ldw	r3,-12(fp)
   2468c:	18c00717 	ldw	r3,28(r3)
   24690:	10c00035 	stwio	r3,0(r2)
   24694:	0005883a 	mov	r2,zero
   24698:	e037883a 	mov	sp,fp
   2469c:	df000017 	ldw	fp,0(sp)
   246a0:	dec00104 	addi	sp,sp,4
   246a4:	f800283a 	ret

000246a8 <alt_msgdma_irq>:
   246a8:	defff804 	addi	sp,sp,-32
   246ac:	dfc00715 	stw	ra,28(sp)
   246b0:	df000615 	stw	fp,24(sp)
   246b4:	df000604 	addi	fp,sp,24
   246b8:	e13ffa15 	stw	r4,-24(fp)
   246bc:	e0bffa17 	ldw	r2,-24(fp)
   246c0:	e0bfff15 	stw	r2,-4(fp)
   246c4:	e0bfff17 	ldw	r2,-4(fp)
   246c8:	10801783 	ldbu	r2,94(r2)
   246cc:	10803fcc 	andi	r2,r2,255
   246d0:	10001126 	beq	r2,zero,24718 <alt_msgdma_irq+0x70>
   246d4:	e0bfff17 	ldw	r2,-4(fp)
   246d8:	10800617 	ldw	r2,24(r2)
   246dc:	10800037 	ldwio	r2,0(r2)
   246e0:	1007883a 	mov	r3,r2
   246e4:	00bffdc4 	movi	r2,-9
   246e8:	1884703a 	and	r2,r3,r2
   246ec:	e0bffe15 	stw	r2,-8(fp)
   246f0:	e0bfff17 	ldw	r2,-4(fp)
   246f4:	10800617 	ldw	r2,24(r2)
   246f8:	e0fffe17 	ldw	r3,-8(fp)
   246fc:	10c00035 	stwio	r3,0(r2)
   24700:	e0bfff17 	ldw	r2,-4(fp)
   24704:	10800617 	ldw	r2,24(r2)
   24708:	10800404 	addi	r2,r2,16
   2470c:	00c00044 	movi	r3,1
   24710:	10c00035 	stwio	r3,0(r2)
   24714:	00001106 	br	2475c <alt_msgdma_irq+0xb4>
   24718:	e0bfff17 	ldw	r2,-4(fp)
   2471c:	10800317 	ldw	r2,12(r2)
   24720:	10800104 	addi	r2,r2,4
   24724:	10800037 	ldwio	r2,0(r2)
   24728:	1007883a 	mov	r3,r2
   2472c:	00bffbc4 	movi	r2,-17
   24730:	1884703a 	and	r2,r3,r2
   24734:	e0bffe15 	stw	r2,-8(fp)
   24738:	e0bfff17 	ldw	r2,-4(fp)
   2473c:	10800317 	ldw	r2,12(r2)
   24740:	10800104 	addi	r2,r2,4
   24744:	e0fffe17 	ldw	r3,-8(fp)
   24748:	10c00035 	stwio	r3,0(r2)
   2474c:	e0bfff17 	ldw	r2,-4(fp)
   24750:	10800317 	ldw	r2,12(r2)
   24754:	00c08004 	movi	r3,512
   24758:	10c00035 	stwio	r3,0(r2)
   2475c:	e0bfff17 	ldw	r2,-4(fp)
   24760:	10800b17 	ldw	r2,44(r2)
   24764:	10001326 	beq	r2,zero,247b4 <alt_msgdma_irq+0x10c>
   24768:	0005303a 	rdctl	r2,status
   2476c:	e0bffb15 	stw	r2,-20(fp)
   24770:	e0fffb17 	ldw	r3,-20(fp)
   24774:	00bfff84 	movi	r2,-2
   24778:	1884703a 	and	r2,r3,r2
   2477c:	1001703a 	wrctl	status,r2
   24780:	e0bffb17 	ldw	r2,-20(fp)
   24784:	e0bffd15 	stw	r2,-12(fp)
   24788:	e0bfff17 	ldw	r2,-4(fp)
   2478c:	10800b17 	ldw	r2,44(r2)
   24790:	e0ffff17 	ldw	r3,-4(fp)
   24794:	18c00c17 	ldw	r3,48(r3)
   24798:	1809883a 	mov	r4,r3
   2479c:	103ee83a 	callr	r2
   247a0:	e0bffd17 	ldw	r2,-12(fp)
   247a4:	e0bffc15 	stw	r2,-16(fp)
   247a8:	e0bffc17 	ldw	r2,-16(fp)
   247ac:	1001703a 	wrctl	status,r2
   247b0:	0001883a 	nop
   247b4:	e0bfff17 	ldw	r2,-4(fp)
   247b8:	10801783 	ldbu	r2,94(r2)
   247bc:	10803fcc 	andi	r2,r2,255
   247c0:	10000a26 	beq	r2,zero,247ec <alt_msgdma_irq+0x144>
   247c4:	e0bfff17 	ldw	r2,-4(fp)
   247c8:	10800617 	ldw	r2,24(r2)
   247cc:	10800037 	ldwio	r2,0(r2)
   247d0:	10800214 	ori	r2,r2,8
   247d4:	e0bffe15 	stw	r2,-8(fp)
   247d8:	e0bfff17 	ldw	r2,-4(fp)
   247dc:	10800617 	ldw	r2,24(r2)
   247e0:	e0fffe17 	ldw	r3,-8(fp)
   247e4:	10c00035 	stwio	r3,0(r2)
   247e8:	00000c06 	br	2481c <alt_msgdma_irq+0x174>
   247ec:	e0bfff17 	ldw	r2,-4(fp)
   247f0:	10800317 	ldw	r2,12(r2)
   247f4:	10800104 	addi	r2,r2,4
   247f8:	10800037 	ldwio	r2,0(r2)
   247fc:	10800414 	ori	r2,r2,16
   24800:	e0bffe15 	stw	r2,-8(fp)
   24804:	e0bfff17 	ldw	r2,-4(fp)
   24808:	10800317 	ldw	r2,12(r2)
   2480c:	10800104 	addi	r2,r2,4
   24810:	e0fffe17 	ldw	r3,-8(fp)
   24814:	10c00035 	stwio	r3,0(r2)
   24818:	0001883a 	nop
   2481c:	e037883a 	mov	sp,fp
   24820:	dfc00117 	ldw	ra,4(sp)
   24824:	df000017 	ldw	fp,0(sp)
   24828:	dec00204 	addi	sp,sp,8
   2482c:	f800283a 	ret

00024830 <alt_msgdma_construct_standard_descriptor>:
   24830:	defffb04 	addi	sp,sp,-20
   24834:	df000415 	stw	fp,16(sp)
   24838:	df000404 	addi	fp,sp,16
   2483c:	e13fff15 	stw	r4,-4(fp)
   24840:	e17ffe15 	stw	r5,-8(fp)
   24844:	e1bffd15 	stw	r6,-12(fp)
   24848:	e1fffc15 	stw	r7,-16(fp)
   2484c:	e0bfff17 	ldw	r2,-4(fp)
   24850:	10c01217 	ldw	r3,72(r2)
   24854:	e0800117 	ldw	r2,4(fp)
   24858:	18800436 	bltu	r3,r2,2486c <alt_msgdma_construct_standard_descriptor+0x3c>
   2485c:	e0bfff17 	ldw	r2,-4(fp)
   24860:	10801703 	ldbu	r2,92(r2)
   24864:	10803fcc 	andi	r2,r2,255
   24868:	10000226 	beq	r2,zero,24874 <alt_msgdma_construct_standard_descriptor+0x44>
   2486c:	00bffa84 	movi	r2,-22
   24870:	00000e06 	br	248ac <alt_msgdma_construct_standard_descriptor+0x7c>
   24874:	e0bffe17 	ldw	r2,-8(fp)
   24878:	e0fffd17 	ldw	r3,-12(fp)
   2487c:	10c00015 	stw	r3,0(r2)
   24880:	e0bffe17 	ldw	r2,-8(fp)
   24884:	e0fffc17 	ldw	r3,-16(fp)
   24888:	10c00115 	stw	r3,4(r2)
   2488c:	e0bffe17 	ldw	r2,-8(fp)
   24890:	e0c00117 	ldw	r3,4(fp)
   24894:	10c00215 	stw	r3,8(r2)
   24898:	e0800217 	ldw	r2,8(fp)
   2489c:	10e00034 	orhi	r3,r2,32768
   248a0:	e0bffe17 	ldw	r2,-8(fp)
   248a4:	10c00315 	stw	r3,12(r2)
   248a8:	0005883a 	mov	r2,zero
   248ac:	e037883a 	mov	sp,fp
   248b0:	df000017 	ldw	fp,0(sp)
   248b4:	dec00104 	addi	sp,sp,4
   248b8:	f800283a 	ret

000248bc <alt_msgdma_construct_extended_descriptor>:
   248bc:	defff604 	addi	sp,sp,-40
   248c0:	df000915 	stw	fp,36(sp)
   248c4:	df000904 	addi	fp,sp,36
   248c8:	e13fff15 	stw	r4,-4(fp)
   248cc:	e17ffe15 	stw	r5,-8(fp)
   248d0:	e1bffd15 	stw	r6,-12(fp)
   248d4:	e1fffc15 	stw	r7,-16(fp)
   248d8:	e1800317 	ldw	r6,12(fp)
   248dc:	e1400417 	ldw	r5,16(fp)
   248e0:	e1000517 	ldw	r4,20(fp)
   248e4:	e0c00617 	ldw	r3,24(fp)
   248e8:	e0800717 	ldw	r2,28(fp)
   248ec:	e1bffb0d 	sth	r6,-20(fp)
   248f0:	e17ffa05 	stb	r5,-24(fp)
   248f4:	e13ff905 	stb	r4,-28(fp)
   248f8:	e0fff80d 	sth	r3,-32(fp)
   248fc:	e0bff70d 	sth	r2,-36(fp)
   24900:	e0bfff17 	ldw	r2,-4(fp)
   24904:	10c01217 	ldw	r3,72(r2)
   24908:	e0800117 	ldw	r2,4(fp)
   2490c:	18801936 	bltu	r3,r2,24974 <alt_msgdma_construct_extended_descriptor+0xb8>
   24910:	e13fff17 	ldw	r4,-4(fp)
   24914:	20801317 	ldw	r2,76(r4)
   24918:	20c01417 	ldw	r3,80(r4)
   2491c:	e13ff80b 	ldhu	r4,-32(fp)
   24920:	213fffcc 	andi	r4,r4,65535
   24924:	2015883a 	mov	r10,r4
   24928:	0017883a 	mov	r11,zero
   2492c:	1ac01136 	bltu	r3,r11,24974 <alt_msgdma_construct_extended_descriptor+0xb8>
   24930:	58c0011e 	bne	r11,r3,24938 <alt_msgdma_construct_extended_descriptor+0x7c>
   24934:	12800f36 	bltu	r2,r10,24974 <alt_msgdma_construct_extended_descriptor+0xb8>
   24938:	e13fff17 	ldw	r4,-4(fp)
   2493c:	20801317 	ldw	r2,76(r4)
   24940:	20c01417 	ldw	r3,80(r4)
   24944:	e13ff70b 	ldhu	r4,-36(fp)
   24948:	213fffcc 	andi	r4,r4,65535
   2494c:	2011883a 	mov	r8,r4
   24950:	0013883a 	mov	r9,zero
   24954:	1a400736 	bltu	r3,r9,24974 <alt_msgdma_construct_extended_descriptor+0xb8>
   24958:	48c0011e 	bne	r9,r3,24960 <alt_msgdma_construct_extended_descriptor+0xa4>
   2495c:	12000536 	bltu	r2,r8,24974 <alt_msgdma_construct_extended_descriptor+0xb8>
   24960:	e0bfff17 	ldw	r2,-4(fp)
   24964:	10801703 	ldbu	r2,92(r2)
   24968:	10803fcc 	andi	r2,r2,255
   2496c:	10800060 	cmpeqi	r2,r2,1
   24970:	1000021e 	bne	r2,zero,2497c <alt_msgdma_construct_extended_descriptor+0xc0>
   24974:	00bffa84 	movi	r2,-22
   24978:	00002106 	br	24a00 <alt_msgdma_construct_extended_descriptor+0x144>
   2497c:	e0bffe17 	ldw	r2,-8(fp)
   24980:	e0fffd17 	ldw	r3,-12(fp)
   24984:	10c00015 	stw	r3,0(r2)
   24988:	e0bffe17 	ldw	r2,-8(fp)
   2498c:	e0fffc17 	ldw	r3,-16(fp)
   24990:	10c00115 	stw	r3,4(r2)
   24994:	e0bffe17 	ldw	r2,-8(fp)
   24998:	e0c00117 	ldw	r3,4(fp)
   2499c:	10c00215 	stw	r3,8(r2)
   249a0:	e0bffe17 	ldw	r2,-8(fp)
   249a4:	e0fffb0b 	ldhu	r3,-20(fp)
   249a8:	10c0030d 	sth	r3,12(r2)
   249ac:	e0bffe17 	ldw	r2,-8(fp)
   249b0:	e0fffa03 	ldbu	r3,-24(fp)
   249b4:	10c00385 	stb	r3,14(r2)
   249b8:	e0bffe17 	ldw	r2,-8(fp)
   249bc:	e0fff903 	ldbu	r3,-28(fp)
   249c0:	10c003c5 	stb	r3,15(r2)
   249c4:	e0bffe17 	ldw	r2,-8(fp)
   249c8:	e0fff80b 	ldhu	r3,-32(fp)
   249cc:	10c0040d 	sth	r3,16(r2)
   249d0:	e0bffe17 	ldw	r2,-8(fp)
   249d4:	e0fff70b 	ldhu	r3,-36(fp)
   249d8:	10c0048d 	sth	r3,18(r2)
   249dc:	e0bffe17 	ldw	r2,-8(fp)
   249e0:	10000515 	stw	zero,20(r2)
   249e4:	e0bffe17 	ldw	r2,-8(fp)
   249e8:	10000615 	stw	zero,24(r2)
   249ec:	e0800217 	ldw	r2,8(fp)
   249f0:	10e00034 	orhi	r3,r2,32768
   249f4:	e0bffe17 	ldw	r2,-8(fp)
   249f8:	10c00715 	stw	r3,28(r2)
   249fc:	0005883a 	mov	r2,zero
   24a00:	e037883a 	mov	sp,fp
   24a04:	df000017 	ldw	fp,0(sp)
   24a08:	dec00104 	addi	sp,sp,4
   24a0c:	f800283a 	ret

00024a10 <alt_msgdma_descriptor_async_transfer>:
   24a10:	defff004 	addi	sp,sp,-64
   24a14:	dfc00f15 	stw	ra,60(sp)
   24a18:	df000e15 	stw	fp,56(sp)
   24a1c:	df000e04 	addi	fp,sp,56
   24a20:	e13ff415 	stw	r4,-48(fp)
   24a24:	e17ff315 	stw	r5,-52(fp)
   24a28:	e1bff215 	stw	r6,-56(fp)
   24a2c:	e03ffe15 	stw	zero,-8(fp)
   24a30:	e03ffd15 	stw	zero,-12(fp)
   24a34:	e03fff8d 	sth	zero,-2(fp)
   24a38:	e0bff417 	ldw	r2,-48(fp)
   24a3c:	10800317 	ldw	r2,12(r2)
   24a40:	10800204 	addi	r2,r2,8
   24a44:	10800037 	ldwio	r2,0(r2)
   24a48:	10bfffcc 	andi	r2,r2,65535
   24a4c:	e0bffc15 	stw	r2,-16(fp)
   24a50:	e0bff417 	ldw	r2,-48(fp)
   24a54:	10800317 	ldw	r2,12(r2)
   24a58:	10800204 	addi	r2,r2,8
   24a5c:	10800037 	ldwio	r2,0(r2)
   24a60:	1004d43a 	srli	r2,r2,16
   24a64:	10bfffcc 	andi	r2,r2,65535
   24a68:	e0bffb15 	stw	r2,-20(fp)
   24a6c:	e0bff417 	ldw	r2,-48(fp)
   24a70:	10800917 	ldw	r2,36(r2)
   24a74:	e0fffb17 	ldw	r3,-20(fp)
   24a78:	1880042e 	bgeu	r3,r2,24a8c <alt_msgdma_descriptor_async_transfer+0x7c>
   24a7c:	e0bff417 	ldw	r2,-48(fp)
   24a80:	10800917 	ldw	r2,36(r2)
   24a84:	e0fffc17 	ldw	r3,-16(fp)
   24a88:	18800236 	bltu	r3,r2,24a94 <alt_msgdma_descriptor_async_transfer+0x84>
   24a8c:	00bff904 	movi	r2,-28
   24a90:	00009106 	br	24cd8 <alt_msgdma_descriptor_async_transfer+0x2c8>
   24a94:	00800804 	movi	r2,32
   24a98:	e0bffe15 	stw	r2,-8(fp)
   24a9c:	0005303a 	rdctl	r2,status
   24aa0:	e0bff915 	stw	r2,-28(fp)
   24aa4:	e0fff917 	ldw	r3,-28(fp)
   24aa8:	00bfff84 	movi	r2,-2
   24aac:	1884703a 	and	r2,r3,r2
   24ab0:	1001703a 	wrctl	status,r2
   24ab4:	e0bff917 	ldw	r2,-28(fp)
   24ab8:	e0bffd15 	stw	r2,-12(fp)
   24abc:	e0bff417 	ldw	r2,-48(fp)
   24ac0:	10800317 	ldw	r2,12(r2)
   24ac4:	10800104 	addi	r2,r2,4
   24ac8:	e0fffe17 	ldw	r3,-8(fp)
   24acc:	10c00035 	stwio	r3,0(r2)
   24ad0:	e0bff417 	ldw	r2,-48(fp)
   24ad4:	10800317 	ldw	r2,12(r2)
   24ad8:	e0fff417 	ldw	r3,-48(fp)
   24adc:	18c00317 	ldw	r3,12(r3)
   24ae0:	18c00037 	ldwio	r3,0(r3)
   24ae4:	10c00035 	stwio	r3,0(r2)
   24ae8:	e0bffd17 	ldw	r2,-12(fp)
   24aec:	e0bffa15 	stw	r2,-24(fp)
   24af0:	e0bffa17 	ldw	r2,-24(fp)
   24af4:	1001703a 	wrctl	status,r2
   24af8:	0001883a 	nop
   24afc:	e0bff317 	ldw	r2,-52(fp)
   24b00:	10001a26 	beq	r2,zero,24b6c <alt_msgdma_descriptor_async_transfer+0x15c>
   24b04:	e0bff217 	ldw	r2,-56(fp)
   24b08:	1000181e 	bne	r2,zero,24b6c <alt_msgdma_descriptor_async_transfer+0x15c>
   24b0c:	00000d06 	br	24b44 <alt_msgdma_descriptor_async_transfer+0x134>
   24b10:	01000044 	movi	r4,1
   24b14:	00264840 	call	26484 <alt_busy_sleep>
   24b18:	e0bfff8b 	ldhu	r2,-2(fp)
   24b1c:	1084e230 	cmpltui	r2,r2,5000
   24b20:	1000051e 	bne	r2,zero,24b38 <alt_msgdma_descriptor_async_transfer+0x128>
   24b24:	010000b4 	movhi	r4,2
   24b28:	211eb604 	addi	r4,r4,31448
   24b2c:	0026e040 	call	26e04 <alt_printf>
   24b30:	00bff084 	movi	r2,-62
   24b34:	00006806 	br	24cd8 <alt_msgdma_descriptor_async_transfer+0x2c8>
   24b38:	e0bfff8b 	ldhu	r2,-2(fp)
   24b3c:	10800044 	addi	r2,r2,1
   24b40:	e0bfff8d 	sth	r2,-2(fp)
   24b44:	e0bff417 	ldw	r2,-48(fp)
   24b48:	10c00317 	ldw	r3,12(r2)
   24b4c:	e0bff417 	ldw	r2,-48(fp)
   24b50:	10800417 	ldw	r2,16(r2)
   24b54:	e1bff317 	ldw	r6,-52(fp)
   24b58:	100b883a 	mov	r5,r2
   24b5c:	1809883a 	mov	r4,r3
   24b60:	00244e80 	call	244e8 <alt_msgdma_write_standard_descriptor>
   24b64:	103fea1e 	bne	r2,zero,24b10 <alt_msgdma_descriptor_async_transfer+0x100>
   24b68:	00001f06 	br	24be8 <alt_msgdma_descriptor_async_transfer+0x1d8>
   24b6c:	e0bff317 	ldw	r2,-52(fp)
   24b70:	10001b1e 	bne	r2,zero,24be0 <alt_msgdma_descriptor_async_transfer+0x1d0>
   24b74:	e0bff217 	ldw	r2,-56(fp)
   24b78:	10001926 	beq	r2,zero,24be0 <alt_msgdma_descriptor_async_transfer+0x1d0>
   24b7c:	e03fff8d 	sth	zero,-2(fp)
   24b80:	00000d06 	br	24bb8 <alt_msgdma_descriptor_async_transfer+0x1a8>
   24b84:	01000044 	movi	r4,1
   24b88:	00264840 	call	26484 <alt_busy_sleep>
   24b8c:	e0bfff8b 	ldhu	r2,-2(fp)
   24b90:	1084e230 	cmpltui	r2,r2,5000
   24b94:	1000051e 	bne	r2,zero,24bac <alt_msgdma_descriptor_async_transfer+0x19c>
   24b98:	010000b4 	movhi	r4,2
   24b9c:	211ecc04 	addi	r4,r4,31536
   24ba0:	0026e040 	call	26e04 <alt_printf>
   24ba4:	00bff084 	movi	r2,-62
   24ba8:	00004b06 	br	24cd8 <alt_msgdma_descriptor_async_transfer+0x2c8>
   24bac:	e0bfff8b 	ldhu	r2,-2(fp)
   24bb0:	10800044 	addi	r2,r2,1
   24bb4:	e0bfff8d 	sth	r2,-2(fp)
   24bb8:	e0bff417 	ldw	r2,-48(fp)
   24bbc:	10c00317 	ldw	r3,12(r2)
   24bc0:	e0bff417 	ldw	r2,-48(fp)
   24bc4:	10800417 	ldw	r2,16(r2)
   24bc8:	e1bff217 	ldw	r6,-56(fp)
   24bcc:	100b883a 	mov	r5,r2
   24bd0:	1809883a 	mov	r4,r3
   24bd4:	002457c0 	call	2457c <alt_msgdma_write_extended_descriptor>
   24bd8:	103fea1e 	bne	r2,zero,24b84 <alt_msgdma_descriptor_async_transfer+0x174>
   24bdc:	00000206 	br	24be8 <alt_msgdma_descriptor_async_transfer+0x1d8>
   24be0:	00bfffc4 	movi	r2,-1
   24be4:	00003c06 	br	24cd8 <alt_msgdma_descriptor_async_transfer+0x2c8>
   24be8:	e0bff417 	ldw	r2,-48(fp)
   24bec:	10800b17 	ldw	r2,44(r2)
   24bf0:	10001c26 	beq	r2,zero,24c64 <alt_msgdma_descriptor_async_transfer+0x254>
   24bf4:	e0bff417 	ldw	r2,-48(fp)
   24bf8:	10c00d17 	ldw	r3,52(r2)
   24bfc:	e0bffe17 	ldw	r2,-8(fp)
   24c00:	1884b03a 	or	r2,r3,r2
   24c04:	10800514 	ori	r2,r2,20
   24c08:	e0bffe15 	stw	r2,-8(fp)
   24c0c:	e0fffe17 	ldw	r3,-8(fp)
   24c10:	00bff7c4 	movi	r2,-33
   24c14:	1884703a 	and	r2,r3,r2
   24c18:	e0bffe15 	stw	r2,-8(fp)
   24c1c:	0005303a 	rdctl	r2,status
   24c20:	e0bff715 	stw	r2,-36(fp)
   24c24:	e0fff717 	ldw	r3,-36(fp)
   24c28:	00bfff84 	movi	r2,-2
   24c2c:	1884703a 	and	r2,r3,r2
   24c30:	1001703a 	wrctl	status,r2
   24c34:	e0bff717 	ldw	r2,-36(fp)
   24c38:	e0bffd15 	stw	r2,-12(fp)
   24c3c:	e0bff417 	ldw	r2,-48(fp)
   24c40:	10800317 	ldw	r2,12(r2)
   24c44:	10800104 	addi	r2,r2,4
   24c48:	e0fffe17 	ldw	r3,-8(fp)
   24c4c:	10c00035 	stwio	r3,0(r2)
   24c50:	e0bffd17 	ldw	r2,-12(fp)
   24c54:	e0bff815 	stw	r2,-32(fp)
   24c58:	e0bff817 	ldw	r2,-32(fp)
   24c5c:	1001703a 	wrctl	status,r2
   24c60:	00001c06 	br	24cd4 <alt_msgdma_descriptor_async_transfer+0x2c4>
   24c64:	e0bff417 	ldw	r2,-48(fp)
   24c68:	10c00d17 	ldw	r3,52(r2)
   24c6c:	e0bffe17 	ldw	r2,-8(fp)
   24c70:	1884b03a 	or	r2,r3,r2
   24c74:	10800114 	ori	r2,r2,4
   24c78:	e0bffe15 	stw	r2,-8(fp)
   24c7c:	e0fffe17 	ldw	r3,-8(fp)
   24c80:	00bff3c4 	movi	r2,-49
   24c84:	1884703a 	and	r2,r3,r2
   24c88:	e0bffe15 	stw	r2,-8(fp)
   24c8c:	0005303a 	rdctl	r2,status
   24c90:	e0bff515 	stw	r2,-44(fp)
   24c94:	e0fff517 	ldw	r3,-44(fp)
   24c98:	00bfff84 	movi	r2,-2
   24c9c:	1884703a 	and	r2,r3,r2
   24ca0:	1001703a 	wrctl	status,r2
   24ca4:	e0bff517 	ldw	r2,-44(fp)
   24ca8:	e0bffd15 	stw	r2,-12(fp)
   24cac:	e0bff417 	ldw	r2,-48(fp)
   24cb0:	10800317 	ldw	r2,12(r2)
   24cb4:	10800104 	addi	r2,r2,4
   24cb8:	e0fffe17 	ldw	r3,-8(fp)
   24cbc:	10c00035 	stwio	r3,0(r2)
   24cc0:	e0bffd17 	ldw	r2,-12(fp)
   24cc4:	e0bff615 	stw	r2,-40(fp)
   24cc8:	e0bff617 	ldw	r2,-40(fp)
   24ccc:	1001703a 	wrctl	status,r2
   24cd0:	0001883a 	nop
   24cd4:	0005883a 	mov	r2,zero
   24cd8:	e037883a 	mov	sp,fp
   24cdc:	dfc00117 	ldw	ra,4(sp)
   24ce0:	df000017 	ldw	fp,0(sp)
   24ce4:	dec00204 	addi	sp,sp,8
   24ce8:	f800283a 	ret

00024cec <alt_msgdma_descriptor_sync_transfer>:
   24cec:	defff004 	addi	sp,sp,-64
   24cf0:	dfc00f15 	stw	ra,60(sp)
   24cf4:	df000e15 	stw	fp,56(sp)
   24cf8:	df000e04 	addi	fp,sp,56
   24cfc:	e13ff415 	stw	r4,-48(fp)
   24d00:	e17ff315 	stw	r5,-52(fp)
   24d04:	e1bff215 	stw	r6,-56(fp)
   24d08:	e03ffb15 	stw	zero,-20(fp)
   24d0c:	e03ffa15 	stw	zero,-24(fp)
   24d10:	e03fff15 	stw	zero,-4(fp)
   24d14:	e03ffe8d 	sth	zero,-6(fp)
   24d18:	e0bff417 	ldw	r2,-48(fp)
   24d1c:	10800317 	ldw	r2,12(r2)
   24d20:	10800204 	addi	r2,r2,8
   24d24:	10800037 	ldwio	r2,0(r2)
   24d28:	10bfffcc 	andi	r2,r2,65535
   24d2c:	e0bffd15 	stw	r2,-12(fp)
   24d30:	e0bff417 	ldw	r2,-48(fp)
   24d34:	10800317 	ldw	r2,12(r2)
   24d38:	10800204 	addi	r2,r2,8
   24d3c:	10800037 	ldwio	r2,0(r2)
   24d40:	1004d43a 	srli	r2,r2,16
   24d44:	10bfffcc 	andi	r2,r2,65535
   24d48:	e0bffc15 	stw	r2,-16(fp)
   24d4c:	00807804 	movi	r2,480
   24d50:	e0bff915 	stw	r2,-28(fp)
   24d54:	00001a06 	br	24dc0 <alt_msgdma_descriptor_sync_transfer+0xd4>
   24d58:	01000044 	movi	r4,1
   24d5c:	00264840 	call	26484 <alt_busy_sleep>
   24d60:	e0bffe8b 	ldhu	r2,-6(fp)
   24d64:	1084e230 	cmpltui	r2,r2,5000
   24d68:	1000051e 	bne	r2,zero,24d80 <alt_msgdma_descriptor_sync_transfer+0x94>
   24d6c:	010000b4 	movhi	r4,2
   24d70:	211ee204 	addi	r4,r4,31624
   24d74:	0026e040 	call	26e04 <alt_printf>
   24d78:	00bff084 	movi	r2,-62
   24d7c:	0000b806 	br	25060 <alt_msgdma_descriptor_sync_transfer+0x374>
   24d80:	e0bffe8b 	ldhu	r2,-6(fp)
   24d84:	10800044 	addi	r2,r2,1
   24d88:	e0bffe8d 	sth	r2,-6(fp)
   24d8c:	e0bff417 	ldw	r2,-48(fp)
   24d90:	10800317 	ldw	r2,12(r2)
   24d94:	10800204 	addi	r2,r2,8
   24d98:	10800037 	ldwio	r2,0(r2)
   24d9c:	10bfffcc 	andi	r2,r2,65535
   24da0:	e0bffd15 	stw	r2,-12(fp)
   24da4:	e0bff417 	ldw	r2,-48(fp)
   24da8:	10800317 	ldw	r2,12(r2)
   24dac:	10800204 	addi	r2,r2,8
   24db0:	10800037 	ldwio	r2,0(r2)
   24db4:	1004d43a 	srli	r2,r2,16
   24db8:	10bfffcc 	andi	r2,r2,65535
   24dbc:	e0bffc15 	stw	r2,-16(fp)
   24dc0:	e0bff417 	ldw	r2,-48(fp)
   24dc4:	10800917 	ldw	r2,36(r2)
   24dc8:	e0fffc17 	ldw	r3,-16(fp)
   24dcc:	18bfe22e 	bgeu	r3,r2,24d58 <alt_msgdma_descriptor_sync_transfer+0x6c>
   24dd0:	e0bff417 	ldw	r2,-48(fp)
   24dd4:	10800917 	ldw	r2,36(r2)
   24dd8:	e0fffd17 	ldw	r3,-12(fp)
   24ddc:	18bfde2e 	bgeu	r3,r2,24d58 <alt_msgdma_descriptor_sync_transfer+0x6c>
   24de0:	0005303a 	rdctl	r2,status
   24de4:	e0bff815 	stw	r2,-32(fp)
   24de8:	e0fff817 	ldw	r3,-32(fp)
   24dec:	00bfff84 	movi	r2,-2
   24df0:	1884703a 	and	r2,r3,r2
   24df4:	1001703a 	wrctl	status,r2
   24df8:	e0bff817 	ldw	r2,-32(fp)
   24dfc:	e0bffa15 	stw	r2,-24(fp)
   24e00:	e0bff417 	ldw	r2,-48(fp)
   24e04:	10800317 	ldw	r2,12(r2)
   24e08:	10800104 	addi	r2,r2,4
   24e0c:	00c00804 	movi	r3,32
   24e10:	10c00035 	stwio	r3,0(r2)
   24e14:	e0bff417 	ldw	r2,-48(fp)
   24e18:	10800317 	ldw	r2,12(r2)
   24e1c:	e0fff417 	ldw	r3,-48(fp)
   24e20:	18c00317 	ldw	r3,12(r3)
   24e24:	18c00037 	ldwio	r3,0(r3)
   24e28:	10c00035 	stwio	r3,0(r2)
   24e2c:	e0bff317 	ldw	r2,-52(fp)
   24e30:	10001b26 	beq	r2,zero,24ea0 <alt_msgdma_descriptor_sync_transfer+0x1b4>
   24e34:	e0bff217 	ldw	r2,-56(fp)
   24e38:	1000191e 	bne	r2,zero,24ea0 <alt_msgdma_descriptor_sync_transfer+0x1b4>
   24e3c:	e03ffe8d 	sth	zero,-6(fp)
   24e40:	00000d06 	br	24e78 <alt_msgdma_descriptor_sync_transfer+0x18c>
   24e44:	01000044 	movi	r4,1
   24e48:	00264840 	call	26484 <alt_busy_sleep>
   24e4c:	e0bffe8b 	ldhu	r2,-6(fp)
   24e50:	1084e230 	cmpltui	r2,r2,5000
   24e54:	1000051e 	bne	r2,zero,24e6c <alt_msgdma_descriptor_sync_transfer+0x180>
   24e58:	010000b4 	movhi	r4,2
   24e5c:	211ef604 	addi	r4,r4,31704
   24e60:	0026e040 	call	26e04 <alt_printf>
   24e64:	00bff084 	movi	r2,-62
   24e68:	00007d06 	br	25060 <alt_msgdma_descriptor_sync_transfer+0x374>
   24e6c:	e0bffe8b 	ldhu	r2,-6(fp)
   24e70:	10800044 	addi	r2,r2,1
   24e74:	e0bffe8d 	sth	r2,-6(fp)
   24e78:	e0bff417 	ldw	r2,-48(fp)
   24e7c:	10c00317 	ldw	r3,12(r2)
   24e80:	e0bff417 	ldw	r2,-48(fp)
   24e84:	10800417 	ldw	r2,16(r2)
   24e88:	e1bff317 	ldw	r6,-52(fp)
   24e8c:	100b883a 	mov	r5,r2
   24e90:	1809883a 	mov	r4,r3
   24e94:	00244e80 	call	244e8 <alt_msgdma_write_standard_descriptor>
   24e98:	103fea1e 	bne	r2,zero,24e44 <alt_msgdma_descriptor_sync_transfer+0x158>
   24e9c:	00001f06 	br	24f1c <alt_msgdma_descriptor_sync_transfer+0x230>
   24ea0:	e0bff317 	ldw	r2,-52(fp)
   24ea4:	10001b1e 	bne	r2,zero,24f14 <alt_msgdma_descriptor_sync_transfer+0x228>
   24ea8:	e0bff217 	ldw	r2,-56(fp)
   24eac:	10001926 	beq	r2,zero,24f14 <alt_msgdma_descriptor_sync_transfer+0x228>
   24eb0:	e03ffe8d 	sth	zero,-6(fp)
   24eb4:	00000d06 	br	24eec <alt_msgdma_descriptor_sync_transfer+0x200>
   24eb8:	01000044 	movi	r4,1
   24ebc:	00264840 	call	26484 <alt_busy_sleep>
   24ec0:	e0bffe8b 	ldhu	r2,-6(fp)
   24ec4:	1084e230 	cmpltui	r2,r2,5000
   24ec8:	1000051e 	bne	r2,zero,24ee0 <alt_msgdma_descriptor_sync_transfer+0x1f4>
   24ecc:	010000b4 	movhi	r4,2
   24ed0:	211f0704 	addi	r4,r4,31772
   24ed4:	0026e040 	call	26e04 <alt_printf>
   24ed8:	00bff084 	movi	r2,-62
   24edc:	00006006 	br	25060 <alt_msgdma_descriptor_sync_transfer+0x374>
   24ee0:	e0bffe8b 	ldhu	r2,-6(fp)
   24ee4:	10800044 	addi	r2,r2,1
   24ee8:	e0bffe8d 	sth	r2,-6(fp)
   24eec:	e0bff417 	ldw	r2,-48(fp)
   24ef0:	10c00317 	ldw	r3,12(r2)
   24ef4:	e0bff417 	ldw	r2,-48(fp)
   24ef8:	10800417 	ldw	r2,16(r2)
   24efc:	e1bff217 	ldw	r6,-56(fp)
   24f00:	100b883a 	mov	r5,r2
   24f04:	1809883a 	mov	r4,r3
   24f08:	002457c0 	call	2457c <alt_msgdma_write_extended_descriptor>
   24f0c:	103fea1e 	bne	r2,zero,24eb8 <alt_msgdma_descriptor_sync_transfer+0x1cc>
   24f10:	00000206 	br	24f1c <alt_msgdma_descriptor_sync_transfer+0x230>
   24f14:	00bfffc4 	movi	r2,-1
   24f18:	00005106 	br	25060 <alt_msgdma_descriptor_sync_transfer+0x374>
   24f1c:	e0bff417 	ldw	r2,-48(fp)
   24f20:	10800317 	ldw	r2,12(r2)
   24f24:	10800104 	addi	r2,r2,4
   24f28:	e0fff417 	ldw	r3,-48(fp)
   24f2c:	19000d17 	ldw	r4,52(r3)
   24f30:	00fff2c4 	movi	r3,-53
   24f34:	20c6703a 	and	r3,r4,r3
   24f38:	18c00114 	ori	r3,r3,4
   24f3c:	10c00035 	stwio	r3,0(r2)
   24f40:	e0bffa17 	ldw	r2,-24(fp)
   24f44:	e0bff715 	stw	r2,-36(fp)
   24f48:	e0bff717 	ldw	r2,-36(fp)
   24f4c:	1001703a 	wrctl	status,r2
   24f50:	0001883a 	nop
   24f54:	e03ffe8d 	sth	zero,-6(fp)
   24f58:	e0bff417 	ldw	r2,-48(fp)
   24f5c:	10800317 	ldw	r2,12(r2)
   24f60:	10800037 	ldwio	r2,0(r2)
   24f64:	e0bfff15 	stw	r2,-4(fp)
   24f68:	00001106 	br	24fb0 <alt_msgdma_descriptor_sync_transfer+0x2c4>
   24f6c:	01000044 	movi	r4,1
   24f70:	00264840 	call	26484 <alt_busy_sleep>
   24f74:	e0bffe8b 	ldhu	r2,-6(fp)
   24f78:	1084e230 	cmpltui	r2,r2,5000
   24f7c:	1000051e 	bne	r2,zero,24f94 <alt_msgdma_descriptor_sync_transfer+0x2a8>
   24f80:	010000b4 	movhi	r4,2
   24f84:	211f1804 	addi	r4,r4,31840
   24f88:	0026e040 	call	26e04 <alt_printf>
   24f8c:	00bff084 	movi	r2,-62
   24f90:	00003306 	br	25060 <alt_msgdma_descriptor_sync_transfer+0x374>
   24f94:	e0bffe8b 	ldhu	r2,-6(fp)
   24f98:	10800044 	addi	r2,r2,1
   24f9c:	e0bffe8d 	sth	r2,-6(fp)
   24fa0:	e0bff417 	ldw	r2,-48(fp)
   24fa4:	10800317 	ldw	r2,12(r2)
   24fa8:	10800037 	ldwio	r2,0(r2)
   24fac:	e0bfff15 	stw	r2,-4(fp)
   24fb0:	e0ffff17 	ldw	r3,-4(fp)
   24fb4:	e0bff917 	ldw	r2,-28(fp)
   24fb8:	1884703a 	and	r2,r3,r2
   24fbc:	1000031e 	bne	r2,zero,24fcc <alt_msgdma_descriptor_sync_transfer+0x2e0>
   24fc0:	e0bfff17 	ldw	r2,-4(fp)
   24fc4:	1080004c 	andi	r2,r2,1
   24fc8:	103fe81e 	bne	r2,zero,24f6c <alt_msgdma_descriptor_sync_transfer+0x280>
   24fcc:	e0ffff17 	ldw	r3,-4(fp)
   24fd0:	e0bff917 	ldw	r2,-28(fp)
   24fd4:	1884703a 	and	r2,r3,r2
   24fd8:	10000226 	beq	r2,zero,24fe4 <alt_msgdma_descriptor_sync_transfer+0x2f8>
   24fdc:	e0bff917 	ldw	r2,-28(fp)
   24fe0:	00001f06 	br	25060 <alt_msgdma_descriptor_sync_transfer+0x374>
   24fe4:	e0bff417 	ldw	r2,-48(fp)
   24fe8:	10800317 	ldw	r2,12(r2)
   24fec:	10800104 	addi	r2,r2,4
   24ff0:	10800037 	ldwio	r2,0(r2)
   24ff4:	10800814 	ori	r2,r2,32
   24ff8:	e0bffb15 	stw	r2,-20(fp)
   24ffc:	0005303a 	rdctl	r2,status
   25000:	e0bff515 	stw	r2,-44(fp)
   25004:	e0fff517 	ldw	r3,-44(fp)
   25008:	00bfff84 	movi	r2,-2
   2500c:	1884703a 	and	r2,r3,r2
   25010:	1001703a 	wrctl	status,r2
   25014:	e0bff517 	ldw	r2,-44(fp)
   25018:	e0bffa15 	stw	r2,-24(fp)
   2501c:	e0bff417 	ldw	r2,-48(fp)
   25020:	10800317 	ldw	r2,12(r2)
   25024:	10800104 	addi	r2,r2,4
   25028:	e0fffb17 	ldw	r3,-20(fp)
   2502c:	10c00035 	stwio	r3,0(r2)
   25030:	e0bff417 	ldw	r2,-48(fp)
   25034:	10800317 	ldw	r2,12(r2)
   25038:	e0fff417 	ldw	r3,-48(fp)
   2503c:	18c00317 	ldw	r3,12(r3)
   25040:	18c00037 	ldwio	r3,0(r3)
   25044:	10c00035 	stwio	r3,0(r2)
   25048:	e0bffa17 	ldw	r2,-24(fp)
   2504c:	e0bff615 	stw	r2,-40(fp)
   25050:	e0bff617 	ldw	r2,-40(fp)
   25054:	1001703a 	wrctl	status,r2
   25058:	0001883a 	nop
   2505c:	0005883a 	mov	r2,zero
   25060:	e037883a 	mov	sp,fp
   25064:	dfc00117 	ldw	ra,4(sp)
   25068:	df000017 	ldw	fp,0(sp)
   2506c:	dec00204 	addi	sp,sp,8
   25070:	f800283a 	ret

00025074 <alt_msgdma_construct_standard_st_to_mm_descriptor>:
   25074:	defff804 	addi	sp,sp,-32
   25078:	dfc00715 	stw	ra,28(sp)
   2507c:	df000615 	stw	fp,24(sp)
   25080:	df000604 	addi	fp,sp,24
   25084:	e13fff15 	stw	r4,-4(fp)
   25088:	e17ffe15 	stw	r5,-8(fp)
   2508c:	e1bffd15 	stw	r6,-12(fp)
   25090:	e1fffc15 	stw	r7,-16(fp)
   25094:	e0800217 	ldw	r2,8(fp)
   25098:	d8800115 	stw	r2,4(sp)
   2509c:	e0bffc17 	ldw	r2,-16(fp)
   250a0:	d8800015 	stw	r2,0(sp)
   250a4:	e1fffd17 	ldw	r7,-12(fp)
   250a8:	000d883a 	mov	r6,zero
   250ac:	e17ffe17 	ldw	r5,-8(fp)
   250b0:	e13fff17 	ldw	r4,-4(fp)
   250b4:	00248300 	call	24830 <alt_msgdma_construct_standard_descriptor>
   250b8:	e037883a 	mov	sp,fp
   250bc:	dfc00117 	ldw	ra,4(sp)
   250c0:	df000017 	ldw	fp,0(sp)
   250c4:	dec00204 	addi	sp,sp,8
   250c8:	f800283a 	ret

000250cc <alt_msgdma_construct_standard_mm_to_st_descriptor>:
   250cc:	defff804 	addi	sp,sp,-32
   250d0:	dfc00715 	stw	ra,28(sp)
   250d4:	df000615 	stw	fp,24(sp)
   250d8:	df000604 	addi	fp,sp,24
   250dc:	e13fff15 	stw	r4,-4(fp)
   250e0:	e17ffe15 	stw	r5,-8(fp)
   250e4:	e1bffd15 	stw	r6,-12(fp)
   250e8:	e1fffc15 	stw	r7,-16(fp)
   250ec:	e0800217 	ldw	r2,8(fp)
   250f0:	d8800115 	stw	r2,4(sp)
   250f4:	e0bffc17 	ldw	r2,-16(fp)
   250f8:	d8800015 	stw	r2,0(sp)
   250fc:	000f883a 	mov	r7,zero
   25100:	e1bffd17 	ldw	r6,-12(fp)
   25104:	e17ffe17 	ldw	r5,-8(fp)
   25108:	e13fff17 	ldw	r4,-4(fp)
   2510c:	00248300 	call	24830 <alt_msgdma_construct_standard_descriptor>
   25110:	e037883a 	mov	sp,fp
   25114:	dfc00117 	ldw	ra,4(sp)
   25118:	df000017 	ldw	fp,0(sp)
   2511c:	dec00204 	addi	sp,sp,8
   25120:	f800283a 	ret

00025124 <alt_msgdma_construct_standard_mm_to_mm_descriptor>:
   25124:	defff804 	addi	sp,sp,-32
   25128:	dfc00715 	stw	ra,28(sp)
   2512c:	df000615 	stw	fp,24(sp)
   25130:	df000604 	addi	fp,sp,24
   25134:	e13fff15 	stw	r4,-4(fp)
   25138:	e17ffe15 	stw	r5,-8(fp)
   2513c:	e1bffd15 	stw	r6,-12(fp)
   25140:	e1fffc15 	stw	r7,-16(fp)
   25144:	e0800317 	ldw	r2,12(fp)
   25148:	d8800115 	stw	r2,4(sp)
   2514c:	e0800217 	ldw	r2,8(fp)
   25150:	d8800015 	stw	r2,0(sp)
   25154:	e1fffc17 	ldw	r7,-16(fp)
   25158:	e1bffd17 	ldw	r6,-12(fp)
   2515c:	e17ffe17 	ldw	r5,-8(fp)
   25160:	e13fff17 	ldw	r4,-4(fp)
   25164:	00248300 	call	24830 <alt_msgdma_construct_standard_descriptor>
   25168:	e037883a 	mov	sp,fp
   2516c:	dfc00117 	ldw	ra,4(sp)
   25170:	df000017 	ldw	fp,0(sp)
   25174:	dec00204 	addi	sp,sp,8
   25178:	f800283a 	ret

0002517c <alt_msgdma_construct_extended_st_to_mm_descriptor>:
   2517c:	defff004 	addi	sp,sp,-64
   25180:	dfc00f15 	stw	ra,60(sp)
   25184:	df000e15 	stw	fp,56(sp)
   25188:	df000e04 	addi	fp,sp,56
   2518c:	e13fff15 	stw	r4,-4(fp)
   25190:	e17ffe15 	stw	r5,-8(fp)
   25194:	e1bffd15 	stw	r6,-12(fp)
   25198:	e1fffc15 	stw	r7,-16(fp)
   2519c:	e1000317 	ldw	r4,12(fp)
   251a0:	e0c00417 	ldw	r3,16(fp)
   251a4:	e0800517 	ldw	r2,20(fp)
   251a8:	e13ffb0d 	sth	r4,-20(fp)
   251ac:	e0fffa05 	stb	r3,-24(fp)
   251b0:	e0bff90d 	sth	r2,-28(fp)
   251b4:	e0bffb0b 	ldhu	r2,-20(fp)
   251b8:	e0fffa03 	ldbu	r3,-24(fp)
   251bc:	e13ff90b 	ldhu	r4,-28(fp)
   251c0:	d9000615 	stw	r4,24(sp)
   251c4:	d8000515 	stw	zero,20(sp)
   251c8:	d8c00415 	stw	r3,16(sp)
   251cc:	d8000315 	stw	zero,12(sp)
   251d0:	d8800215 	stw	r2,8(sp)
   251d4:	e0800217 	ldw	r2,8(fp)
   251d8:	d8800115 	stw	r2,4(sp)
   251dc:	e0bffc17 	ldw	r2,-16(fp)
   251e0:	d8800015 	stw	r2,0(sp)
   251e4:	e1fffd17 	ldw	r7,-12(fp)
   251e8:	000d883a 	mov	r6,zero
   251ec:	e17ffe17 	ldw	r5,-8(fp)
   251f0:	e13fff17 	ldw	r4,-4(fp)
   251f4:	00248bc0 	call	248bc <alt_msgdma_construct_extended_descriptor>
   251f8:	e037883a 	mov	sp,fp
   251fc:	dfc00117 	ldw	ra,4(sp)
   25200:	df000017 	ldw	fp,0(sp)
   25204:	dec00204 	addi	sp,sp,8
   25208:	f800283a 	ret

0002520c <alt_msgdma_construct_extended_mm_to_st_descriptor>:
   2520c:	defff004 	addi	sp,sp,-64
   25210:	dfc00f15 	stw	ra,60(sp)
   25214:	df000e15 	stw	fp,56(sp)
   25218:	df000e04 	addi	fp,sp,56
   2521c:	e13fff15 	stw	r4,-4(fp)
   25220:	e17ffe15 	stw	r5,-8(fp)
   25224:	e1bffd15 	stw	r6,-12(fp)
   25228:	e1fffc15 	stw	r7,-16(fp)
   2522c:	e1000317 	ldw	r4,12(fp)
   25230:	e0c00417 	ldw	r3,16(fp)
   25234:	e0800517 	ldw	r2,20(fp)
   25238:	e13ffb0d 	sth	r4,-20(fp)
   2523c:	e0fffa05 	stb	r3,-24(fp)
   25240:	e0bff90d 	sth	r2,-28(fp)
   25244:	e0bffb0b 	ldhu	r2,-20(fp)
   25248:	e0fffa03 	ldbu	r3,-24(fp)
   2524c:	e13ff90b 	ldhu	r4,-28(fp)
   25250:	d8000615 	stw	zero,24(sp)
   25254:	d9000515 	stw	r4,20(sp)
   25258:	d8000415 	stw	zero,16(sp)
   2525c:	d8c00315 	stw	r3,12(sp)
   25260:	d8800215 	stw	r2,8(sp)
   25264:	e0800217 	ldw	r2,8(fp)
   25268:	d8800115 	stw	r2,4(sp)
   2526c:	e0bffc17 	ldw	r2,-16(fp)
   25270:	d8800015 	stw	r2,0(sp)
   25274:	000f883a 	mov	r7,zero
   25278:	e1bffd17 	ldw	r6,-12(fp)
   2527c:	e17ffe17 	ldw	r5,-8(fp)
   25280:	e13fff17 	ldw	r4,-4(fp)
   25284:	00248bc0 	call	248bc <alt_msgdma_construct_extended_descriptor>
   25288:	e037883a 	mov	sp,fp
   2528c:	dfc00117 	ldw	ra,4(sp)
   25290:	df000017 	ldw	fp,0(sp)
   25294:	dec00204 	addi	sp,sp,8
   25298:	f800283a 	ret

0002529c <alt_msgdma_construct_extended_mm_to_mm_descriptor>:
   2529c:	deffee04 	addi	sp,sp,-72
   252a0:	dfc01115 	stw	ra,68(sp)
   252a4:	df001015 	stw	fp,64(sp)
   252a8:	df001004 	addi	fp,sp,64
   252ac:	e13fff15 	stw	r4,-4(fp)
   252b0:	e17ffe15 	stw	r5,-8(fp)
   252b4:	e1bffd15 	stw	r6,-12(fp)
   252b8:	e1fffc15 	stw	r7,-16(fp)
   252bc:	e1800417 	ldw	r6,16(fp)
   252c0:	e1400517 	ldw	r5,20(fp)
   252c4:	e1000617 	ldw	r4,24(fp)
   252c8:	e0c00717 	ldw	r3,28(fp)
   252cc:	e0800817 	ldw	r2,32(fp)
   252d0:	e1bffb0d 	sth	r6,-20(fp)
   252d4:	e17ffa05 	stb	r5,-24(fp)
   252d8:	e13ff905 	stb	r4,-28(fp)
   252dc:	e0fff80d 	sth	r3,-32(fp)
   252e0:	e0bff70d 	sth	r2,-36(fp)
   252e4:	e0bffb0b 	ldhu	r2,-20(fp)
   252e8:	e0fffa03 	ldbu	r3,-24(fp)
   252ec:	e13ff903 	ldbu	r4,-28(fp)
   252f0:	e17ff80b 	ldhu	r5,-32(fp)
   252f4:	e1bff70b 	ldhu	r6,-36(fp)
   252f8:	d9800615 	stw	r6,24(sp)
   252fc:	d9400515 	stw	r5,20(sp)
   25300:	d9000415 	stw	r4,16(sp)
   25304:	d8c00315 	stw	r3,12(sp)
   25308:	d8800215 	stw	r2,8(sp)
   2530c:	e0800317 	ldw	r2,12(fp)
   25310:	d8800115 	stw	r2,4(sp)
   25314:	e0800217 	ldw	r2,8(fp)
   25318:	d8800015 	stw	r2,0(sp)
   2531c:	e1fffc17 	ldw	r7,-16(fp)
   25320:	e1bffd17 	ldw	r6,-12(fp)
   25324:	e17ffe17 	ldw	r5,-8(fp)
   25328:	e13fff17 	ldw	r4,-4(fp)
   2532c:	00248bc0 	call	248bc <alt_msgdma_construct_extended_descriptor>
   25330:	e037883a 	mov	sp,fp
   25334:	dfc00117 	ldw	ra,4(sp)
   25338:	df000017 	ldw	fp,0(sp)
   2533c:	dec00204 	addi	sp,sp,8
   25340:	f800283a 	ret

00025344 <alt_msgdma_construct_prefetcher_standard_descriptor>:
   25344:	defffb04 	addi	sp,sp,-20
   25348:	df000415 	stw	fp,16(sp)
   2534c:	df000404 	addi	fp,sp,16
   25350:	e13fff15 	stw	r4,-4(fp)
   25354:	e17ffe15 	stw	r5,-8(fp)
   25358:	e1bffd15 	stw	r6,-12(fp)
   2535c:	e1fffc15 	stw	r7,-16(fp)
   25360:	e0bfff17 	ldw	r2,-4(fp)
   25364:	10c01217 	ldw	r3,72(r2)
   25368:	e0800117 	ldw	r2,4(fp)
   2536c:	18800436 	bltu	r3,r2,25380 <alt_msgdma_construct_prefetcher_standard_descriptor+0x3c>
   25370:	e0bfff17 	ldw	r2,-4(fp)
   25374:	10801703 	ldbu	r2,92(r2)
   25378:	10803fcc 	andi	r2,r2,255
   2537c:	10000226 	beq	r2,zero,25388 <alt_msgdma_construct_prefetcher_standard_descriptor+0x44>
   25380:	00bffa84 	movi	r2,-22
   25384:	00001406 	br	253d8 <alt_msgdma_construct_prefetcher_standard_descriptor+0x94>
   25388:	e0bffe17 	ldw	r2,-8(fp)
   2538c:	e0fffd17 	ldw	r3,-12(fp)
   25390:	10c00015 	stw	r3,0(r2)
   25394:	e0bffe17 	ldw	r2,-8(fp)
   25398:	e0fffc17 	ldw	r3,-16(fp)
   2539c:	10c00115 	stw	r3,4(r2)
   253a0:	e0bffe17 	ldw	r2,-8(fp)
   253a4:	e0c00117 	ldw	r3,4(fp)
   253a8:	10c00215 	stw	r3,8(r2)
   253ac:	e0fffe17 	ldw	r3,-8(fp)
   253b0:	e0bffe17 	ldw	r2,-8(fp)
   253b4:	10c00315 	stw	r3,12(r2)
   253b8:	e0c00217 	ldw	r3,8(fp)
   253bc:	00900034 	movhi	r2,16384
   253c0:	10bfffc4 	addi	r2,r2,-1
   253c4:	1884703a 	and	r2,r3,r2
   253c8:	10e00034 	orhi	r3,r2,32768
   253cc:	e0bffe17 	ldw	r2,-8(fp)
   253d0:	10c00715 	stw	r3,28(r2)
   253d4:	0005883a 	mov	r2,zero
   253d8:	e037883a 	mov	sp,fp
   253dc:	df000017 	ldw	fp,0(sp)
   253e0:	dec00104 	addi	sp,sp,4
   253e4:	f800283a 	ret

000253e8 <alt_msgdma_construct_prefetcher_extended_descriptor>:
   253e8:	defff404 	addi	sp,sp,-48
   253ec:	df000b15 	stw	fp,44(sp)
   253f0:	df000b04 	addi	fp,sp,44
   253f4:	e13ffd15 	stw	r4,-12(fp)
   253f8:	e17ffc15 	stw	r5,-16(fp)
   253fc:	e1bffb15 	stw	r6,-20(fp)
   25400:	e1fffa15 	stw	r7,-24(fp)
   25404:	e1800517 	ldw	r6,20(fp)
   25408:	e1400617 	ldw	r5,24(fp)
   2540c:	e1000717 	ldw	r4,28(fp)
   25410:	e0c00817 	ldw	r3,32(fp)
   25414:	e0800917 	ldw	r2,36(fp)
   25418:	e1bff90d 	sth	r6,-28(fp)
   2541c:	e17ff805 	stb	r5,-32(fp)
   25420:	e13ff705 	stb	r4,-36(fp)
   25424:	e0fff60d 	sth	r3,-40(fp)
   25428:	e0bff50d 	sth	r2,-44(fp)
   2542c:	e0bffd17 	ldw	r2,-12(fp)
   25430:	10c01217 	ldw	r3,72(r2)
   25434:	e0800317 	ldw	r2,12(fp)
   25438:	18801936 	bltu	r3,r2,254a0 <alt_msgdma_construct_prefetcher_extended_descriptor+0xb8>
   2543c:	e13ffd17 	ldw	r4,-12(fp)
   25440:	20801317 	ldw	r2,76(r4)
   25444:	20c01417 	ldw	r3,80(r4)
   25448:	e13ff60b 	ldhu	r4,-40(fp)
   2544c:	213fffcc 	andi	r4,r4,65535
   25450:	2015883a 	mov	r10,r4
   25454:	0017883a 	mov	r11,zero
   25458:	1ac01136 	bltu	r3,r11,254a0 <alt_msgdma_construct_prefetcher_extended_descriptor+0xb8>
   2545c:	58c0011e 	bne	r11,r3,25464 <alt_msgdma_construct_prefetcher_extended_descriptor+0x7c>
   25460:	12800f36 	bltu	r2,r10,254a0 <alt_msgdma_construct_prefetcher_extended_descriptor+0xb8>
   25464:	e13ffd17 	ldw	r4,-12(fp)
   25468:	20801317 	ldw	r2,76(r4)
   2546c:	20c01417 	ldw	r3,80(r4)
   25470:	e13ff50b 	ldhu	r4,-44(fp)
   25474:	213fffcc 	andi	r4,r4,65535
   25478:	2011883a 	mov	r8,r4
   2547c:	0013883a 	mov	r9,zero
   25480:	1a400736 	bltu	r3,r9,254a0 <alt_msgdma_construct_prefetcher_extended_descriptor+0xb8>
   25484:	48c0011e 	bne	r9,r3,2548c <alt_msgdma_construct_prefetcher_extended_descriptor+0xa4>
   25488:	12000536 	bltu	r2,r8,254a0 <alt_msgdma_construct_prefetcher_extended_descriptor+0xb8>
   2548c:	e0bffd17 	ldw	r2,-12(fp)
   25490:	10801703 	ldbu	r2,92(r2)
   25494:	10803fcc 	andi	r2,r2,255
   25498:	10800060 	cmpeqi	r2,r2,1
   2549c:	1000021e 	bne	r2,zero,254a8 <alt_msgdma_construct_prefetcher_extended_descriptor+0xc0>
   254a0:	00bffa84 	movi	r2,-22
   254a4:	00003106 	br	2556c <alt_msgdma_construct_prefetcher_extended_descriptor+0x184>
   254a8:	e0bffc17 	ldw	r2,-16(fp)
   254ac:	e0fffb17 	ldw	r3,-20(fp)
   254b0:	10c00915 	stw	r3,36(r2)
   254b4:	e0bffc17 	ldw	r2,-16(fp)
   254b8:	e0fffa17 	ldw	r3,-24(fp)
   254bc:	10c00015 	stw	r3,0(r2)
   254c0:	e0bffc17 	ldw	r2,-16(fp)
   254c4:	e0c00117 	ldw	r3,4(fp)
   254c8:	10c00a15 	stw	r3,40(r2)
   254cc:	e0bffc17 	ldw	r2,-16(fp)
   254d0:	e0c00217 	ldw	r3,8(fp)
   254d4:	10c00115 	stw	r3,4(r2)
   254d8:	e0bffc17 	ldw	r2,-16(fp)
   254dc:	e0c00317 	ldw	r3,12(fp)
   254e0:	10c00215 	stw	r3,8(r2)
   254e4:	e0bffc17 	ldw	r2,-16(fp)
   254e8:	e0fff90b 	ldhu	r3,-28(fp)
   254ec:	10c0070d 	sth	r3,28(r2)
   254f0:	e0bffc17 	ldw	r2,-16(fp)
   254f4:	e0fff803 	ldbu	r3,-32(fp)
   254f8:	10c00785 	stb	r3,30(r2)
   254fc:	e0bffc17 	ldw	r2,-16(fp)
   25500:	e0fff703 	ldbu	r3,-36(fp)
   25504:	10c007c5 	stb	r3,31(r2)
   25508:	e0bffc17 	ldw	r2,-16(fp)
   2550c:	e0fff60b 	ldhu	r3,-40(fp)
   25510:	10c0080d 	sth	r3,32(r2)
   25514:	e0bffc17 	ldw	r2,-16(fp)
   25518:	e0fff50b 	ldhu	r3,-44(fp)
   2551c:	10c0088d 	sth	r3,34(r2)
   25520:	e0bffc17 	ldw	r2,-16(fp)
   25524:	1019883a 	mov	r12,r2
   25528:	001b883a 	mov	r13,zero
   2552c:	e33ffe15 	stw	r12,-8(fp)
   25530:	e37fff15 	stw	r13,-4(fp)
   25534:	e0fffe17 	ldw	r3,-8(fp)
   25538:	e0bffc17 	ldw	r2,-16(fp)
   2553c:	10c00315 	stw	r3,12(r2)
   25540:	e0ffff17 	ldw	r3,-4(fp)
   25544:	e0bffc17 	ldw	r2,-16(fp)
   25548:	10c00b15 	stw	r3,44(r2)
   2554c:	e0c00417 	ldw	r3,16(fp)
   25550:	00900034 	movhi	r2,16384
   25554:	10bfffc4 	addi	r2,r2,-1
   25558:	1884703a 	and	r2,r3,r2
   2555c:	10e00034 	orhi	r3,r2,32768
   25560:	e0bffc17 	ldw	r2,-16(fp)
   25564:	10c00f15 	stw	r3,60(r2)
   25568:	0005883a 	mov	r2,zero
   2556c:	e037883a 	mov	sp,fp
   25570:	df000017 	ldw	fp,0(sp)
   25574:	dec00104 	addi	sp,sp,4
   25578:	f800283a 	ret

0002557c <alt_msgdma_construct_prefetcher_standard_mm_to_mm_descriptor>:
   2557c:	defff804 	addi	sp,sp,-32
   25580:	dfc00715 	stw	ra,28(sp)
   25584:	df000615 	stw	fp,24(sp)
   25588:	df000604 	addi	fp,sp,24
   2558c:	e13fff15 	stw	r4,-4(fp)
   25590:	e17ffe15 	stw	r5,-8(fp)
   25594:	e1bffd15 	stw	r6,-12(fp)
   25598:	e1fffc15 	stw	r7,-16(fp)
   2559c:	e0800317 	ldw	r2,12(fp)
   255a0:	d8800115 	stw	r2,4(sp)
   255a4:	e0800217 	ldw	r2,8(fp)
   255a8:	d8800015 	stw	r2,0(sp)
   255ac:	e1fffc17 	ldw	r7,-16(fp)
   255b0:	e1bffd17 	ldw	r6,-12(fp)
   255b4:	e17ffe17 	ldw	r5,-8(fp)
   255b8:	e13fff17 	ldw	r4,-4(fp)
   255bc:	00253440 	call	25344 <alt_msgdma_construct_prefetcher_standard_descriptor>
   255c0:	e037883a 	mov	sp,fp
   255c4:	dfc00117 	ldw	ra,4(sp)
   255c8:	df000017 	ldw	fp,0(sp)
   255cc:	dec00204 	addi	sp,sp,8
   255d0:	f800283a 	ret

000255d4 <alt_msgdma_construct_prefetcher_standard_st_to_mm_descriptor>:
   255d4:	defff804 	addi	sp,sp,-32
   255d8:	dfc00715 	stw	ra,28(sp)
   255dc:	df000615 	stw	fp,24(sp)
   255e0:	df000604 	addi	fp,sp,24
   255e4:	e13fff15 	stw	r4,-4(fp)
   255e8:	e17ffe15 	stw	r5,-8(fp)
   255ec:	e1bffd15 	stw	r6,-12(fp)
   255f0:	e1fffc15 	stw	r7,-16(fp)
   255f4:	e0800217 	ldw	r2,8(fp)
   255f8:	d8800115 	stw	r2,4(sp)
   255fc:	e0bffc17 	ldw	r2,-16(fp)
   25600:	d8800015 	stw	r2,0(sp)
   25604:	e1fffd17 	ldw	r7,-12(fp)
   25608:	000d883a 	mov	r6,zero
   2560c:	e17ffe17 	ldw	r5,-8(fp)
   25610:	e13fff17 	ldw	r4,-4(fp)
   25614:	00253440 	call	25344 <alt_msgdma_construct_prefetcher_standard_descriptor>
   25618:	e037883a 	mov	sp,fp
   2561c:	dfc00117 	ldw	ra,4(sp)
   25620:	df000017 	ldw	fp,0(sp)
   25624:	dec00204 	addi	sp,sp,8
   25628:	f800283a 	ret

0002562c <alt_msgdma_construct_prefetcher_standard_mm_to_st_descriptor>:
   2562c:	defff804 	addi	sp,sp,-32
   25630:	dfc00715 	stw	ra,28(sp)
   25634:	df000615 	stw	fp,24(sp)
   25638:	df000604 	addi	fp,sp,24
   2563c:	e13fff15 	stw	r4,-4(fp)
   25640:	e17ffe15 	stw	r5,-8(fp)
   25644:	e1bffd15 	stw	r6,-12(fp)
   25648:	e1fffc15 	stw	r7,-16(fp)
   2564c:	e0800217 	ldw	r2,8(fp)
   25650:	d8800115 	stw	r2,4(sp)
   25654:	e0bffc17 	ldw	r2,-16(fp)
   25658:	d8800015 	stw	r2,0(sp)
   2565c:	000f883a 	mov	r7,zero
   25660:	e1bffd17 	ldw	r6,-12(fp)
   25664:	e17ffe17 	ldw	r5,-8(fp)
   25668:	e13fff17 	ldw	r4,-4(fp)
   2566c:	00253440 	call	25344 <alt_msgdma_construct_prefetcher_standard_descriptor>
   25670:	e037883a 	mov	sp,fp
   25674:	dfc00117 	ldw	ra,4(sp)
   25678:	df000017 	ldw	fp,0(sp)
   2567c:	dec00204 	addi	sp,sp,8
   25680:	f800283a 	ret

00025684 <alt_msgdma_construct_prefetcher_extended_st_to_mm_descriptor>:
   25684:	deffee04 	addi	sp,sp,-72
   25688:	dfc01115 	stw	ra,68(sp)
   2568c:	df001015 	stw	fp,64(sp)
   25690:	df001004 	addi	fp,sp,64
   25694:	e13fff15 	stw	r4,-4(fp)
   25698:	e17ffe15 	stw	r5,-8(fp)
   2569c:	e1bffd15 	stw	r6,-12(fp)
   256a0:	e1fffc15 	stw	r7,-16(fp)
   256a4:	e1000417 	ldw	r4,16(fp)
   256a8:	e0c00517 	ldw	r3,20(fp)
   256ac:	e0800617 	ldw	r2,24(fp)
   256b0:	e13ffb0d 	sth	r4,-20(fp)
   256b4:	e0fffa05 	stb	r3,-24(fp)
   256b8:	e0bff90d 	sth	r2,-28(fp)
   256bc:	e0bffb0b 	ldhu	r2,-20(fp)
   256c0:	e0fffa03 	ldbu	r3,-24(fp)
   256c4:	e13ff90b 	ldhu	r4,-28(fp)
   256c8:	d9000815 	stw	r4,32(sp)
   256cc:	d8000715 	stw	zero,28(sp)
   256d0:	d8c00615 	stw	r3,24(sp)
   256d4:	d8000515 	stw	zero,20(sp)
   256d8:	d8800415 	stw	r2,16(sp)
   256dc:	e0800317 	ldw	r2,12(fp)
   256e0:	d8800315 	stw	r2,12(sp)
   256e4:	e0800217 	ldw	r2,8(fp)
   256e8:	d8800215 	stw	r2,8(sp)
   256ec:	e0bffc17 	ldw	r2,-16(fp)
   256f0:	d8800115 	stw	r2,4(sp)
   256f4:	e0bffd17 	ldw	r2,-12(fp)
   256f8:	d8800015 	stw	r2,0(sp)
   256fc:	000f883a 	mov	r7,zero
   25700:	000d883a 	mov	r6,zero
   25704:	e17ffe17 	ldw	r5,-8(fp)
   25708:	e13fff17 	ldw	r4,-4(fp)
   2570c:	00253e80 	call	253e8 <alt_msgdma_construct_prefetcher_extended_descriptor>
   25710:	e037883a 	mov	sp,fp
   25714:	dfc00117 	ldw	ra,4(sp)
   25718:	df000017 	ldw	fp,0(sp)
   2571c:	dec00204 	addi	sp,sp,8
   25720:	f800283a 	ret

00025724 <alt_msgdma_construct_prefetcher_extended_mm_to_st_descriptor>:
   25724:	deffee04 	addi	sp,sp,-72
   25728:	dfc01115 	stw	ra,68(sp)
   2572c:	df001015 	stw	fp,64(sp)
   25730:	df001004 	addi	fp,sp,64
   25734:	e13fff15 	stw	r4,-4(fp)
   25738:	e17ffe15 	stw	r5,-8(fp)
   2573c:	e1bffd15 	stw	r6,-12(fp)
   25740:	e1fffc15 	stw	r7,-16(fp)
   25744:	e1000417 	ldw	r4,16(fp)
   25748:	e0c00517 	ldw	r3,20(fp)
   2574c:	e0800617 	ldw	r2,24(fp)
   25750:	e13ffb0d 	sth	r4,-20(fp)
   25754:	e0fffa05 	stb	r3,-24(fp)
   25758:	e0bff90d 	sth	r2,-28(fp)
   2575c:	e0bffb0b 	ldhu	r2,-20(fp)
   25760:	e0fffa03 	ldbu	r3,-24(fp)
   25764:	e13ff90b 	ldhu	r4,-28(fp)
   25768:	d8000815 	stw	zero,32(sp)
   2576c:	d9000715 	stw	r4,28(sp)
   25770:	d8000615 	stw	zero,24(sp)
   25774:	d8c00515 	stw	r3,20(sp)
   25778:	d8800415 	stw	r2,16(sp)
   2577c:	e0800317 	ldw	r2,12(fp)
   25780:	d8800315 	stw	r2,12(sp)
   25784:	e0800217 	ldw	r2,8(fp)
   25788:	d8800215 	stw	r2,8(sp)
   2578c:	d8000115 	stw	zero,4(sp)
   25790:	d8000015 	stw	zero,0(sp)
   25794:	e1fffc17 	ldw	r7,-16(fp)
   25798:	e1bffd17 	ldw	r6,-12(fp)
   2579c:	e17ffe17 	ldw	r5,-8(fp)
   257a0:	e13fff17 	ldw	r4,-4(fp)
   257a4:	00253e80 	call	253e8 <alt_msgdma_construct_prefetcher_extended_descriptor>
   257a8:	e037883a 	mov	sp,fp
   257ac:	dfc00117 	ldw	ra,4(sp)
   257b0:	df000017 	ldw	fp,0(sp)
   257b4:	dec00204 	addi	sp,sp,8
   257b8:	f800283a 	ret

000257bc <alt_msgdma_construct_prefetcher_extended_mm_to_mm_descriptor>:
   257bc:	deffec04 	addi	sp,sp,-80
   257c0:	dfc01315 	stw	ra,76(sp)
   257c4:	df001215 	stw	fp,72(sp)
   257c8:	df001204 	addi	fp,sp,72
   257cc:	e13fff15 	stw	r4,-4(fp)
   257d0:	e17ffe15 	stw	r5,-8(fp)
   257d4:	e1bffd15 	stw	r6,-12(fp)
   257d8:	e1fffc15 	stw	r7,-16(fp)
   257dc:	e1800617 	ldw	r6,24(fp)
   257e0:	e1400717 	ldw	r5,28(fp)
   257e4:	e1000817 	ldw	r4,32(fp)
   257e8:	e0c00917 	ldw	r3,36(fp)
   257ec:	e0800a17 	ldw	r2,40(fp)
   257f0:	e1bffb0d 	sth	r6,-20(fp)
   257f4:	e17ffa05 	stb	r5,-24(fp)
   257f8:	e13ff905 	stb	r4,-28(fp)
   257fc:	e0fff80d 	sth	r3,-32(fp)
   25800:	e0bff70d 	sth	r2,-36(fp)
   25804:	e0bffb0b 	ldhu	r2,-20(fp)
   25808:	e0fffa03 	ldbu	r3,-24(fp)
   2580c:	e13ff903 	ldbu	r4,-28(fp)
   25810:	e17ff80b 	ldhu	r5,-32(fp)
   25814:	e1bff70b 	ldhu	r6,-36(fp)
   25818:	d9800815 	stw	r6,32(sp)
   2581c:	d9400715 	stw	r5,28(sp)
   25820:	d9000615 	stw	r4,24(sp)
   25824:	d8c00515 	stw	r3,20(sp)
   25828:	d8800415 	stw	r2,16(sp)
   2582c:	e0800517 	ldw	r2,20(fp)
   25830:	d8800315 	stw	r2,12(sp)
   25834:	e0800417 	ldw	r2,16(fp)
   25838:	d8800215 	stw	r2,8(sp)
   2583c:	e0800317 	ldw	r2,12(fp)
   25840:	d8800115 	stw	r2,4(sp)
   25844:	e0800217 	ldw	r2,8(fp)
   25848:	d8800015 	stw	r2,0(sp)
   2584c:	e1fffc17 	ldw	r7,-16(fp)
   25850:	e1bffd17 	ldw	r6,-12(fp)
   25854:	e17ffe17 	ldw	r5,-8(fp)
   25858:	e13fff17 	ldw	r4,-4(fp)
   2585c:	00253e80 	call	253e8 <alt_msgdma_construct_prefetcher_extended_descriptor>
   25860:	e037883a 	mov	sp,fp
   25864:	dfc00117 	ldw	ra,4(sp)
   25868:	df000017 	ldw	fp,0(sp)
   2586c:	dec00204 	addi	sp,sp,8
   25870:	f800283a 	ret

00025874 <alt_msgdma_prefetcher_add_standard_desc_to_list>:
   25874:	defffc04 	addi	sp,sp,-16
   25878:	df000315 	stw	fp,12(sp)
   2587c:	df000304 	addi	fp,sp,12
   25880:	e13ffe15 	stw	r4,-8(fp)
   25884:	e17ffd15 	stw	r5,-12(fp)
   25888:	e0bffd17 	ldw	r2,-12(fp)
   2588c:	1000021e 	bne	r2,zero,25898 <alt_msgdma_prefetcher_add_standard_desc_to_list+0x24>
   25890:	00bffa84 	movi	r2,-22
   25894:	00002f06 	br	25954 <alt_msgdma_prefetcher_add_standard_desc_to_list+0xe0>
   25898:	e0bffd17 	ldw	r2,-12(fp)
   2589c:	10c00317 	ldw	r3,12(r2)
   258a0:	e0bffd17 	ldw	r2,-12(fp)
   258a4:	18800226 	beq	r3,r2,258b0 <alt_msgdma_prefetcher_add_standard_desc_to_list+0x3c>
   258a8:	00bffa84 	movi	r2,-22
   258ac:	00002906 	br	25954 <alt_msgdma_prefetcher_add_standard_desc_to_list+0xe0>
   258b0:	e0bffe17 	ldw	r2,-8(fp)
   258b4:	10800017 	ldw	r2,0(r2)
   258b8:	1000051e 	bne	r2,zero,258d0 <alt_msgdma_prefetcher_add_standard_desc_to_list+0x5c>
   258bc:	e0bffe17 	ldw	r2,-8(fp)
   258c0:	e0fffd17 	ldw	r3,-12(fp)
   258c4:	10c00015 	stw	r3,0(r2)
   258c8:	0005883a 	mov	r2,zero
   258cc:	00002106 	br	25954 <alt_msgdma_prefetcher_add_standard_desc_to_list+0xe0>
   258d0:	e0bffe17 	ldw	r2,-8(fp)
   258d4:	10800017 	ldw	r2,0(r2)
   258d8:	e0fffd17 	ldw	r3,-12(fp)
   258dc:	1880021e 	bne	r3,r2,258e8 <alt_msgdma_prefetcher_add_standard_desc_to_list+0x74>
   258e0:	00bffa84 	movi	r2,-22
   258e4:	00001b06 	br	25954 <alt_msgdma_prefetcher_add_standard_desc_to_list+0xe0>
   258e8:	e0bffe17 	ldw	r2,-8(fp)
   258ec:	10800017 	ldw	r2,0(r2)
   258f0:	e0bfff15 	stw	r2,-4(fp)
   258f4:	00000906 	br	2591c <alt_msgdma_prefetcher_add_standard_desc_to_list+0xa8>
   258f8:	e0bfff17 	ldw	r2,-4(fp)
   258fc:	10c00317 	ldw	r3,12(r2)
   25900:	e0bffd17 	ldw	r2,-12(fp)
   25904:	1880021e 	bne	r3,r2,25910 <alt_msgdma_prefetcher_add_standard_desc_to_list+0x9c>
   25908:	00bffa84 	movi	r2,-22
   2590c:	00001106 	br	25954 <alt_msgdma_prefetcher_add_standard_desc_to_list+0xe0>
   25910:	e0bfff17 	ldw	r2,-4(fp)
   25914:	10800317 	ldw	r2,12(r2)
   25918:	e0bfff15 	stw	r2,-4(fp)
   2591c:	e0bfff17 	ldw	r2,-4(fp)
   25920:	10800317 	ldw	r2,12(r2)
   25924:	e0fffe17 	ldw	r3,-8(fp)
   25928:	18c00017 	ldw	r3,0(r3)
   2592c:	10fff21e 	bne	r2,r3,258f8 <alt_msgdma_prefetcher_add_standard_desc_to_list+0x84>
   25930:	e0fffd17 	ldw	r3,-12(fp)
   25934:	e0bfff17 	ldw	r2,-4(fp)
   25938:	10c00315 	stw	r3,12(r2)
   2593c:	e0bffe17 	ldw	r2,-8(fp)
   25940:	10800017 	ldw	r2,0(r2)
   25944:	1007883a 	mov	r3,r2
   25948:	e0bffd17 	ldw	r2,-12(fp)
   2594c:	10c00315 	stw	r3,12(r2)
   25950:	0005883a 	mov	r2,zero
   25954:	e037883a 	mov	sp,fp
   25958:	df000017 	ldw	fp,0(sp)
   2595c:	dec00104 	addi	sp,sp,4
   25960:	f800283a 	ret

00025964 <alt_msgdma_prefetcher_add_extended_desc_to_list>:
   25964:	defff804 	addi	sp,sp,-32
   25968:	df000715 	stw	fp,28(sp)
   2596c:	df000704 	addi	fp,sp,28
   25970:	e13ffa15 	stw	r4,-24(fp)
   25974:	e17ff915 	stw	r5,-28(fp)
   25978:	e13ff917 	ldw	r4,-28(fp)
   2597c:	2000021e 	bne	r4,zero,25988 <alt_msgdma_prefetcher_add_extended_desc_to_list+0x24>
   25980:	00bffa84 	movi	r2,-22
   25984:	00005906 	br	25aec <alt_msgdma_prefetcher_add_extended_desc_to_list+0x188>
   25988:	e13ff917 	ldw	r4,-28(fp)
   2598c:	2015883a 	mov	r10,r4
   25990:	0017883a 	mov	r11,zero
   25994:	e2bffb15 	stw	r10,-20(fp)
   25998:	e2fffc15 	stw	r11,-16(fp)
   2599c:	e13ff917 	ldw	r4,-28(fp)
   259a0:	21400317 	ldw	r5,12(r4)
   259a4:	e13ffb17 	ldw	r4,-20(fp)
   259a8:	2900041e 	bne	r5,r4,259bc <alt_msgdma_prefetcher_add_extended_desc_to_list+0x58>
   259ac:	e13ff917 	ldw	r4,-28(fp)
   259b0:	21400b17 	ldw	r5,44(r4)
   259b4:	e13ffc17 	ldw	r4,-16(fp)
   259b8:	29000226 	beq	r5,r4,259c4 <alt_msgdma_prefetcher_add_extended_desc_to_list+0x60>
   259bc:	00bffa84 	movi	r2,-22
   259c0:	00004a06 	br	25aec <alt_msgdma_prefetcher_add_extended_desc_to_list+0x188>
   259c4:	e13ffa17 	ldw	r4,-24(fp)
   259c8:	21000017 	ldw	r4,0(r4)
   259cc:	2000051e 	bne	r4,zero,259e4 <alt_msgdma_prefetcher_add_extended_desc_to_list+0x80>
   259d0:	e0bffa17 	ldw	r2,-24(fp)
   259d4:	e0fff917 	ldw	r3,-28(fp)
   259d8:	10c00015 	stw	r3,0(r2)
   259dc:	0005883a 	mov	r2,zero
   259e0:	00004206 	br	25aec <alt_msgdma_prefetcher_add_extended_desc_to_list+0x188>
   259e4:	e13ffa17 	ldw	r4,-24(fp)
   259e8:	21000017 	ldw	r4,0(r4)
   259ec:	e17ff917 	ldw	r5,-28(fp)
   259f0:	2900021e 	bne	r5,r4,259fc <alt_msgdma_prefetcher_add_extended_desc_to_list+0x98>
   259f4:	00bffa84 	movi	r2,-22
   259f8:	00003c06 	br	25aec <alt_msgdma_prefetcher_add_extended_desc_to_list+0x188>
   259fc:	e13ffa17 	ldw	r4,-24(fp)
   25a00:	21000017 	ldw	r4,0(r4)
   25a04:	e13fff15 	stw	r4,-4(fp)
   25a08:	e13ffa17 	ldw	r4,-24(fp)
   25a0c:	21000017 	ldw	r4,0(r4)
   25a10:	2011883a 	mov	r8,r4
   25a14:	0013883a 	mov	r9,zero
   25a18:	e23ffd15 	stw	r8,-12(fp)
   25a1c:	e27ffe15 	stw	r9,-8(fp)
   25a20:	00001806 	br	25a84 <alt_msgdma_prefetcher_add_extended_desc_to_list+0x120>
   25a24:	e13ff917 	ldw	r4,-28(fp)
   25a28:	200d883a 	mov	r6,r4
   25a2c:	000f883a 	mov	r7,zero
   25a30:	e1bffb15 	stw	r6,-20(fp)
   25a34:	e1fffc15 	stw	r7,-16(fp)
   25a38:	e13fff17 	ldw	r4,-4(fp)
   25a3c:	21400317 	ldw	r5,12(r4)
   25a40:	e13ffb17 	ldw	r4,-20(fp)
   25a44:	2900061e 	bne	r5,r4,25a60 <alt_msgdma_prefetcher_add_extended_desc_to_list+0xfc>
   25a48:	e13fff17 	ldw	r4,-4(fp)
   25a4c:	21400b17 	ldw	r5,44(r4)
   25a50:	e13ffc17 	ldw	r4,-16(fp)
   25a54:	2900021e 	bne	r5,r4,25a60 <alt_msgdma_prefetcher_add_extended_desc_to_list+0xfc>
   25a58:	00bffa84 	movi	r2,-22
   25a5c:	00002306 	br	25aec <alt_msgdma_prefetcher_add_extended_desc_to_list+0x188>
   25a60:	e13fff17 	ldw	r4,-4(fp)
   25a64:	21000317 	ldw	r4,12(r4)
   25a68:	e13ffb15 	stw	r4,-20(fp)
   25a6c:	e13fff17 	ldw	r4,-4(fp)
   25a70:	21000b17 	ldw	r4,44(r4)
   25a74:	e13ffc15 	stw	r4,-16(fp)
   25a78:	e13ffb17 	ldw	r4,-20(fp)
   25a7c:	e17ffc17 	ldw	r5,-16(fp)
   25a80:	e13fff15 	stw	r4,-4(fp)
   25a84:	e13fff17 	ldw	r4,-4(fp)
   25a88:	21400317 	ldw	r5,12(r4)
   25a8c:	e13ffd17 	ldw	r4,-12(fp)
   25a90:	293fe41e 	bne	r5,r4,25a24 <alt_msgdma_prefetcher_add_extended_desc_to_list+0xc0>
   25a94:	e13fff17 	ldw	r4,-4(fp)
   25a98:	21400b17 	ldw	r5,44(r4)
   25a9c:	e13ffe17 	ldw	r4,-8(fp)
   25aa0:	293fe01e 	bne	r5,r4,25a24 <alt_msgdma_prefetcher_add_extended_desc_to_list+0xc0>
   25aa4:	e13ff917 	ldw	r4,-28(fp)
   25aa8:	2005883a 	mov	r2,r4
   25aac:	0007883a 	mov	r3,zero
   25ab0:	e0bffb15 	stw	r2,-20(fp)
   25ab4:	e0fffc15 	stw	r3,-16(fp)
   25ab8:	e0fffb17 	ldw	r3,-20(fp)
   25abc:	e0bfff17 	ldw	r2,-4(fp)
   25ac0:	10c00315 	stw	r3,12(r2)
   25ac4:	e0fffc17 	ldw	r3,-16(fp)
   25ac8:	e0bfff17 	ldw	r2,-4(fp)
   25acc:	10c00b15 	stw	r3,44(r2)
   25ad0:	e0fffd17 	ldw	r3,-12(fp)
   25ad4:	e0bff917 	ldw	r2,-28(fp)
   25ad8:	10c00315 	stw	r3,12(r2)
   25adc:	e0fffe17 	ldw	r3,-8(fp)
   25ae0:	e0bff917 	ldw	r2,-28(fp)
   25ae4:	10c00b15 	stw	r3,44(r2)
   25ae8:	0005883a 	mov	r2,zero
   25aec:	e037883a 	mov	sp,fp
   25af0:	df000017 	ldw	fp,0(sp)
   25af4:	dec00104 	addi	sp,sp,4
   25af8:	f800283a 	ret

00025afc <alt_msgdma_prefetcher_set_std_list_own_by_hw_bits>:
   25afc:	defff804 	addi	sp,sp,-32
   25b00:	dfc00715 	stw	ra,28(sp)
   25b04:	df000615 	stw	fp,24(sp)
   25b08:	df000604 	addi	fp,sp,24
   25b0c:	e13ffc15 	stw	r4,-16(fp)
   25b10:	2805883a 	mov	r2,r5
   25b14:	3007883a 	mov	r3,r6
   25b18:	e0bffb05 	stb	r2,-20(fp)
   25b1c:	1805883a 	mov	r2,r3
   25b20:	e0bffa05 	stb	r2,-24(fp)
   25b24:	e03ffd15 	stw	zero,-12(fp)
   25b28:	e03ffe15 	stw	zero,-8(fp)
   25b2c:	e0bffc17 	ldw	r2,-16(fp)
   25b30:	1000021e 	bne	r2,zero,25b3c <alt_msgdma_prefetcher_set_std_list_own_by_hw_bits+0x40>
   25b34:	00bffa84 	movi	r2,-22
   25b38:	00002f06 	br	25bf8 <alt_msgdma_prefetcher_set_std_list_own_by_hw_bits+0xfc>
   25b3c:	e0bffc17 	ldw	r2,-16(fp)
   25b40:	e0bfff15 	stw	r2,-4(fp)
   25b44:	00000d06 	br	25b7c <alt_msgdma_prefetcher_set_std_list_own_by_hw_bits+0x80>
   25b48:	e0bfff17 	ldw	r2,-4(fp)
   25b4c:	10800717 	ldw	r2,28(r2)
   25b50:	e0bffd15 	stw	r2,-12(fp)
   25b54:	e0bffd17 	ldw	r2,-12(fp)
   25b58:	10d00034 	orhi	r3,r2,16384
   25b5c:	e0bfff17 	ldw	r2,-4(fp)
   25b60:	10c00715 	stw	r3,28(r2)
   25b64:	e0bfff17 	ldw	r2,-4(fp)
   25b68:	10800317 	ldw	r2,12(r2)
   25b6c:	e0bfff15 	stw	r2,-4(fp)
   25b70:	e0bffe17 	ldw	r2,-8(fp)
   25b74:	10800044 	addi	r2,r2,1
   25b78:	e0bffe15 	stw	r2,-8(fp)
   25b7c:	e0bfff17 	ldw	r2,-4(fp)
   25b80:	10c00317 	ldw	r3,12(r2)
   25b84:	e0bffc17 	ldw	r2,-16(fp)
   25b88:	18bfef1e 	bne	r3,r2,25b48 <alt_msgdma_prefetcher_set_std_list_own_by_hw_bits+0x4c>
   25b8c:	e0bfff17 	ldw	r2,-4(fp)
   25b90:	10800717 	ldw	r2,28(r2)
   25b94:	e0bffd15 	stw	r2,-12(fp)
   25b98:	e0bffb03 	ldbu	r2,-20(fp)
   25b9c:	10000726 	beq	r2,zero,25bbc <alt_msgdma_prefetcher_set_std_list_own_by_hw_bits+0xc0>
   25ba0:	e0fffd17 	ldw	r3,-12(fp)
   25ba4:	00b00034 	movhi	r2,49152
   25ba8:	10bfffc4 	addi	r2,r2,-1
   25bac:	1886703a 	and	r3,r3,r2
   25bb0:	e0bfff17 	ldw	r2,-4(fp)
   25bb4:	10c00715 	stw	r3,28(r2)
   25bb8:	00000406 	br	25bcc <alt_msgdma_prefetcher_set_std_list_own_by_hw_bits+0xd0>
   25bbc:	e0bffd17 	ldw	r2,-12(fp)
   25bc0:	10d00034 	orhi	r3,r2,16384
   25bc4:	e0bfff17 	ldw	r2,-4(fp)
   25bc8:	10c00715 	stw	r3,28(r2)
   25bcc:	e0bffe17 	ldw	r2,-8(fp)
   25bd0:	10800044 	addi	r2,r2,1
   25bd4:	e0bffe15 	stw	r2,-8(fp)
   25bd8:	e0bffa03 	ldbu	r2,-24(fp)
   25bdc:	10000526 	beq	r2,zero,25bf4 <alt_msgdma_prefetcher_set_std_list_own_by_hw_bits+0xf8>
   25be0:	e0bffe17 	ldw	r2,-8(fp)
   25be4:	1004917a 	slli	r2,r2,5
   25be8:	100b883a 	mov	r5,r2
   25bec:	e13ffc17 	ldw	r4,-16(fp)
   25bf0:	00266f40 	call	266f4 <alt_dcache_flush>
   25bf4:	0005883a 	mov	r2,zero
   25bf8:	e037883a 	mov	sp,fp
   25bfc:	dfc00117 	ldw	ra,4(sp)
   25c00:	df000017 	ldw	fp,0(sp)
   25c04:	dec00204 	addi	sp,sp,8
   25c08:	f800283a 	ret

00025c0c <alt_msgdma_prefetcher_set_extd_list_own_by_hw_bits>:
   25c0c:	defff404 	addi	sp,sp,-48
   25c10:	dfc00b15 	stw	ra,44(sp)
   25c14:	df000a15 	stw	fp,40(sp)
   25c18:	df000a04 	addi	fp,sp,40
   25c1c:	e13ff815 	stw	r4,-32(fp)
   25c20:	2809883a 	mov	r4,r5
   25c24:	300b883a 	mov	r5,r6
   25c28:	e13ff705 	stb	r4,-36(fp)
   25c2c:	2809883a 	mov	r4,r5
   25c30:	e13ff605 	stb	r4,-40(fp)
   25c34:	e03ffd15 	stw	zero,-12(fp)
   25c38:	e03ffe15 	stw	zero,-8(fp)
   25c3c:	e13ff817 	ldw	r4,-32(fp)
   25c40:	2000021e 	bne	r4,zero,25c4c <alt_msgdma_prefetcher_set_extd_list_own_by_hw_bits+0x40>
   25c44:	00bffa84 	movi	r2,-22
   25c48:	00003e06 	br	25d44 <alt_msgdma_prefetcher_set_extd_list_own_by_hw_bits+0x138>
   25c4c:	e13ff817 	ldw	r4,-32(fp)
   25c50:	e13fff15 	stw	r4,-4(fp)
   25c54:	e13ff817 	ldw	r4,-32(fp)
   25c58:	2005883a 	mov	r2,r4
   25c5c:	0007883a 	mov	r3,zero
   25c60:	e0bffb15 	stw	r2,-20(fp)
   25c64:	e0fffc15 	stw	r3,-16(fp)
   25c68:	00001306 	br	25cb8 <alt_msgdma_prefetcher_set_extd_list_own_by_hw_bits+0xac>
   25c6c:	e0bfff17 	ldw	r2,-4(fp)
   25c70:	10800f17 	ldw	r2,60(r2)
   25c74:	e0bffd15 	stw	r2,-12(fp)
   25c78:	e0bffd17 	ldw	r2,-12(fp)
   25c7c:	10d00034 	orhi	r3,r2,16384
   25c80:	e0bfff17 	ldw	r2,-4(fp)
   25c84:	10c00f15 	stw	r3,60(r2)
   25c88:	e0bfff17 	ldw	r2,-4(fp)
   25c8c:	10800317 	ldw	r2,12(r2)
   25c90:	e0bff915 	stw	r2,-28(fp)
   25c94:	e0bfff17 	ldw	r2,-4(fp)
   25c98:	10800b17 	ldw	r2,44(r2)
   25c9c:	e0bffa15 	stw	r2,-24(fp)
   25ca0:	e0bff917 	ldw	r2,-28(fp)
   25ca4:	e0fffa17 	ldw	r3,-24(fp)
   25ca8:	e0bfff15 	stw	r2,-4(fp)
   25cac:	e0bffe17 	ldw	r2,-8(fp)
   25cb0:	10800044 	addi	r2,r2,1
   25cb4:	e0bffe15 	stw	r2,-8(fp)
   25cb8:	e0bfff17 	ldw	r2,-4(fp)
   25cbc:	10c00317 	ldw	r3,12(r2)
   25cc0:	e0bffb17 	ldw	r2,-20(fp)
   25cc4:	18bfe91e 	bne	r3,r2,25c6c <alt_msgdma_prefetcher_set_extd_list_own_by_hw_bits+0x60>
   25cc8:	e0bfff17 	ldw	r2,-4(fp)
   25ccc:	10c00b17 	ldw	r3,44(r2)
   25cd0:	e0bffc17 	ldw	r2,-16(fp)
   25cd4:	18bfe51e 	bne	r3,r2,25c6c <alt_msgdma_prefetcher_set_extd_list_own_by_hw_bits+0x60>
   25cd8:	e0bfff17 	ldw	r2,-4(fp)
   25cdc:	10800f17 	ldw	r2,60(r2)
   25ce0:	e0bffd15 	stw	r2,-12(fp)
   25ce4:	e0bff703 	ldbu	r2,-36(fp)
   25ce8:	10000726 	beq	r2,zero,25d08 <alt_msgdma_prefetcher_set_extd_list_own_by_hw_bits+0xfc>
   25cec:	e0fffd17 	ldw	r3,-12(fp)
   25cf0:	00b00034 	movhi	r2,49152
   25cf4:	10bfffc4 	addi	r2,r2,-1
   25cf8:	1886703a 	and	r3,r3,r2
   25cfc:	e0bfff17 	ldw	r2,-4(fp)
   25d00:	10c00f15 	stw	r3,60(r2)
   25d04:	00000406 	br	25d18 <alt_msgdma_prefetcher_set_extd_list_own_by_hw_bits+0x10c>
   25d08:	e0bffd17 	ldw	r2,-12(fp)
   25d0c:	10d00034 	orhi	r3,r2,16384
   25d10:	e0bfff17 	ldw	r2,-4(fp)
   25d14:	10c00f15 	stw	r3,60(r2)
   25d18:	e0bffe17 	ldw	r2,-8(fp)
   25d1c:	10800044 	addi	r2,r2,1
   25d20:	e0bffe15 	stw	r2,-8(fp)
   25d24:	e0bff603 	ldbu	r2,-40(fp)
   25d28:	10000526 	beq	r2,zero,25d40 <alt_msgdma_prefetcher_set_extd_list_own_by_hw_bits+0x134>
   25d2c:	e0bffe17 	ldw	r2,-8(fp)
   25d30:	100491ba 	slli	r2,r2,6
   25d34:	100b883a 	mov	r5,r2
   25d38:	e13ff817 	ldw	r4,-32(fp)
   25d3c:	00266f40 	call	266f4 <alt_dcache_flush>
   25d40:	0005883a 	mov	r2,zero
   25d44:	e037883a 	mov	sp,fp
   25d48:	dfc00117 	ldw	ra,4(sp)
   25d4c:	df000017 	ldw	fp,0(sp)
   25d50:	dec00204 	addi	sp,sp,8
   25d54:	f800283a 	ret

00025d58 <alt_msgdma_start_prefetcher_with_list_addr>:
   25d58:	deffef04 	addi	sp,sp,-68
   25d5c:	df001015 	stw	fp,64(sp)
   25d60:	df001004 	addi	fp,sp,64
   25d64:	e13ff415 	stw	r4,-48(fp)
   25d68:	e17ff215 	stw	r5,-56(fp)
   25d6c:	e1bff315 	stw	r6,-52(fp)
   25d70:	3807883a 	mov	r3,r7
   25d74:	e0800117 	ldw	r2,4(fp)
   25d78:	e0fff105 	stb	r3,-60(fp)
   25d7c:	e0bff005 	stb	r2,-64(fp)
   25d80:	e03fff15 	stw	zero,-4(fp)
   25d84:	e03ffe15 	stw	zero,-8(fp)
   25d88:	e03ffd15 	stw	zero,-12(fp)
   25d8c:	e0bff217 	ldw	r2,-56(fp)
   25d90:	e0bff515 	stw	r2,-44(fp)
   25d94:	e0bff317 	ldw	r2,-52(fp)
   25d98:	e0bff615 	stw	r2,-40(fp)
   25d9c:	e0bff417 	ldw	r2,-48(fp)
   25da0:	10800617 	ldw	r2,24(r2)
   25da4:	10800037 	ldwio	r2,0(r2)
   25da8:	e0bfff15 	stw	r2,-4(fp)
   25dac:	e0bfff17 	ldw	r2,-4(fp)
   25db0:	1080004c 	andi	r2,r2,1
   25db4:	10000226 	beq	r2,zero,25dc0 <alt_msgdma_start_prefetcher_with_list_addr+0x68>
   25db8:	00bffc04 	movi	r2,-16
   25dbc:	00009406 	br	26010 <alt_msgdma_start_prefetcher_with_list_addr+0x2b8>
   25dc0:	00800804 	movi	r2,32
   25dc4:	e0bffe15 	stw	r2,-8(fp)
   25dc8:	0005303a 	rdctl	r2,status
   25dcc:	e0bffb15 	stw	r2,-20(fp)
   25dd0:	e0fffb17 	ldw	r3,-20(fp)
   25dd4:	00bfff84 	movi	r2,-2
   25dd8:	1884703a 	and	r2,r3,r2
   25ddc:	1001703a 	wrctl	status,r2
   25de0:	e0bffb17 	ldw	r2,-20(fp)
   25de4:	e0bffd15 	stw	r2,-12(fp)
   25de8:	e0bff417 	ldw	r2,-48(fp)
   25dec:	10800317 	ldw	r2,12(r2)
   25df0:	10800104 	addi	r2,r2,4
   25df4:	e0fffe17 	ldw	r3,-8(fp)
   25df8:	10c00035 	stwio	r3,0(r2)
   25dfc:	e0bff417 	ldw	r2,-48(fp)
   25e00:	10800317 	ldw	r2,12(r2)
   25e04:	e0fff417 	ldw	r3,-48(fp)
   25e08:	18c00317 	ldw	r3,12(r3)
   25e0c:	18c00037 	ldwio	r3,0(r3)
   25e10:	10c00035 	stwio	r3,0(r2)
   25e14:	e0bffd17 	ldw	r2,-12(fp)
   25e18:	e0bffc15 	stw	r2,-16(fp)
   25e1c:	e0bffc17 	ldw	r2,-16(fp)
   25e20:	1001703a 	wrctl	status,r2
   25e24:	0001883a 	nop
   25e28:	e0bff417 	ldw	r2,-48(fp)
   25e2c:	10800b17 	ldw	r2,44(r2)
   25e30:	10002326 	beq	r2,zero,25ec0 <alt_msgdma_start_prefetcher_with_list_addr+0x168>
   25e34:	e0bff417 	ldw	r2,-48(fp)
   25e38:	10c00d17 	ldw	r3,52(r2)
   25e3c:	e0bffe17 	ldw	r2,-8(fp)
   25e40:	1884b03a 	or	r2,r3,r2
   25e44:	10800514 	ori	r2,r2,20
   25e48:	e0bffe15 	stw	r2,-8(fp)
   25e4c:	e0fffe17 	ldw	r3,-8(fp)
   25e50:	00bff7c4 	movi	r2,-33
   25e54:	1884703a 	and	r2,r3,r2
   25e58:	e0bffe15 	stw	r2,-8(fp)
   25e5c:	e0bfff17 	ldw	r2,-4(fp)
   25e60:	10800214 	ori	r2,r2,8
   25e64:	e0bfff15 	stw	r2,-4(fp)
   25e68:	0005303a 	rdctl	r2,status
   25e6c:	e0bff915 	stw	r2,-28(fp)
   25e70:	e0fff917 	ldw	r3,-28(fp)
   25e74:	00bfff84 	movi	r2,-2
   25e78:	1884703a 	and	r2,r3,r2
   25e7c:	1001703a 	wrctl	status,r2
   25e80:	e0bff917 	ldw	r2,-28(fp)
   25e84:	e0bffd15 	stw	r2,-12(fp)
   25e88:	e0bff417 	ldw	r2,-48(fp)
   25e8c:	10800317 	ldw	r2,12(r2)
   25e90:	10800104 	addi	r2,r2,4
   25e94:	e0fffe17 	ldw	r3,-8(fp)
   25e98:	10c00035 	stwio	r3,0(r2)
   25e9c:	e0bff417 	ldw	r2,-48(fp)
   25ea0:	10800617 	ldw	r2,24(r2)
   25ea4:	e0ffff17 	ldw	r3,-4(fp)
   25ea8:	10c00035 	stwio	r3,0(r2)
   25eac:	e0bffd17 	ldw	r2,-12(fp)
   25eb0:	e0bffa15 	stw	r2,-24(fp)
   25eb4:	e0bffa17 	ldw	r2,-24(fp)
   25eb8:	1001703a 	wrctl	status,r2
   25ebc:	00002406 	br	25f50 <alt_msgdma_start_prefetcher_with_list_addr+0x1f8>
   25ec0:	e0bff417 	ldw	r2,-48(fp)
   25ec4:	10c00d17 	ldw	r3,52(r2)
   25ec8:	e0bffe17 	ldw	r2,-8(fp)
   25ecc:	1884b03a 	or	r2,r3,r2
   25ed0:	10800114 	ori	r2,r2,4
   25ed4:	e0bffe15 	stw	r2,-8(fp)
   25ed8:	e0fffe17 	ldw	r3,-8(fp)
   25edc:	00bff3c4 	movi	r2,-49
   25ee0:	1884703a 	and	r2,r3,r2
   25ee4:	e0bffe15 	stw	r2,-8(fp)
   25ee8:	e0ffff17 	ldw	r3,-4(fp)
   25eec:	00bffdc4 	movi	r2,-9
   25ef0:	1884703a 	and	r2,r3,r2
   25ef4:	e0bfff15 	stw	r2,-4(fp)
   25ef8:	0005303a 	rdctl	r2,status
   25efc:	e0bff715 	stw	r2,-36(fp)
   25f00:	e0fff717 	ldw	r3,-36(fp)
   25f04:	00bfff84 	movi	r2,-2
   25f08:	1884703a 	and	r2,r3,r2
   25f0c:	1001703a 	wrctl	status,r2
   25f10:	e0bff717 	ldw	r2,-36(fp)
   25f14:	e0bffd15 	stw	r2,-12(fp)
   25f18:	e0bff417 	ldw	r2,-48(fp)
   25f1c:	10800317 	ldw	r2,12(r2)
   25f20:	10800104 	addi	r2,r2,4
   25f24:	e0fffe17 	ldw	r3,-8(fp)
   25f28:	10c00035 	stwio	r3,0(r2)
   25f2c:	e0bff417 	ldw	r2,-48(fp)
   25f30:	10800617 	ldw	r2,24(r2)
   25f34:	e0ffff17 	ldw	r3,-4(fp)
   25f38:	10c00035 	stwio	r3,0(r2)
   25f3c:	e0bffd17 	ldw	r2,-12(fp)
   25f40:	e0bff815 	stw	r2,-32(fp)
   25f44:	e0bff817 	ldw	r2,-32(fp)
   25f48:	1001703a 	wrctl	status,r2
   25f4c:	0001883a 	nop
   25f50:	e0bff417 	ldw	r2,-48(fp)
   25f54:	10800617 	ldw	r2,24(r2)
   25f58:	10800104 	addi	r2,r2,4
   25f5c:	e0fff517 	ldw	r3,-44(fp)
   25f60:	10c00035 	stwio	r3,0(r2)
   25f64:	e0bff417 	ldw	r2,-48(fp)
   25f68:	10800617 	ldw	r2,24(r2)
   25f6c:	10800204 	addi	r2,r2,8
   25f70:	e0fff617 	ldw	r3,-40(fp)
   25f74:	10c00035 	stwio	r3,0(r2)
   25f78:	e0bff103 	ldbu	r2,-60(fp)
   25f7c:	10000426 	beq	r2,zero,25f90 <alt_msgdma_start_prefetcher_with_list_addr+0x238>
   25f80:	e0bfff17 	ldw	r2,-4(fp)
   25f84:	10800414 	ori	r2,r2,16
   25f88:	e0bfff15 	stw	r2,-4(fp)
   25f8c:	00000406 	br	25fa0 <alt_msgdma_start_prefetcher_with_list_addr+0x248>
   25f90:	e0ffff17 	ldw	r3,-4(fp)
   25f94:	00bffbc4 	movi	r2,-17
   25f98:	1884703a 	and	r2,r3,r2
   25f9c:	e0bfff15 	stw	r2,-4(fp)
   25fa0:	e0bff003 	ldbu	r2,-64(fp)
   25fa4:	10000e26 	beq	r2,zero,25fe0 <alt_msgdma_start_prefetcher_with_list_addr+0x288>
   25fa8:	e0bfff17 	ldw	r2,-4(fp)
   25fac:	10800094 	ori	r2,r2,2
   25fb0:	e0bfff15 	stw	r2,-4(fp)
   25fb4:	e0bff417 	ldw	r2,-48(fp)
   25fb8:	10800617 	ldw	r2,24(r2)
   25fbc:	10800304 	addi	r2,r2,12
   25fc0:	10800037 	ldwio	r2,0(r2)
   25fc4:	10000a1e 	bne	r2,zero,25ff0 <alt_msgdma_start_prefetcher_with_list_addr+0x298>
   25fc8:	e0bff417 	ldw	r2,-48(fp)
   25fcc:	10800617 	ldw	r2,24(r2)
   25fd0:	10800304 	addi	r2,r2,12
   25fd4:	00c03fc4 	movi	r3,255
   25fd8:	10c00035 	stwio	r3,0(r2)
   25fdc:	00000406 	br	25ff0 <alt_msgdma_start_prefetcher_with_list_addr+0x298>
   25fe0:	e0ffff17 	ldw	r3,-4(fp)
   25fe4:	00bfff44 	movi	r2,-3
   25fe8:	1884703a 	and	r2,r3,r2
   25fec:	e0bfff15 	stw	r2,-4(fp)
   25ff0:	e0bfff17 	ldw	r2,-4(fp)
   25ff4:	10800054 	ori	r2,r2,1
   25ff8:	e0bfff15 	stw	r2,-4(fp)
   25ffc:	e0bff417 	ldw	r2,-48(fp)
   26000:	10800617 	ldw	r2,24(r2)
   26004:	e0ffff17 	ldw	r3,-4(fp)
   26008:	10c00035 	stwio	r3,0(r2)
   2600c:	0005883a 	mov	r2,zero
   26010:	e037883a 	mov	sp,fp
   26014:	df000017 	ldw	fp,0(sp)
   26018:	dec00104 	addi	sp,sp,4
   2601c:	f800283a 	ret

00026020 <alt_msgdma_start_prefetcher_with_std_desc_list>:
   26020:	defff504 	addi	sp,sp,-44
   26024:	dfc00a15 	stw	ra,40(sp)
   26028:	df000915 	stw	fp,36(sp)
   2602c:	dc400815 	stw	r17,32(sp)
   26030:	dc000715 	stw	r16,28(sp)
   26034:	df000904 	addi	fp,sp,36
   26038:	e13ffd15 	stw	r4,-12(fp)
   2603c:	e17ffc15 	stw	r5,-16(fp)
   26040:	3009883a 	mov	r4,r6
   26044:	380b883a 	mov	r5,r7
   26048:	e0c00217 	ldw	r3,8(fp)
   2604c:	e0800317 	ldw	r2,12(fp)
   26050:	e13ffb05 	stb	r4,-20(fp)
   26054:	2809883a 	mov	r4,r5
   26058:	e13ffa05 	stb	r4,-24(fp)
   2605c:	e0fff905 	stb	r3,-28(fp)
   26060:	e0bff805 	stb	r2,-32(fp)
   26064:	e0bff903 	ldbu	r2,-28(fp)
   26068:	e0fff803 	ldbu	r3,-32(fp)
   2606c:	180d883a 	mov	r6,r3
   26070:	100b883a 	mov	r5,r2
   26074:	e13ffc17 	ldw	r4,-16(fp)
   26078:	0025afc0 	call	25afc <alt_msgdma_prefetcher_set_std_list_own_by_hw_bits>
   2607c:	10000226 	beq	r2,zero,26088 <alt_msgdma_start_prefetcher_with_std_desc_list+0x68>
   26080:	00bffa84 	movi	r2,-22
   26084:	00000b06 	br	260b4 <alt_msgdma_start_prefetcher_with_std_desc_list+0x94>
   26088:	e0bffc17 	ldw	r2,-16(fp)
   2608c:	1021883a 	mov	r16,r2
   26090:	0023883a 	mov	r17,zero
   26094:	e0fffb03 	ldbu	r3,-20(fp)
   26098:	e0bffa03 	ldbu	r2,-24(fp)
   2609c:	d8800015 	stw	r2,0(sp)
   260a0:	180f883a 	mov	r7,r3
   260a4:	800b883a 	mov	r5,r16
   260a8:	880d883a 	mov	r6,r17
   260ac:	e13ffd17 	ldw	r4,-12(fp)
   260b0:	0025d580 	call	25d58 <alt_msgdma_start_prefetcher_with_list_addr>
   260b4:	e6fffe04 	addi	sp,fp,-8
   260b8:	dfc00317 	ldw	ra,12(sp)
   260bc:	df000217 	ldw	fp,8(sp)
   260c0:	dc400117 	ldw	r17,4(sp)
   260c4:	dc000017 	ldw	r16,0(sp)
   260c8:	dec00404 	addi	sp,sp,16
   260cc:	f800283a 	ret

000260d0 <alt_msgdma_start_prefetcher_with_extd_desc_list>:
   260d0:	defff504 	addi	sp,sp,-44
   260d4:	dfc00a15 	stw	ra,40(sp)
   260d8:	df000915 	stw	fp,36(sp)
   260dc:	dc400815 	stw	r17,32(sp)
   260e0:	dc000715 	stw	r16,28(sp)
   260e4:	df000904 	addi	fp,sp,36
   260e8:	e13ffd15 	stw	r4,-12(fp)
   260ec:	e17ffc15 	stw	r5,-16(fp)
   260f0:	3009883a 	mov	r4,r6
   260f4:	380b883a 	mov	r5,r7
   260f8:	e0c00217 	ldw	r3,8(fp)
   260fc:	e0800317 	ldw	r2,12(fp)
   26100:	e13ffb05 	stb	r4,-20(fp)
   26104:	2809883a 	mov	r4,r5
   26108:	e13ffa05 	stb	r4,-24(fp)
   2610c:	e0fff905 	stb	r3,-28(fp)
   26110:	e0bff805 	stb	r2,-32(fp)
   26114:	e0bff903 	ldbu	r2,-28(fp)
   26118:	e0fff803 	ldbu	r3,-32(fp)
   2611c:	180d883a 	mov	r6,r3
   26120:	100b883a 	mov	r5,r2
   26124:	e13ffc17 	ldw	r4,-16(fp)
   26128:	0025c0c0 	call	25c0c <alt_msgdma_prefetcher_set_extd_list_own_by_hw_bits>
   2612c:	10000226 	beq	r2,zero,26138 <alt_msgdma_start_prefetcher_with_extd_desc_list+0x68>
   26130:	00bffa84 	movi	r2,-22
   26134:	00000b06 	br	26164 <alt_msgdma_start_prefetcher_with_extd_desc_list+0x94>
   26138:	e0bffc17 	ldw	r2,-16(fp)
   2613c:	1021883a 	mov	r16,r2
   26140:	0023883a 	mov	r17,zero
   26144:	e0fffb03 	ldbu	r3,-20(fp)
   26148:	e0bffa03 	ldbu	r2,-24(fp)
   2614c:	d8800015 	stw	r2,0(sp)
   26150:	180f883a 	mov	r7,r3
   26154:	800b883a 	mov	r5,r16
   26158:	880d883a 	mov	r6,r17
   2615c:	e13ffd17 	ldw	r4,-12(fp)
   26160:	0025d580 	call	25d58 <alt_msgdma_start_prefetcher_with_list_addr>
   26164:	e6fffe04 	addi	sp,fp,-8
   26168:	dfc00317 	ldw	ra,12(sp)
   2616c:	df000217 	ldw	fp,8(sp)
   26170:	dc400117 	ldw	r17,4(sp)
   26174:	dc000017 	ldw	r16,0(sp)
   26178:	dec00404 	addi	sp,sp,16
   2617c:	f800283a 	ret

00026180 <alt_msgdma_open>:
   26180:	defffc04 	addi	sp,sp,-16
   26184:	dfc00315 	stw	ra,12(sp)
   26188:	df000215 	stw	fp,8(sp)
   2618c:	df000204 	addi	fp,sp,8
   26190:	e13ffe15 	stw	r4,-8(fp)
   26194:	e03fff15 	stw	zero,-4(fp)
   26198:	d1600904 	addi	r5,gp,-32732
   2619c:	e13ffe17 	ldw	r4,-8(fp)
   261a0:	00268f40 	call	268f4 <alt_find_dev>
   261a4:	e0bfff15 	stw	r2,-4(fp)
   261a8:	e0bfff17 	ldw	r2,-4(fp)
   261ac:	1000041e 	bne	r2,zero,261c0 <alt_msgdma_open+0x40>
   261b0:	00244ac0 	call	244ac <alt_get_errno>
   261b4:	1007883a 	mov	r3,r2
   261b8:	008004c4 	movi	r2,19
   261bc:	18800015 	stw	r2,0(r3)
   261c0:	e0bfff17 	ldw	r2,-4(fp)
   261c4:	e037883a 	mov	sp,fp
   261c8:	dfc00117 	ldw	ra,4(sp)
   261cc:	df000017 	ldw	fp,0(sp)
   261d0:	dec00204 	addi	sp,sp,8
   261d4:	f800283a 	ret

000261d8 <alt_msgdma_init>:
   261d8:	defff804 	addi	sp,sp,-32
   261dc:	dfc00715 	stw	ra,28(sp)
   261e0:	df000615 	stw	fp,24(sp)
   261e4:	df000604 	addi	fp,sp,24
   261e8:	e13ffd15 	stw	r4,-12(fp)
   261ec:	e17ffc15 	stw	r5,-16(fp)
   261f0:	e1bffb15 	stw	r6,-20(fp)
   261f4:	e0bffd17 	ldw	r2,-12(fp)
   261f8:	10801783 	ldbu	r2,94(r2)
   261fc:	10803fcc 	andi	r2,r2,255
   26200:	10000a26 	beq	r2,zero,2622c <alt_msgdma_init+0x54>
   26204:	e0bffd17 	ldw	r2,-12(fp)
   26208:	10800617 	ldw	r2,24(r2)
   2620c:	00c00104 	movi	r3,4
   26210:	10c00035 	stwio	r3,0(r2)
   26214:	0001883a 	nop
   26218:	e0bffd17 	ldw	r2,-12(fp)
   2621c:	10800617 	ldw	r2,24(r2)
   26220:	10800037 	ldwio	r2,0(r2)
   26224:	1080010c 	andi	r2,r2,4
   26228:	103ffb1e 	bne	r2,zero,26218 <alt_msgdma_init+0x40>
   2622c:	e0bffd17 	ldw	r2,-12(fp)
   26230:	10800317 	ldw	r2,12(r2)
   26234:	10800104 	addi	r2,r2,4
   26238:	00c00084 	movi	r3,2
   2623c:	10c00035 	stwio	r3,0(r2)
   26240:	0001883a 	nop
   26244:	e0bffd17 	ldw	r2,-12(fp)
   26248:	10800317 	ldw	r2,12(r2)
   2624c:	10800037 	ldwio	r2,0(r2)
   26250:	1080100c 	andi	r2,r2,64
   26254:	103ffb1e 	bne	r2,zero,26244 <alt_msgdma_init+0x6c>
   26258:	e0bffd17 	ldw	r2,-12(fp)
   2625c:	10800317 	ldw	r2,12(r2)
   26260:	10800104 	addi	r2,r2,4
   26264:	10800037 	ldwio	r2,0(r2)
   26268:	1007883a 	mov	r3,r2
   2626c:	00bffbc4 	movi	r2,-17
   26270:	1884703a 	and	r2,r3,r2
   26274:	e0bfff15 	stw	r2,-4(fp)
   26278:	e0bfff17 	ldw	r2,-4(fp)
   2627c:	10800814 	ori	r2,r2,32
   26280:	e0bfff15 	stw	r2,-4(fp)
   26284:	e0bffd17 	ldw	r2,-12(fp)
   26288:	10800317 	ldw	r2,12(r2)
   2628c:	10800104 	addi	r2,r2,4
   26290:	e0ffff17 	ldw	r3,-4(fp)
   26294:	10c00035 	stwio	r3,0(r2)
   26298:	e0bffd17 	ldw	r2,-12(fp)
   2629c:	10800317 	ldw	r2,12(r2)
   262a0:	e0fffd17 	ldw	r3,-12(fp)
   262a4:	18c00317 	ldw	r3,12(r3)
   262a8:	18c00037 	ldwio	r3,0(r3)
   262ac:	10c00035 	stwio	r3,0(r2)
   262b0:	e0bffd17 	ldw	r2,-12(fp)
   262b4:	10801783 	ldbu	r2,94(r2)
   262b8:	10803fcc 	andi	r2,r2,255
   262bc:	10000826 	beq	r2,zero,262e0 <alt_msgdma_init+0x108>
   262c0:	e0bffd17 	ldw	r2,-12(fp)
   262c4:	10800617 	ldw	r2,24(r2)
   262c8:	10800404 	addi	r2,r2,16
   262cc:	e0fffd17 	ldw	r3,-12(fp)
   262d0:	18c00617 	ldw	r3,24(r3)
   262d4:	18c00404 	addi	r3,r3,16
   262d8:	18c00037 	ldwio	r3,0(r3)
   262dc:	10c00035 	stwio	r3,0(r2)
   262e0:	d1600904 	addi	r5,gp,-32732
   262e4:	e13ffd17 	ldw	r4,-12(fp)
   262e8:	00267840 	call	26784 <alt_dev_llist_insert>
   262ec:	0005883a 	mov	r2,zero
   262f0:	e0bffe15 	stw	r2,-8(fp)
   262f4:	e0bffe17 	ldw	r2,-8(fp)
   262f8:	1000081e 	bne	r2,zero,2631c <alt_msgdma_init+0x144>
   262fc:	d8000015 	stw	zero,0(sp)
   26300:	e1fffd17 	ldw	r7,-12(fp)
   26304:	018000b4 	movhi	r6,2
   26308:	3191aa04 	addi	r6,r6,18088
   2630c:	e17ffb17 	ldw	r5,-20(fp)
   26310:	e13ffc17 	ldw	r4,-16(fp)
   26314:	0021c6c0 	call	21c6c <alt_ic_isr_register>
   26318:	00000406 	br	2632c <alt_msgdma_init+0x154>
   2631c:	010000b4 	movhi	r4,2
   26320:	211f2a04 	addi	r4,r4,31912
   26324:	0026e040 	call	26e04 <alt_printf>
   26328:	0001883a 	nop
   2632c:	e037883a 	mov	sp,fp
   26330:	dfc00117 	ldw	ra,4(sp)
   26334:	df000017 	ldw	fp,0(sp)
   26338:	dec00204 	addi	sp,sp,8
   2633c:	f800283a 	ret

00026340 <alt_msgdma_register_callback>:
   26340:	defffb04 	addi	sp,sp,-20
   26344:	df000415 	stw	fp,16(sp)
   26348:	df000404 	addi	fp,sp,16
   2634c:	e13fff15 	stw	r4,-4(fp)
   26350:	e17ffe15 	stw	r5,-8(fp)
   26354:	e1bffd15 	stw	r6,-12(fp)
   26358:	e1fffc15 	stw	r7,-16(fp)
   2635c:	e0bfff17 	ldw	r2,-4(fp)
   26360:	e0fffe17 	ldw	r3,-8(fp)
   26364:	10c00b15 	stw	r3,44(r2)
   26368:	e0bfff17 	ldw	r2,-4(fp)
   2636c:	e0fffc17 	ldw	r3,-16(fp)
   26370:	10c00c15 	stw	r3,48(r2)
   26374:	e0bfff17 	ldw	r2,-4(fp)
   26378:	e0fffd17 	ldw	r3,-12(fp)
   2637c:	10c00d15 	stw	r3,52(r2)
   26380:	0001883a 	nop
   26384:	e037883a 	mov	sp,fp
   26388:	df000017 	ldw	fp,0(sp)
   2638c:	dec00104 	addi	sp,sp,4
   26390:	f800283a 	ret

00026394 <alt_msgdma_standard_descriptor_async_transfer>:
   26394:	defffc04 	addi	sp,sp,-16
   26398:	dfc00315 	stw	ra,12(sp)
   2639c:	df000215 	stw	fp,8(sp)
   263a0:	df000204 	addi	fp,sp,8
   263a4:	e13fff15 	stw	r4,-4(fp)
   263a8:	e17ffe15 	stw	r5,-8(fp)
   263ac:	000d883a 	mov	r6,zero
   263b0:	e17ffe17 	ldw	r5,-8(fp)
   263b4:	e13fff17 	ldw	r4,-4(fp)
   263b8:	0024a100 	call	24a10 <alt_msgdma_descriptor_async_transfer>
   263bc:	e037883a 	mov	sp,fp
   263c0:	dfc00117 	ldw	ra,4(sp)
   263c4:	df000017 	ldw	fp,0(sp)
   263c8:	dec00204 	addi	sp,sp,8
   263cc:	f800283a 	ret

000263d0 <alt_msgdma_extended_descriptor_async_transfer>:
   263d0:	defffc04 	addi	sp,sp,-16
   263d4:	dfc00315 	stw	ra,12(sp)
   263d8:	df000215 	stw	fp,8(sp)
   263dc:	df000204 	addi	fp,sp,8
   263e0:	e13fff15 	stw	r4,-4(fp)
   263e4:	e17ffe15 	stw	r5,-8(fp)
   263e8:	e1bffe17 	ldw	r6,-8(fp)
   263ec:	000b883a 	mov	r5,zero
   263f0:	e13fff17 	ldw	r4,-4(fp)
   263f4:	0024a100 	call	24a10 <alt_msgdma_descriptor_async_transfer>
   263f8:	e037883a 	mov	sp,fp
   263fc:	dfc00117 	ldw	ra,4(sp)
   26400:	df000017 	ldw	fp,0(sp)
   26404:	dec00204 	addi	sp,sp,8
   26408:	f800283a 	ret

0002640c <alt_msgdma_standard_descriptor_sync_transfer>:
   2640c:	defffc04 	addi	sp,sp,-16
   26410:	dfc00315 	stw	ra,12(sp)
   26414:	df000215 	stw	fp,8(sp)
   26418:	df000204 	addi	fp,sp,8
   2641c:	e13fff15 	stw	r4,-4(fp)
   26420:	e17ffe15 	stw	r5,-8(fp)
   26424:	000d883a 	mov	r6,zero
   26428:	e17ffe17 	ldw	r5,-8(fp)
   2642c:	e13fff17 	ldw	r4,-4(fp)
   26430:	0024cec0 	call	24cec <alt_msgdma_descriptor_sync_transfer>
   26434:	e037883a 	mov	sp,fp
   26438:	dfc00117 	ldw	ra,4(sp)
   2643c:	df000017 	ldw	fp,0(sp)
   26440:	dec00204 	addi	sp,sp,8
   26444:	f800283a 	ret

00026448 <alt_msgdma_extended_descriptor_sync_transfer>:
   26448:	defffc04 	addi	sp,sp,-16
   2644c:	dfc00315 	stw	ra,12(sp)
   26450:	df000215 	stw	fp,8(sp)
   26454:	df000204 	addi	fp,sp,8
   26458:	e13fff15 	stw	r4,-4(fp)
   2645c:	e17ffe15 	stw	r5,-8(fp)
   26460:	e1bffe17 	ldw	r6,-8(fp)
   26464:	000b883a 	mov	r5,zero
   26468:	e13fff17 	ldw	r4,-4(fp)
   2646c:	0024cec0 	call	24cec <alt_msgdma_descriptor_sync_transfer>
   26470:	e037883a 	mov	sp,fp
   26474:	dfc00117 	ldw	ra,4(sp)
   26478:	df000017 	ldw	fp,0(sp)
   2647c:	dec00204 	addi	sp,sp,8
   26480:	f800283a 	ret

00026484 <alt_busy_sleep>:
   26484:	defffa04 	addi	sp,sp,-24
   26488:	dfc00515 	stw	ra,20(sp)
   2648c:	df000415 	stw	fp,16(sp)
   26490:	df000404 	addi	fp,sp,16
   26494:	e13ffc15 	stw	r4,-16(fp)
   26498:	00800244 	movi	r2,9
   2649c:	e0bffe15 	stw	r2,-8(fp)
   264a0:	014003f4 	movhi	r5,15
   264a4:	29509004 	addi	r5,r5,16960
   264a8:	e13ffe17 	ldw	r4,-8(fp)
   264ac:	00212e80 	call	212e8 <__mulsi3>
   264b0:	100b883a 	mov	r5,r2
   264b4:	0100ce34 	movhi	r4,824
   264b8:	213e6004 	addi	r4,r4,-1664
   264bc:	0021b8c0 	call	21b8c <__udivsi3>
   264c0:	100b883a 	mov	r5,r2
   264c4:	01200034 	movhi	r4,32768
   264c8:	213fffc4 	addi	r4,r4,-1
   264cc:	0021b8c0 	call	21b8c <__udivsi3>
   264d0:	100b883a 	mov	r5,r2
   264d4:	e13ffc17 	ldw	r4,-16(fp)
   264d8:	0021b8c0 	call	21b8c <__udivsi3>
   264dc:	e0bffd15 	stw	r2,-12(fp)
   264e0:	e0bffd17 	ldw	r2,-12(fp)
   264e4:	10002a26 	beq	r2,zero,26590 <alt_busy_sleep+0x10c>
   264e8:	e03fff15 	stw	zero,-4(fp)
   264ec:	00001706 	br	2654c <alt_busy_sleep+0xc8>
   264f0:	00a00034 	movhi	r2,32768
   264f4:	10bfffc4 	addi	r2,r2,-1
   264f8:	10bfffc4 	addi	r2,r2,-1
   264fc:	103ffe1e 	bne	r2,zero,264f8 <alt_busy_sleep+0x74>
   26500:	014003f4 	movhi	r5,15
   26504:	29509004 	addi	r5,r5,16960
   26508:	e13ffe17 	ldw	r4,-8(fp)
   2650c:	00212e80 	call	212e8 <__mulsi3>
   26510:	100b883a 	mov	r5,r2
   26514:	0100ce34 	movhi	r4,824
   26518:	213e6004 	addi	r4,r4,-1664
   2651c:	0021b8c0 	call	21b8c <__udivsi3>
   26520:	100b883a 	mov	r5,r2
   26524:	01200034 	movhi	r4,32768
   26528:	213fffc4 	addi	r4,r4,-1
   2652c:	0021b8c0 	call	21b8c <__udivsi3>
   26530:	1007883a 	mov	r3,r2
   26534:	e0bffc17 	ldw	r2,-16(fp)
   26538:	10c5c83a 	sub	r2,r2,r3
   2653c:	e0bffc15 	stw	r2,-16(fp)
   26540:	e0bfff17 	ldw	r2,-4(fp)
   26544:	10800044 	addi	r2,r2,1
   26548:	e0bfff15 	stw	r2,-4(fp)
   2654c:	e0ffff17 	ldw	r3,-4(fp)
   26550:	e0bffd17 	ldw	r2,-12(fp)
   26554:	18bfe616 	blt	r3,r2,264f0 <alt_busy_sleep+0x6c>
   26558:	014003f4 	movhi	r5,15
   2655c:	29509004 	addi	r5,r5,16960
   26560:	e13ffe17 	ldw	r4,-8(fp)
   26564:	00212e80 	call	212e8 <__mulsi3>
   26568:	100b883a 	mov	r5,r2
   2656c:	0100ce34 	movhi	r4,824
   26570:	213e6004 	addi	r4,r4,-1664
   26574:	0021b8c0 	call	21b8c <__udivsi3>
   26578:	e17ffc17 	ldw	r5,-16(fp)
   2657c:	1009883a 	mov	r4,r2
   26580:	00212e80 	call	212e8 <__mulsi3>
   26584:	10bfffc4 	addi	r2,r2,-1
   26588:	103ffe1e 	bne	r2,zero,26584 <alt_busy_sleep+0x100>
   2658c:	00000d06 	br	265c4 <alt_busy_sleep+0x140>
   26590:	014003f4 	movhi	r5,15
   26594:	29509004 	addi	r5,r5,16960
   26598:	e13ffe17 	ldw	r4,-8(fp)
   2659c:	00212e80 	call	212e8 <__mulsi3>
   265a0:	100b883a 	mov	r5,r2
   265a4:	0100ce34 	movhi	r4,824
   265a8:	213e6004 	addi	r4,r4,-1664
   265ac:	0021b8c0 	call	21b8c <__udivsi3>
   265b0:	e17ffc17 	ldw	r5,-16(fp)
   265b4:	1009883a 	mov	r4,r2
   265b8:	00212e80 	call	212e8 <__mulsi3>
   265bc:	10bfffc4 	addi	r2,r2,-1
   265c0:	00bffe16 	blt	zero,r2,265bc <alt_busy_sleep+0x138>
   265c4:	0005883a 	mov	r2,zero
   265c8:	e037883a 	mov	sp,fp
   265cc:	dfc00117 	ldw	ra,4(sp)
   265d0:	df000017 	ldw	fp,0(sp)
   265d4:	dec00204 	addi	sp,sp,8
   265d8:	f800283a 	ret

000265dc <alt_get_errno>:
   265dc:	defffe04 	addi	sp,sp,-8
   265e0:	dfc00115 	stw	ra,4(sp)
   265e4:	df000015 	stw	fp,0(sp)
   265e8:	d839883a 	mov	fp,sp
   265ec:	d0a01017 	ldw	r2,-32704(gp)
   265f0:	10000326 	beq	r2,zero,26600 <alt_get_errno+0x24>
   265f4:	d0a01017 	ldw	r2,-32704(gp)
   265f8:	103ee83a 	callr	r2
   265fc:	00000106 	br	26604 <alt_get_errno+0x28>
   26600:	d0a11c04 	addi	r2,gp,-31632
   26604:	e037883a 	mov	sp,fp
   26608:	dfc00117 	ldw	ra,4(sp)
   2660c:	df000017 	ldw	fp,0(sp)
   26610:	dec00204 	addi	sp,sp,8
   26614:	f800283a 	ret

00026618 <close>:
   26618:	defffb04 	addi	sp,sp,-20
   2661c:	dfc00415 	stw	ra,16(sp)
   26620:	df000315 	stw	fp,12(sp)
   26624:	df000304 	addi	fp,sp,12
   26628:	e13ffd15 	stw	r4,-12(fp)
   2662c:	e0bffd17 	ldw	r2,-12(fp)
   26630:	10000916 	blt	r2,zero,26658 <close+0x40>
   26634:	e0fffd17 	ldw	r3,-12(fp)
   26638:	1805883a 	mov	r2,r3
   2663c:	1085883a 	add	r2,r2,r2
   26640:	10c5883a 	add	r2,r2,r3
   26644:	100490ba 	slli	r2,r2,2
   26648:	00c000b4 	movhi	r3,2
   2664c:	18dfc204 	addi	r3,r3,32520
   26650:	10c5883a 	add	r2,r2,r3
   26654:	00000106 	br	2665c <close+0x44>
   26658:	0005883a 	mov	r2,zero
   2665c:	e0bfff15 	stw	r2,-4(fp)
   26660:	e0bfff17 	ldw	r2,-4(fp)
   26664:	10001926 	beq	r2,zero,266cc <close+0xb4>
   26668:	e0bfff17 	ldw	r2,-4(fp)
   2666c:	10800017 	ldw	r2,0(r2)
   26670:	10800417 	ldw	r2,16(r2)
   26674:	10000626 	beq	r2,zero,26690 <close+0x78>
   26678:	e0bfff17 	ldw	r2,-4(fp)
   2667c:	10800017 	ldw	r2,0(r2)
   26680:	10800417 	ldw	r2,16(r2)
   26684:	e13fff17 	ldw	r4,-4(fp)
   26688:	103ee83a 	callr	r2
   2668c:	00000106 	br	26694 <close+0x7c>
   26690:	0005883a 	mov	r2,zero
   26694:	e0bffe15 	stw	r2,-8(fp)
   26698:	e13ffd17 	ldw	r4,-12(fp)
   2669c:	00270600 	call	27060 <alt_release_fd>
   266a0:	e0bffe17 	ldw	r2,-8(fp)
   266a4:	1000070e 	bge	r2,zero,266c4 <close+0xac>
   266a8:	00265dc0 	call	265dc <alt_get_errno>
   266ac:	1007883a 	mov	r3,r2
   266b0:	e0bffe17 	ldw	r2,-8(fp)
   266b4:	0085c83a 	sub	r2,zero,r2
   266b8:	18800015 	stw	r2,0(r3)
   266bc:	00bfffc4 	movi	r2,-1
   266c0:	00000706 	br	266e0 <close+0xc8>
   266c4:	0005883a 	mov	r2,zero
   266c8:	00000506 	br	266e0 <close+0xc8>
   266cc:	00265dc0 	call	265dc <alt_get_errno>
   266d0:	1007883a 	mov	r3,r2
   266d4:	00801444 	movi	r2,81
   266d8:	18800015 	stw	r2,0(r3)
   266dc:	00bfffc4 	movi	r2,-1
   266e0:	e037883a 	mov	sp,fp
   266e4:	dfc00117 	ldw	ra,4(sp)
   266e8:	df000017 	ldw	fp,0(sp)
   266ec:	dec00204 	addi	sp,sp,8
   266f0:	f800283a 	ret

000266f4 <alt_dcache_flush>:
   266f4:	defffd04 	addi	sp,sp,-12
   266f8:	df000215 	stw	fp,8(sp)
   266fc:	df000204 	addi	fp,sp,8
   26700:	e13fff15 	stw	r4,-4(fp)
   26704:	e17ffe15 	stw	r5,-8(fp)
   26708:	0001883a 	nop
   2670c:	e037883a 	mov	sp,fp
   26710:	df000017 	ldw	fp,0(sp)
   26714:	dec00104 	addi	sp,sp,4
   26718:	f800283a 	ret

0002671c <alt_dev_null_write>:
   2671c:	defffc04 	addi	sp,sp,-16
   26720:	df000315 	stw	fp,12(sp)
   26724:	df000304 	addi	fp,sp,12
   26728:	e13fff15 	stw	r4,-4(fp)
   2672c:	e17ffe15 	stw	r5,-8(fp)
   26730:	e1bffd15 	stw	r6,-12(fp)
   26734:	e0bffd17 	ldw	r2,-12(fp)
   26738:	e037883a 	mov	sp,fp
   2673c:	df000017 	ldw	fp,0(sp)
   26740:	dec00104 	addi	sp,sp,4
   26744:	f800283a 	ret

00026748 <alt_get_errno>:
   26748:	defffe04 	addi	sp,sp,-8
   2674c:	dfc00115 	stw	ra,4(sp)
   26750:	df000015 	stw	fp,0(sp)
   26754:	d839883a 	mov	fp,sp
   26758:	d0a01017 	ldw	r2,-32704(gp)
   2675c:	10000326 	beq	r2,zero,2676c <alt_get_errno+0x24>
   26760:	d0a01017 	ldw	r2,-32704(gp)
   26764:	103ee83a 	callr	r2
   26768:	00000106 	br	26770 <alt_get_errno+0x28>
   2676c:	d0a11c04 	addi	r2,gp,-31632
   26770:	e037883a 	mov	sp,fp
   26774:	dfc00117 	ldw	ra,4(sp)
   26778:	df000017 	ldw	fp,0(sp)
   2677c:	dec00204 	addi	sp,sp,8
   26780:	f800283a 	ret

00026784 <alt_dev_llist_insert>:
   26784:	defffa04 	addi	sp,sp,-24
   26788:	dfc00515 	stw	ra,20(sp)
   2678c:	df000415 	stw	fp,16(sp)
   26790:	df000404 	addi	fp,sp,16
   26794:	e13ffd15 	stw	r4,-12(fp)
   26798:	e17ffc15 	stw	r5,-16(fp)
   2679c:	e0bffd17 	ldw	r2,-12(fp)
   267a0:	10000326 	beq	r2,zero,267b0 <alt_dev_llist_insert+0x2c>
   267a4:	e0bffd17 	ldw	r2,-12(fp)
   267a8:	10800217 	ldw	r2,8(r2)
   267ac:	1000061e 	bne	r2,zero,267c8 <alt_dev_llist_insert+0x44>
   267b0:	00267480 	call	26748 <alt_get_errno>
   267b4:	1007883a 	mov	r3,r2
   267b8:	00800584 	movi	r2,22
   267bc:	18800015 	stw	r2,0(r3)
   267c0:	00bffa84 	movi	r2,-22
   267c4:	00001406 	br	26818 <alt_dev_llist_insert+0x94>
   267c8:	e0bffd17 	ldw	r2,-12(fp)
   267cc:	e0fffc17 	ldw	r3,-16(fp)
   267d0:	e0ffff15 	stw	r3,-4(fp)
   267d4:	e0bffe15 	stw	r2,-8(fp)
   267d8:	e0bffe17 	ldw	r2,-8(fp)
   267dc:	e0ffff17 	ldw	r3,-4(fp)
   267e0:	10c00115 	stw	r3,4(r2)
   267e4:	e0bfff17 	ldw	r2,-4(fp)
   267e8:	10c00017 	ldw	r3,0(r2)
   267ec:	e0bffe17 	ldw	r2,-8(fp)
   267f0:	10c00015 	stw	r3,0(r2)
   267f4:	e0bfff17 	ldw	r2,-4(fp)
   267f8:	10800017 	ldw	r2,0(r2)
   267fc:	e0fffe17 	ldw	r3,-8(fp)
   26800:	10c00115 	stw	r3,4(r2)
   26804:	e0bfff17 	ldw	r2,-4(fp)
   26808:	e0fffe17 	ldw	r3,-8(fp)
   2680c:	10c00015 	stw	r3,0(r2)
   26810:	0001883a 	nop
   26814:	0005883a 	mov	r2,zero
   26818:	e037883a 	mov	sp,fp
   2681c:	dfc00117 	ldw	ra,4(sp)
   26820:	df000017 	ldw	fp,0(sp)
   26824:	dec00204 	addi	sp,sp,8
   26828:	f800283a 	ret

0002682c <_do_ctors>:
   2682c:	defffd04 	addi	sp,sp,-12
   26830:	dfc00215 	stw	ra,8(sp)
   26834:	df000115 	stw	fp,4(sp)
   26838:	df000104 	addi	fp,sp,4
   2683c:	008000b4 	movhi	r2,2
   26840:	109e2404 	addi	r2,r2,30864
   26844:	e0bfff15 	stw	r2,-4(fp)
   26848:	00000606 	br	26864 <_do_ctors+0x38>
   2684c:	e0bfff17 	ldw	r2,-4(fp)
   26850:	10800017 	ldw	r2,0(r2)
   26854:	103ee83a 	callr	r2
   26858:	e0bfff17 	ldw	r2,-4(fp)
   2685c:	10bfff04 	addi	r2,r2,-4
   26860:	e0bfff15 	stw	r2,-4(fp)
   26864:	e0ffff17 	ldw	r3,-4(fp)
   26868:	008000b4 	movhi	r2,2
   2686c:	109e2504 	addi	r2,r2,30868
   26870:	18bff62e 	bgeu	r3,r2,2684c <_do_ctors+0x20>
   26874:	0001883a 	nop
   26878:	0001883a 	nop
   2687c:	e037883a 	mov	sp,fp
   26880:	dfc00117 	ldw	ra,4(sp)
   26884:	df000017 	ldw	fp,0(sp)
   26888:	dec00204 	addi	sp,sp,8
   2688c:	f800283a 	ret

00026890 <_do_dtors>:
   26890:	defffd04 	addi	sp,sp,-12
   26894:	dfc00215 	stw	ra,8(sp)
   26898:	df000115 	stw	fp,4(sp)
   2689c:	df000104 	addi	fp,sp,4
   268a0:	008000b4 	movhi	r2,2
   268a4:	109e2404 	addi	r2,r2,30864
   268a8:	e0bfff15 	stw	r2,-4(fp)
   268ac:	00000606 	br	268c8 <_do_dtors+0x38>
   268b0:	e0bfff17 	ldw	r2,-4(fp)
   268b4:	10800017 	ldw	r2,0(r2)
   268b8:	103ee83a 	callr	r2
   268bc:	e0bfff17 	ldw	r2,-4(fp)
   268c0:	10bfff04 	addi	r2,r2,-4
   268c4:	e0bfff15 	stw	r2,-4(fp)
   268c8:	e0ffff17 	ldw	r3,-4(fp)
   268cc:	008000b4 	movhi	r2,2
   268d0:	109e2504 	addi	r2,r2,30868
   268d4:	18bff62e 	bgeu	r3,r2,268b0 <_do_dtors+0x20>
   268d8:	0001883a 	nop
   268dc:	0001883a 	nop
   268e0:	e037883a 	mov	sp,fp
   268e4:	dfc00117 	ldw	ra,4(sp)
   268e8:	df000017 	ldw	fp,0(sp)
   268ec:	dec00204 	addi	sp,sp,8
   268f0:	f800283a 	ret

000268f4 <alt_find_dev>:
   268f4:	defffa04 	addi	sp,sp,-24
   268f8:	dfc00515 	stw	ra,20(sp)
   268fc:	df000415 	stw	fp,16(sp)
   26900:	df000404 	addi	fp,sp,16
   26904:	e13ffd15 	stw	r4,-12(fp)
   26908:	e17ffc15 	stw	r5,-16(fp)
   2690c:	e0bffc17 	ldw	r2,-16(fp)
   26910:	10800017 	ldw	r2,0(r2)
   26914:	e0bfff15 	stw	r2,-4(fp)
   26918:	e13ffd17 	ldw	r4,-12(fp)
   2691c:	0021a7c0 	call	21a7c <strlen>
   26920:	10800044 	addi	r2,r2,1
   26924:	e0bffe15 	stw	r2,-8(fp)
   26928:	00000d06 	br	26960 <alt_find_dev+0x6c>
   2692c:	e0bfff17 	ldw	r2,-4(fp)
   26930:	10800217 	ldw	r2,8(r2)
   26934:	e0fffe17 	ldw	r3,-8(fp)
   26938:	180d883a 	mov	r6,r3
   2693c:	e17ffd17 	ldw	r5,-12(fp)
   26940:	1009883a 	mov	r4,r2
   26944:	00272e80 	call	272e8 <memcmp>
   26948:	1000021e 	bne	r2,zero,26954 <alt_find_dev+0x60>
   2694c:	e0bfff17 	ldw	r2,-4(fp)
   26950:	00000706 	br	26970 <alt_find_dev+0x7c>
   26954:	e0bfff17 	ldw	r2,-4(fp)
   26958:	10800017 	ldw	r2,0(r2)
   2695c:	e0bfff15 	stw	r2,-4(fp)
   26960:	e0ffff17 	ldw	r3,-4(fp)
   26964:	e0bffc17 	ldw	r2,-16(fp)
   26968:	18bff01e 	bne	r3,r2,2692c <alt_find_dev+0x38>
   2696c:	0005883a 	mov	r2,zero
   26970:	e037883a 	mov	sp,fp
   26974:	dfc00117 	ldw	ra,4(sp)
   26978:	df000017 	ldw	fp,0(sp)
   2697c:	dec00204 	addi	sp,sp,8
   26980:	f800283a 	ret

00026984 <alt_icache_flush_all>:
   26984:	deffff04 	addi	sp,sp,-4
   26988:	df000015 	stw	fp,0(sp)
   2698c:	d839883a 	mov	fp,sp
   26990:	0001883a 	nop
   26994:	e037883a 	mov	sp,fp
   26998:	df000017 	ldw	fp,0(sp)
   2699c:	dec00104 	addi	sp,sp,4
   269a0:	f800283a 	ret

000269a4 <alt_exception_cause_generated_bad_addr>:
   269a4:	defffe04 	addi	sp,sp,-8
   269a8:	df000115 	stw	fp,4(sp)
   269ac:	df000104 	addi	fp,sp,4
   269b0:	e13fff15 	stw	r4,-4(fp)
   269b4:	e0bfff17 	ldw	r2,-4(fp)
   269b8:	10bffe84 	addi	r2,r2,-6
   269bc:	10c00428 	cmpgeui	r3,r2,16
   269c0:	1800191e 	bne	r3,zero,26a28 <alt_exception_cause_generated_bad_addr+0x84>
   269c4:	100690ba 	slli	r3,r2,2
   269c8:	008000b4 	movhi	r2,2
   269cc:	1885883a 	add	r2,r3,r2
   269d0:	109a7617 	ldw	r2,27096(r2)
   269d4:	1000683a 	jmp	r2
   269d8:	00026a18 	cmpnei	zero,zero,2472
   269dc:	00026a18 	cmpnei	zero,zero,2472
   269e0:	00026a28 	cmpgeui	zero,zero,2472
   269e4:	00026a28 	cmpgeui	zero,zero,2472
   269e8:	00026a28 	cmpgeui	zero,zero,2472
   269ec:	00026a18 	cmpnei	zero,zero,2472
   269f0:	00026a20 	cmpeqi	zero,zero,2472
   269f4:	00026a28 	cmpgeui	zero,zero,2472
   269f8:	00026a18 	cmpnei	zero,zero,2472
   269fc:	00026a18 	cmpnei	zero,zero,2472
   26a00:	00026a28 	cmpgeui	zero,zero,2472
   26a04:	00026a18 	cmpnei	zero,zero,2472
   26a08:	00026a20 	cmpeqi	zero,zero,2472
   26a0c:	00026a28 	cmpgeui	zero,zero,2472
   26a10:	00026a28 	cmpgeui	zero,zero,2472
   26a14:	00026a18 	cmpnei	zero,zero,2472
   26a18:	00800044 	movi	r2,1
   26a1c:	00000306 	br	26a2c <alt_exception_cause_generated_bad_addr+0x88>
   26a20:	0005883a 	mov	r2,zero
   26a24:	00000106 	br	26a2c <alt_exception_cause_generated_bad_addr+0x88>
   26a28:	0005883a 	mov	r2,zero
   26a2c:	e037883a 	mov	sp,fp
   26a30:	df000017 	ldw	fp,0(sp)
   26a34:	dec00104 	addi	sp,sp,4
   26a38:	f800283a 	ret

00026a3c <alt_open_fd>:
   26a3c:	defff904 	addi	sp,sp,-28
   26a40:	dfc00615 	stw	ra,24(sp)
   26a44:	df000515 	stw	fp,20(sp)
   26a48:	df000504 	addi	fp,sp,20
   26a4c:	e13ffe15 	stw	r4,-8(fp)
   26a50:	e17ffd15 	stw	r5,-12(fp)
   26a54:	e1bffc15 	stw	r6,-16(fp)
   26a58:	e1fffb15 	stw	r7,-20(fp)
   26a5c:	e1bffb17 	ldw	r6,-20(fp)
   26a60:	e17ffc17 	ldw	r5,-16(fp)
   26a64:	e13ffd17 	ldw	r4,-12(fp)
   26a68:	0026ca40 	call	26ca4 <open>
   26a6c:	e0bfff15 	stw	r2,-4(fp)
   26a70:	e0bfff17 	ldw	r2,-4(fp)
   26a74:	10002016 	blt	r2,zero,26af8 <alt_open_fd+0xbc>
   26a78:	e0ffff17 	ldw	r3,-4(fp)
   26a7c:	1805883a 	mov	r2,r3
   26a80:	1085883a 	add	r2,r2,r2
   26a84:	10c5883a 	add	r2,r2,r3
   26a88:	100490ba 	slli	r2,r2,2
   26a8c:	00c000b4 	movhi	r3,2
   26a90:	10c7883a 	add	r3,r2,r3
   26a94:	18dfc217 	ldw	r3,32520(r3)
   26a98:	e0bffe17 	ldw	r2,-8(fp)
   26a9c:	10c00015 	stw	r3,0(r2)
   26aa0:	e0ffff17 	ldw	r3,-4(fp)
   26aa4:	1805883a 	mov	r2,r3
   26aa8:	1085883a 	add	r2,r2,r2
   26aac:	10c5883a 	add	r2,r2,r3
   26ab0:	100490ba 	slli	r2,r2,2
   26ab4:	00c000b4 	movhi	r3,2
   26ab8:	10c7883a 	add	r3,r2,r3
   26abc:	18dfc317 	ldw	r3,32524(r3)
   26ac0:	e0bffe17 	ldw	r2,-8(fp)
   26ac4:	10c00115 	stw	r3,4(r2)
   26ac8:	e0ffff17 	ldw	r3,-4(fp)
   26acc:	1805883a 	mov	r2,r3
   26ad0:	1085883a 	add	r2,r2,r2
   26ad4:	10c5883a 	add	r2,r2,r3
   26ad8:	100490ba 	slli	r2,r2,2
   26adc:	00c000b4 	movhi	r3,2
   26ae0:	10c7883a 	add	r3,r2,r3
   26ae4:	18dfc417 	ldw	r3,32528(r3)
   26ae8:	e0bffe17 	ldw	r2,-8(fp)
   26aec:	10c00215 	stw	r3,8(r2)
   26af0:	e13fff17 	ldw	r4,-4(fp)
   26af4:	00270600 	call	27060 <alt_release_fd>
   26af8:	0001883a 	nop
   26afc:	e037883a 	mov	sp,fp
   26b00:	dfc00117 	ldw	ra,4(sp)
   26b04:	df000017 	ldw	fp,0(sp)
   26b08:	dec00204 	addi	sp,sp,8
   26b0c:	f800283a 	ret

00026b10 <alt_io_redirect>:
   26b10:	defffb04 	addi	sp,sp,-20
   26b14:	dfc00415 	stw	ra,16(sp)
   26b18:	df000315 	stw	fp,12(sp)
   26b1c:	df000304 	addi	fp,sp,12
   26b20:	e13fff15 	stw	r4,-4(fp)
   26b24:	e17ffe15 	stw	r5,-8(fp)
   26b28:	e1bffd15 	stw	r6,-12(fp)
   26b2c:	01c07fc4 	movi	r7,511
   26b30:	01800044 	movi	r6,1
   26b34:	e17fff17 	ldw	r5,-4(fp)
   26b38:	010000b4 	movhi	r4,2
   26b3c:	211fc504 	addi	r4,r4,32532
   26b40:	0026a3c0 	call	26a3c <alt_open_fd>
   26b44:	01c07fc4 	movi	r7,511
   26b48:	000d883a 	mov	r6,zero
   26b4c:	e17ffe17 	ldw	r5,-8(fp)
   26b50:	010000b4 	movhi	r4,2
   26b54:	211fc204 	addi	r4,r4,32520
   26b58:	0026a3c0 	call	26a3c <alt_open_fd>
   26b5c:	01c07fc4 	movi	r7,511
   26b60:	01800044 	movi	r6,1
   26b64:	e17ffd17 	ldw	r5,-12(fp)
   26b68:	010000b4 	movhi	r4,2
   26b6c:	211fc804 	addi	r4,r4,32544
   26b70:	0026a3c0 	call	26a3c <alt_open_fd>
   26b74:	0001883a 	nop
   26b78:	e037883a 	mov	sp,fp
   26b7c:	dfc00117 	ldw	ra,4(sp)
   26b80:	df000017 	ldw	fp,0(sp)
   26b84:	dec00204 	addi	sp,sp,8
   26b88:	f800283a 	ret

00026b8c <alt_get_errno>:
   26b8c:	defffe04 	addi	sp,sp,-8
   26b90:	dfc00115 	stw	ra,4(sp)
   26b94:	df000015 	stw	fp,0(sp)
   26b98:	d839883a 	mov	fp,sp
   26b9c:	d0a01017 	ldw	r2,-32704(gp)
   26ba0:	10000326 	beq	r2,zero,26bb0 <alt_get_errno+0x24>
   26ba4:	d0a01017 	ldw	r2,-32704(gp)
   26ba8:	103ee83a 	callr	r2
   26bac:	00000106 	br	26bb4 <alt_get_errno+0x28>
   26bb0:	d0a11c04 	addi	r2,gp,-31632
   26bb4:	e037883a 	mov	sp,fp
   26bb8:	dfc00117 	ldw	ra,4(sp)
   26bbc:	df000017 	ldw	fp,0(sp)
   26bc0:	dec00204 	addi	sp,sp,8
   26bc4:	f800283a 	ret

00026bc8 <alt_file_locked>:
   26bc8:	defffd04 	addi	sp,sp,-12
   26bcc:	df000215 	stw	fp,8(sp)
   26bd0:	df000204 	addi	fp,sp,8
   26bd4:	e13ffe15 	stw	r4,-8(fp)
   26bd8:	e0bffe17 	ldw	r2,-8(fp)
   26bdc:	10800217 	ldw	r2,8(r2)
   26be0:	10d00034 	orhi	r3,r2,16384
   26be4:	e0bffe17 	ldw	r2,-8(fp)
   26be8:	10c00215 	stw	r3,8(r2)
   26bec:	e03fff15 	stw	zero,-4(fp)
   26bf0:	00002306 	br	26c80 <alt_file_locked+0xb8>
   26bf4:	e0ffff17 	ldw	r3,-4(fp)
   26bf8:	1805883a 	mov	r2,r3
   26bfc:	1085883a 	add	r2,r2,r2
   26c00:	10c5883a 	add	r2,r2,r3
   26c04:	100490ba 	slli	r2,r2,2
   26c08:	00c000b4 	movhi	r3,2
   26c0c:	10c7883a 	add	r3,r2,r3
   26c10:	18dfc217 	ldw	r3,32520(r3)
   26c14:	e0bffe17 	ldw	r2,-8(fp)
   26c18:	10800017 	ldw	r2,0(r2)
   26c1c:	1880151e 	bne	r3,r2,26c74 <alt_file_locked+0xac>
   26c20:	e0ffff17 	ldw	r3,-4(fp)
   26c24:	1805883a 	mov	r2,r3
   26c28:	1085883a 	add	r2,r2,r2
   26c2c:	10c5883a 	add	r2,r2,r3
   26c30:	100490ba 	slli	r2,r2,2
   26c34:	00c000b4 	movhi	r3,2
   26c38:	10c7883a 	add	r3,r2,r3
   26c3c:	189fc417 	ldw	r2,32528(r3)
   26c40:	10000c0e 	bge	r2,zero,26c74 <alt_file_locked+0xac>
   26c44:	e0ffff17 	ldw	r3,-4(fp)
   26c48:	1805883a 	mov	r2,r3
   26c4c:	1085883a 	add	r2,r2,r2
   26c50:	10c5883a 	add	r2,r2,r3
   26c54:	100490ba 	slli	r2,r2,2
   26c58:	00c000b4 	movhi	r3,2
   26c5c:	18dfc204 	addi	r3,r3,32520
   26c60:	10c5883a 	add	r2,r2,r3
   26c64:	e0fffe17 	ldw	r3,-8(fp)
   26c68:	18800226 	beq	r3,r2,26c74 <alt_file_locked+0xac>
   26c6c:	00bffcc4 	movi	r2,-13
   26c70:	00000806 	br	26c94 <alt_file_locked+0xcc>
   26c74:	e0bfff17 	ldw	r2,-4(fp)
   26c78:	10800044 	addi	r2,r2,1
   26c7c:	e0bfff15 	stw	r2,-4(fp)
   26c80:	d0a00f17 	ldw	r2,-32708(gp)
   26c84:	1007883a 	mov	r3,r2
   26c88:	e0bfff17 	ldw	r2,-4(fp)
   26c8c:	18bfd92e 	bgeu	r3,r2,26bf4 <alt_file_locked+0x2c>
   26c90:	0005883a 	mov	r2,zero
   26c94:	e037883a 	mov	sp,fp
   26c98:	df000017 	ldw	fp,0(sp)
   26c9c:	dec00104 	addi	sp,sp,4
   26ca0:	f800283a 	ret

00026ca4 <open>:
   26ca4:	defff604 	addi	sp,sp,-40
   26ca8:	dfc00915 	stw	ra,36(sp)
   26cac:	df000815 	stw	fp,32(sp)
   26cb0:	df000804 	addi	fp,sp,32
   26cb4:	e13ffa15 	stw	r4,-24(fp)
   26cb8:	e17ff915 	stw	r5,-28(fp)
   26cbc:	e1bff815 	stw	r6,-32(fp)
   26cc0:	00bfffc4 	movi	r2,-1
   26cc4:	e0bffe15 	stw	r2,-8(fp)
   26cc8:	00bffb44 	movi	r2,-19
   26ccc:	e0bffd15 	stw	r2,-12(fp)
   26cd0:	e03ffc15 	stw	zero,-16(fp)
   26cd4:	d1600d04 	addi	r5,gp,-32716
   26cd8:	e13ffa17 	ldw	r4,-24(fp)
   26cdc:	00268f40 	call	268f4 <alt_find_dev>
   26ce0:	e0bfff15 	stw	r2,-4(fp)
   26ce4:	e0bfff17 	ldw	r2,-4(fp)
   26ce8:	1000051e 	bne	r2,zero,26d00 <open+0x5c>
   26cec:	e13ffa17 	ldw	r4,-24(fp)
   26cf0:	00270f40 	call	270f4 <alt_find_file>
   26cf4:	e0bfff15 	stw	r2,-4(fp)
   26cf8:	00800044 	movi	r2,1
   26cfc:	e0bffc15 	stw	r2,-16(fp)
   26d00:	e0bfff17 	ldw	r2,-4(fp)
   26d04:	10002c26 	beq	r2,zero,26db8 <open+0x114>
   26d08:	e13fff17 	ldw	r4,-4(fp)
   26d0c:	00271fc0 	call	271fc <alt_get_fd>
   26d10:	e0bffe15 	stw	r2,-8(fp)
   26d14:	e0bffe17 	ldw	r2,-8(fp)
   26d18:	1000030e 	bge	r2,zero,26d28 <open+0x84>
   26d1c:	e0bffe17 	ldw	r2,-8(fp)
   26d20:	e0bffd15 	stw	r2,-12(fp)
   26d24:	00002606 	br	26dc0 <open+0x11c>
   26d28:	e0fffe17 	ldw	r3,-8(fp)
   26d2c:	1805883a 	mov	r2,r3
   26d30:	1085883a 	add	r2,r2,r2
   26d34:	10c5883a 	add	r2,r2,r3
   26d38:	100490ba 	slli	r2,r2,2
   26d3c:	00c000b4 	movhi	r3,2
   26d40:	18dfc204 	addi	r3,r3,32520
   26d44:	10c5883a 	add	r2,r2,r3
   26d48:	e0bffb15 	stw	r2,-20(fp)
   26d4c:	e0fff917 	ldw	r3,-28(fp)
   26d50:	00900034 	movhi	r2,16384
   26d54:	10bfffc4 	addi	r2,r2,-1
   26d58:	1886703a 	and	r3,r3,r2
   26d5c:	e0bffb17 	ldw	r2,-20(fp)
   26d60:	10c00215 	stw	r3,8(r2)
   26d64:	e0bffc17 	ldw	r2,-16(fp)
   26d68:	1000051e 	bne	r2,zero,26d80 <open+0xdc>
   26d6c:	e13ffb17 	ldw	r4,-20(fp)
   26d70:	0026bc80 	call	26bc8 <alt_file_locked>
   26d74:	e0bffd15 	stw	r2,-12(fp)
   26d78:	e0bffd17 	ldw	r2,-12(fp)
   26d7c:	10001016 	blt	r2,zero,26dc0 <open+0x11c>
   26d80:	e0bfff17 	ldw	r2,-4(fp)
   26d84:	10800317 	ldw	r2,12(r2)
   26d88:	10000826 	beq	r2,zero,26dac <open+0x108>
   26d8c:	e0bfff17 	ldw	r2,-4(fp)
   26d90:	10800317 	ldw	r2,12(r2)
   26d94:	e1fff817 	ldw	r7,-32(fp)
   26d98:	e1bff917 	ldw	r6,-28(fp)
   26d9c:	e17ffa17 	ldw	r5,-24(fp)
   26da0:	e13ffb17 	ldw	r4,-20(fp)
   26da4:	103ee83a 	callr	r2
   26da8:	00000106 	br	26db0 <open+0x10c>
   26dac:	0005883a 	mov	r2,zero
   26db0:	e0bffd15 	stw	r2,-12(fp)
   26db4:	00000206 	br	26dc0 <open+0x11c>
   26db8:	00bffb44 	movi	r2,-19
   26dbc:	e0bffd15 	stw	r2,-12(fp)
   26dc0:	e0bffd17 	ldw	r2,-12(fp)
   26dc4:	1000090e 	bge	r2,zero,26dec <open+0x148>
   26dc8:	e13ffe17 	ldw	r4,-8(fp)
   26dcc:	00270600 	call	27060 <alt_release_fd>
   26dd0:	0026b8c0 	call	26b8c <alt_get_errno>
   26dd4:	1007883a 	mov	r3,r2
   26dd8:	e0bffd17 	ldw	r2,-12(fp)
   26ddc:	0085c83a 	sub	r2,zero,r2
   26de0:	18800015 	stw	r2,0(r3)
   26de4:	00bfffc4 	movi	r2,-1
   26de8:	00000106 	br	26df0 <open+0x14c>
   26dec:	e0bffe17 	ldw	r2,-8(fp)
   26df0:	e037883a 	mov	sp,fp
   26df4:	dfc00117 	ldw	ra,4(sp)
   26df8:	df000017 	ldw	fp,0(sp)
   26dfc:	dec00204 	addi	sp,sp,8
   26e00:	f800283a 	ret

00026e04 <alt_printf>:
   26e04:	defff204 	addi	sp,sp,-56
   26e08:	dfc00a15 	stw	ra,40(sp)
   26e0c:	df000915 	stw	fp,36(sp)
   26e10:	df000904 	addi	fp,sp,36
   26e14:	e13ff715 	stw	r4,-36(fp)
   26e18:	e1400215 	stw	r5,8(fp)
   26e1c:	e1800315 	stw	r6,12(fp)
   26e20:	e1c00415 	stw	r7,16(fp)
   26e24:	e0800204 	addi	r2,fp,8
   26e28:	e0bff815 	stw	r2,-32(fp)
   26e2c:	e0bff717 	ldw	r2,-36(fp)
   26e30:	e0bfff15 	stw	r2,-4(fp)
   26e34:	00006f06 	br	26ff4 <alt_printf+0x1f0>
   26e38:	e0bffec7 	ldb	r2,-5(fp)
   26e3c:	10800960 	cmpeqi	r2,r2,37
   26e40:	1000041e 	bne	r2,zero,26e54 <alt_printf+0x50>
   26e44:	e0bffec7 	ldb	r2,-5(fp)
   26e48:	1009883a 	mov	r4,r2
   26e4c:	00270300 	call	27030 <alt_putchar>
   26e50:	00006806 	br	26ff4 <alt_printf+0x1f0>
   26e54:	e0bfff17 	ldw	r2,-4(fp)
   26e58:	10c00044 	addi	r3,r2,1
   26e5c:	e0ffff15 	stw	r3,-4(fp)
   26e60:	10800003 	ldbu	r2,0(r2)
   26e64:	e0bffec5 	stb	r2,-5(fp)
   26e68:	e0bffec7 	ldb	r2,-5(fp)
   26e6c:	10006926 	beq	r2,zero,27014 <alt_printf+0x210>
   26e70:	e0bffec7 	ldb	r2,-5(fp)
   26e74:	10800958 	cmpnei	r2,r2,37
   26e78:	1000041e 	bne	r2,zero,26e8c <alt_printf+0x88>
   26e7c:	e0bffec7 	ldb	r2,-5(fp)
   26e80:	1009883a 	mov	r4,r2
   26e84:	00270300 	call	27030 <alt_putchar>
   26e88:	00005a06 	br	26ff4 <alt_printf+0x1f0>
   26e8c:	e0bffec7 	ldb	r2,-5(fp)
   26e90:	108018d8 	cmpnei	r2,r2,99
   26e94:	1000081e 	bne	r2,zero,26eb8 <alt_printf+0xb4>
   26e98:	e0bff817 	ldw	r2,-32(fp)
   26e9c:	10c00104 	addi	r3,r2,4
   26ea0:	e0fff815 	stw	r3,-32(fp)
   26ea4:	10800017 	ldw	r2,0(r2)
   26ea8:	e0bff915 	stw	r2,-28(fp)
   26eac:	e13ff917 	ldw	r4,-28(fp)
   26eb0:	00270300 	call	27030 <alt_putchar>
   26eb4:	00004f06 	br	26ff4 <alt_printf+0x1f0>
   26eb8:	e0bffec7 	ldb	r2,-5(fp)
   26ebc:	10801e18 	cmpnei	r2,r2,120
   26ec0:	1000341e 	bne	r2,zero,26f94 <alt_printf+0x190>
   26ec4:	e0bff817 	ldw	r2,-32(fp)
   26ec8:	10c00104 	addi	r3,r2,4
   26ecc:	e0fff815 	stw	r3,-32(fp)
   26ed0:	10800017 	ldw	r2,0(r2)
   26ed4:	e0bffb15 	stw	r2,-20(fp)
   26ed8:	e0bffb17 	ldw	r2,-20(fp)
   26edc:	1000031e 	bne	r2,zero,26eec <alt_printf+0xe8>
   26ee0:	01000c04 	movi	r4,48
   26ee4:	00270300 	call	27030 <alt_putchar>
   26ee8:	00004206 	br	26ff4 <alt_printf+0x1f0>
   26eec:	00800704 	movi	r2,28
   26ef0:	e0bffd15 	stw	r2,-12(fp)
   26ef4:	00000306 	br	26f04 <alt_printf+0x100>
   26ef8:	e0bffd17 	ldw	r2,-12(fp)
   26efc:	10bfff04 	addi	r2,r2,-4
   26f00:	e0bffd15 	stw	r2,-12(fp)
   26f04:	00c003c4 	movi	r3,15
   26f08:	e0bffd17 	ldw	r2,-12(fp)
   26f0c:	1884983a 	sll	r2,r3,r2
   26f10:	1007883a 	mov	r3,r2
   26f14:	e0bffb17 	ldw	r2,-20(fp)
   26f18:	1884703a 	and	r2,r3,r2
   26f1c:	103ff626 	beq	r2,zero,26ef8 <alt_printf+0xf4>
   26f20:	00001906 	br	26f88 <alt_printf+0x184>
   26f24:	00c003c4 	movi	r3,15
   26f28:	e0bffd17 	ldw	r2,-12(fp)
   26f2c:	1884983a 	sll	r2,r3,r2
   26f30:	1007883a 	mov	r3,r2
   26f34:	e0bffb17 	ldw	r2,-20(fp)
   26f38:	1886703a 	and	r3,r3,r2
   26f3c:	e0bffd17 	ldw	r2,-12(fp)
   26f40:	1884d83a 	srl	r2,r3,r2
   26f44:	e0bffa15 	stw	r2,-24(fp)
   26f48:	e0bffa17 	ldw	r2,-24(fp)
   26f4c:	108002a8 	cmpgeui	r2,r2,10
   26f50:	1000041e 	bne	r2,zero,26f64 <alt_printf+0x160>
   26f54:	e0bffa17 	ldw	r2,-24(fp)
   26f58:	10800c04 	addi	r2,r2,48
   26f5c:	e0bffec5 	stb	r2,-5(fp)
   26f60:	00000306 	br	26f70 <alt_printf+0x16c>
   26f64:	e0bffa17 	ldw	r2,-24(fp)
   26f68:	108015c4 	addi	r2,r2,87
   26f6c:	e0bffec5 	stb	r2,-5(fp)
   26f70:	e0bffec7 	ldb	r2,-5(fp)
   26f74:	1009883a 	mov	r4,r2
   26f78:	00270300 	call	27030 <alt_putchar>
   26f7c:	e0bffd17 	ldw	r2,-12(fp)
   26f80:	10bfff04 	addi	r2,r2,-4
   26f84:	e0bffd15 	stw	r2,-12(fp)
   26f88:	e0bffd17 	ldw	r2,-12(fp)
   26f8c:	103fe50e 	bge	r2,zero,26f24 <alt_printf+0x120>
   26f90:	00001806 	br	26ff4 <alt_printf+0x1f0>
   26f94:	e0bffec7 	ldb	r2,-5(fp)
   26f98:	10801cd8 	cmpnei	r2,r2,115
   26f9c:	1000151e 	bne	r2,zero,26ff4 <alt_printf+0x1f0>
   26fa0:	e0bff817 	ldw	r2,-32(fp)
   26fa4:	10c00104 	addi	r3,r2,4
   26fa8:	e0fff815 	stw	r3,-32(fp)
   26fac:	10800017 	ldw	r2,0(r2)
   26fb0:	e0bffc15 	stw	r2,-16(fp)
   26fb4:	00000906 	br	26fdc <alt_printf+0x1d8>
   26fb8:	e0bffc17 	ldw	r2,-16(fp)
   26fbc:	10c00044 	addi	r3,r2,1
   26fc0:	e0fffc15 	stw	r3,-16(fp)
   26fc4:	10800003 	ldbu	r2,0(r2)
   26fc8:	10803fcc 	andi	r2,r2,255
   26fcc:	1080201c 	xori	r2,r2,128
   26fd0:	10bfe004 	addi	r2,r2,-128
   26fd4:	1009883a 	mov	r4,r2
   26fd8:	00270300 	call	27030 <alt_putchar>
   26fdc:	e0bffc17 	ldw	r2,-16(fp)
   26fe0:	10800003 	ldbu	r2,0(r2)
   26fe4:	10803fcc 	andi	r2,r2,255
   26fe8:	1080201c 	xori	r2,r2,128
   26fec:	10bfe004 	addi	r2,r2,-128
   26ff0:	103ff11e 	bne	r2,zero,26fb8 <alt_printf+0x1b4>
   26ff4:	e0bfff17 	ldw	r2,-4(fp)
   26ff8:	10c00044 	addi	r3,r2,1
   26ffc:	e0ffff15 	stw	r3,-4(fp)
   27000:	10800003 	ldbu	r2,0(r2)
   27004:	e0bffec5 	stb	r2,-5(fp)
   27008:	e0bffec7 	ldb	r2,-5(fp)
   2700c:	103f8a1e 	bne	r2,zero,26e38 <alt_printf+0x34>
   27010:	00000106 	br	27018 <alt_printf+0x214>
   27014:	0001883a 	nop
   27018:	0001883a 	nop
   2701c:	e037883a 	mov	sp,fp
   27020:	dfc00117 	ldw	ra,4(sp)
   27024:	df000017 	ldw	fp,0(sp)
   27028:	dec00504 	addi	sp,sp,20
   2702c:	f800283a 	ret

00027030 <alt_putchar>:
   27030:	defffd04 	addi	sp,sp,-12
   27034:	dfc00215 	stw	ra,8(sp)
   27038:	df000115 	stw	fp,4(sp)
   2703c:	df000104 	addi	fp,sp,4
   27040:	e13fff15 	stw	r4,-4(fp)
   27044:	e13fff17 	ldw	r4,-4(fp)
   27048:	00273200 	call	27320 <putchar>
   2704c:	e037883a 	mov	sp,fp
   27050:	dfc00117 	ldw	ra,4(sp)
   27054:	df000017 	ldw	fp,0(sp)
   27058:	dec00204 	addi	sp,sp,8
   2705c:	f800283a 	ret

00027060 <alt_release_fd>:
   27060:	defffe04 	addi	sp,sp,-8
   27064:	df000115 	stw	fp,4(sp)
   27068:	df000104 	addi	fp,sp,4
   2706c:	e13fff15 	stw	r4,-4(fp)
   27070:	e0bfff17 	ldw	r2,-4(fp)
   27074:	108000d0 	cmplti	r2,r2,3
   27078:	1000101e 	bne	r2,zero,270bc <alt_release_fd+0x5c>
   2707c:	e0ffff17 	ldw	r3,-4(fp)
   27080:	1805883a 	mov	r2,r3
   27084:	1085883a 	add	r2,r2,r2
   27088:	10c5883a 	add	r2,r2,r3
   2708c:	100490ba 	slli	r2,r2,2
   27090:	00c000b4 	movhi	r3,2
   27094:	10c7883a 	add	r3,r2,r3
   27098:	181fc415 	stw	zero,32528(r3)
   2709c:	e0ffff17 	ldw	r3,-4(fp)
   270a0:	1805883a 	mov	r2,r3
   270a4:	1085883a 	add	r2,r2,r2
   270a8:	10c5883a 	add	r2,r2,r3
   270ac:	100490ba 	slli	r2,r2,2
   270b0:	00c000b4 	movhi	r3,2
   270b4:	10c7883a 	add	r3,r2,r3
   270b8:	181fc215 	stw	zero,32520(r3)
   270bc:	0001883a 	nop
   270c0:	e037883a 	mov	sp,fp
   270c4:	df000017 	ldw	fp,0(sp)
   270c8:	dec00104 	addi	sp,sp,4
   270cc:	f800283a 	ret

000270d0 <altera_nios2_gen2_irq_init>:
   270d0:	deffff04 	addi	sp,sp,-4
   270d4:	df000015 	stw	fp,0(sp)
   270d8:	d839883a 	mov	fp,sp
   270dc:	000170fa 	wrctl	ienable,zero
   270e0:	0001883a 	nop
   270e4:	e037883a 	mov	sp,fp
   270e8:	df000017 	ldw	fp,0(sp)
   270ec:	dec00104 	addi	sp,sp,4
   270f0:	f800283a 	ret

000270f4 <alt_find_file>:
   270f4:	defffb04 	addi	sp,sp,-20
   270f8:	dfc00415 	stw	ra,16(sp)
   270fc:	df000315 	stw	fp,12(sp)
   27100:	df000304 	addi	fp,sp,12
   27104:	e13ffd15 	stw	r4,-12(fp)
   27108:	d0a00b17 	ldw	r2,-32724(gp)
   2710c:	e0bfff15 	stw	r2,-4(fp)
   27110:	00003106 	br	271d8 <alt_find_file+0xe4>
   27114:	e0bfff17 	ldw	r2,-4(fp)
   27118:	10800217 	ldw	r2,8(r2)
   2711c:	1009883a 	mov	r4,r2
   27120:	0021a7c0 	call	21a7c <strlen>
   27124:	e0bffe15 	stw	r2,-8(fp)
   27128:	e0bfff17 	ldw	r2,-4(fp)
   2712c:	10c00217 	ldw	r3,8(r2)
   27130:	e0bffe17 	ldw	r2,-8(fp)
   27134:	10bfffc4 	addi	r2,r2,-1
   27138:	1885883a 	add	r2,r3,r2
   2713c:	10800003 	ldbu	r2,0(r2)
   27140:	10803fcc 	andi	r2,r2,255
   27144:	1080201c 	xori	r2,r2,128
   27148:	10bfe004 	addi	r2,r2,-128
   2714c:	10800bd8 	cmpnei	r2,r2,47
   27150:	1000031e 	bne	r2,zero,27160 <alt_find_file+0x6c>
   27154:	e0bffe17 	ldw	r2,-8(fp)
   27158:	10bfffc4 	addi	r2,r2,-1
   2715c:	e0bffe15 	stw	r2,-8(fp)
   27160:	e0bffe17 	ldw	r2,-8(fp)
   27164:	e0fffd17 	ldw	r3,-12(fp)
   27168:	1885883a 	add	r2,r3,r2
   2716c:	10800003 	ldbu	r2,0(r2)
   27170:	10803fcc 	andi	r2,r2,255
   27174:	1080201c 	xori	r2,r2,128
   27178:	10bfe004 	addi	r2,r2,-128
   2717c:	10800be0 	cmpeqi	r2,r2,47
   27180:	1000081e 	bne	r2,zero,271a4 <alt_find_file+0xb0>
   27184:	e0bffe17 	ldw	r2,-8(fp)
   27188:	e0fffd17 	ldw	r3,-12(fp)
   2718c:	1885883a 	add	r2,r3,r2
   27190:	10800003 	ldbu	r2,0(r2)
   27194:	10803fcc 	andi	r2,r2,255
   27198:	1080201c 	xori	r2,r2,128
   2719c:	10bfe004 	addi	r2,r2,-128
   271a0:	10000a1e 	bne	r2,zero,271cc <alt_find_file+0xd8>
   271a4:	e0bfff17 	ldw	r2,-4(fp)
   271a8:	10800217 	ldw	r2,8(r2)
   271ac:	e0fffe17 	ldw	r3,-8(fp)
   271b0:	180d883a 	mov	r6,r3
   271b4:	e17ffd17 	ldw	r5,-12(fp)
   271b8:	1009883a 	mov	r4,r2
   271bc:	00272e80 	call	272e8 <memcmp>
   271c0:	1000021e 	bne	r2,zero,271cc <alt_find_file+0xd8>
   271c4:	e0bfff17 	ldw	r2,-4(fp)
   271c8:	00000706 	br	271e8 <alt_find_file+0xf4>
   271cc:	e0bfff17 	ldw	r2,-4(fp)
   271d0:	10800017 	ldw	r2,0(r2)
   271d4:	e0bfff15 	stw	r2,-4(fp)
   271d8:	e0ffff17 	ldw	r3,-4(fp)
   271dc:	d0a00b04 	addi	r2,gp,-32724
   271e0:	18bfcc1e 	bne	r3,r2,27114 <alt_find_file+0x20>
   271e4:	0005883a 	mov	r2,zero
   271e8:	e037883a 	mov	sp,fp
   271ec:	dfc00117 	ldw	ra,4(sp)
   271f0:	df000017 	ldw	fp,0(sp)
   271f4:	dec00204 	addi	sp,sp,8
   271f8:	f800283a 	ret

000271fc <alt_get_fd>:
   271fc:	defffc04 	addi	sp,sp,-16
   27200:	df000315 	stw	fp,12(sp)
   27204:	df000304 	addi	fp,sp,12
   27208:	e13ffd15 	stw	r4,-12(fp)
   2720c:	00bffa04 	movi	r2,-24
   27210:	e0bffe15 	stw	r2,-8(fp)
   27214:	e03fff15 	stw	zero,-4(fp)
   27218:	00001d06 	br	27290 <alt_get_fd+0x94>
   2721c:	e0ffff17 	ldw	r3,-4(fp)
   27220:	1805883a 	mov	r2,r3
   27224:	1085883a 	add	r2,r2,r2
   27228:	10c5883a 	add	r2,r2,r3
   2722c:	100490ba 	slli	r2,r2,2
   27230:	00c000b4 	movhi	r3,2
   27234:	10c7883a 	add	r3,r2,r3
   27238:	189fc217 	ldw	r2,32520(r3)
   2723c:	1000111e 	bne	r2,zero,27284 <alt_get_fd+0x88>
   27240:	e0ffff17 	ldw	r3,-4(fp)
   27244:	1805883a 	mov	r2,r3
   27248:	1085883a 	add	r2,r2,r2
   2724c:	10c5883a 	add	r2,r2,r3
   27250:	100490ba 	slli	r2,r2,2
   27254:	e13ffd17 	ldw	r4,-12(fp)
   27258:	00c000b4 	movhi	r3,2
   2725c:	10c7883a 	add	r3,r2,r3
   27260:	191fc215 	stw	r4,32520(r3)
   27264:	d0e00f17 	ldw	r3,-32708(gp)
   27268:	e0bfff17 	ldw	r2,-4(fp)
   2726c:	1880020e 	bge	r3,r2,27278 <alt_get_fd+0x7c>
   27270:	e0bfff17 	ldw	r2,-4(fp)
   27274:	d0a00f15 	stw	r2,-32708(gp)
   27278:	e0bfff17 	ldw	r2,-4(fp)
   2727c:	e0bffe15 	stw	r2,-8(fp)
   27280:	00000706 	br	272a0 <alt_get_fd+0xa4>
   27284:	e0bfff17 	ldw	r2,-4(fp)
   27288:	10800044 	addi	r2,r2,1
   2728c:	e0bfff15 	stw	r2,-4(fp)
   27290:	e0bfff17 	ldw	r2,-4(fp)
   27294:	10800810 	cmplti	r2,r2,32
   27298:	103fe01e 	bne	r2,zero,2721c <alt_get_fd+0x20>
   2729c:	0001883a 	nop
   272a0:	e0bffe17 	ldw	r2,-8(fp)
   272a4:	e037883a 	mov	sp,fp
   272a8:	df000017 	ldw	fp,0(sp)
   272ac:	dec00104 	addi	sp,sp,4
   272b0:	f800283a 	ret

000272b4 <atexit>:
   272b4:	200b883a 	mov	r5,r4
   272b8:	000f883a 	mov	r7,zero
   272bc:	000d883a 	mov	r6,zero
   272c0:	0009883a 	mov	r4,zero
   272c4:	00273381 	jmpi	27338 <__register_exitproc>

000272c8 <exit>:
   272c8:	defffe04 	addi	sp,sp,-8
   272cc:	000b883a 	mov	r5,zero
   272d0:	dc000015 	stw	r16,0(sp)
   272d4:	dfc00115 	stw	ra,4(sp)
   272d8:	2021883a 	mov	r16,r4
   272dc:	00274540 	call	27454 <__call_exitprocs>
   272e0:	8009883a 	mov	r4,r16
   272e4:	002771c0 	call	2771c <_exit>

000272e8 <memcmp>:
   272e8:	0007883a 	mov	r3,zero
   272ec:	30c0021e 	bne	r6,r3,272f8 <memcmp+0x10>
   272f0:	0005883a 	mov	r2,zero
   272f4:	f800283a 	ret
   272f8:	20c5883a 	add	r2,r4,r3
   272fc:	18c00044 	addi	r3,r3,1
   27300:	28cf883a 	add	r7,r5,r3
   27304:	10800003 	ldbu	r2,0(r2)
   27308:	39ffffc3 	ldbu	r7,-1(r7)
   2730c:	11fff726 	beq	r2,r7,272ec <memcmp+0x4>
   27310:	11c5c83a 	sub	r2,r2,r7
   27314:	f800283a 	ret

00027318 <_putchar_r>:
   27318:	21800217 	ldw	r6,8(r4)
   2731c:	00275d01 	jmpi	275d0 <_putc_r>

00027320 <putchar>:
   27320:	008000f4 	movhi	r2,3
   27324:	10a02717 	ldw	r2,-32612(r2)
   27328:	200b883a 	mov	r5,r4
   2732c:	11800217 	ldw	r6,8(r2)
   27330:	1009883a 	mov	r4,r2
   27334:	00275d01 	jmpi	275d0 <_putc_r>

00027338 <__register_exitproc>:
   27338:	008000f4 	movhi	r2,3
   2733c:	10a02617 	ldw	r2,-32616(r2)
   27340:	defff904 	addi	sp,sp,-28
   27344:	dc000015 	stw	r16,0(sp)
   27348:	14000d17 	ldw	r16,52(r2)
   2734c:	dd400515 	stw	r21,20(sp)
   27350:	dd000415 	stw	r20,16(sp)
   27354:	dcc00315 	stw	r19,12(sp)
   27358:	dc800215 	stw	r18,8(sp)
   2735c:	dfc00615 	stw	ra,24(sp)
   27360:	dc400115 	stw	r17,4(sp)
   27364:	2025883a 	mov	r18,r4
   27368:	2827883a 	mov	r19,r5
   2736c:	302b883a 	mov	r21,r6
   27370:	3829883a 	mov	r20,r7
   27374:	8000081e 	bne	r16,zero,27398 <__register_exitproc+0x60>
   27378:	14000e04 	addi	r16,r2,56
   2737c:	00c00034 	movhi	r3,0
   27380:	14000d15 	stw	r16,52(r2)
   27384:	18c00004 	addi	r3,r3,0
   27388:	18000326 	beq	r3,zero,27398 <__register_exitproc+0x60>
   2738c:	00c00034 	movhi	r3,0
   27390:	18c00017 	ldw	r3,0(r3)
   27394:	10c03015 	stw	r3,192(r2)
   27398:	84400117 	ldw	r17,4(r16)
   2739c:	88800810 	cmplti	r2,r17,32
   273a0:	10000a1e 	bne	r2,zero,273cc <__register_exitproc+0x94>
   273a4:	00bfffc4 	movi	r2,-1
   273a8:	dfc00617 	ldw	ra,24(sp)
   273ac:	dd400517 	ldw	r21,20(sp)
   273b0:	dd000417 	ldw	r20,16(sp)
   273b4:	dcc00317 	ldw	r19,12(sp)
   273b8:	dc800217 	ldw	r18,8(sp)
   273bc:	dc400117 	ldw	r17,4(sp)
   273c0:	dc000017 	ldw	r16,0(sp)
   273c4:	dec00704 	addi	sp,sp,28
   273c8:	f800283a 	ret
   273cc:	90001926 	beq	r18,zero,27434 <__register_exitproc+0xfc>
   273d0:	80802217 	ldw	r2,136(r16)
   273d4:	1000091e 	bne	r2,zero,273fc <__register_exitproc+0xc4>
   273d8:	00800034 	movhi	r2,0
   273dc:	10800004 	addi	r2,r2,0
   273e0:	103ff026 	beq	r2,zero,273a4 <__register_exitproc+0x6c>
   273e4:	01004204 	movi	r4,264
   273e8:	00000000 	call	0 <__reset-0x20000>
   273ec:	103fed26 	beq	r2,zero,273a4 <__register_exitproc+0x6c>
   273f0:	10004015 	stw	zero,256(r2)
   273f4:	10004115 	stw	zero,260(r2)
   273f8:	80802215 	stw	r2,136(r16)
   273fc:	880890ba 	slli	r4,r17,2
   27400:	00c00044 	movi	r3,1
   27404:	1c46983a 	sll	r3,r3,r17
   27408:	1109883a 	add	r4,r2,r4
   2740c:	25400015 	stw	r21,0(r4)
   27410:	11404017 	ldw	r5,256(r2)
   27414:	94800098 	cmpnei	r18,r18,2
   27418:	28cab03a 	or	r5,r5,r3
   2741c:	11404015 	stw	r5,256(r2)
   27420:	25002015 	stw	r20,128(r4)
   27424:	9000031e 	bne	r18,zero,27434 <__register_exitproc+0xfc>
   27428:	11004117 	ldw	r4,260(r2)
   2742c:	20c6b03a 	or	r3,r4,r3
   27430:	10c04115 	stw	r3,260(r2)
   27434:	88800044 	addi	r2,r17,1
   27438:	8c400084 	addi	r17,r17,2
   2743c:	882290ba 	slli	r17,r17,2
   27440:	80800115 	stw	r2,4(r16)
   27444:	0005883a 	mov	r2,zero
   27448:	8461883a 	add	r16,r16,r17
   2744c:	84c00015 	stw	r19,0(r16)
   27450:	003fd506 	br	273a8 <__register_exitproc+0x70>

00027454 <__call_exitprocs>:
   27454:	defff604 	addi	sp,sp,-40
   27458:	008000f4 	movhi	r2,3
   2745c:	dd800615 	stw	r22,24(sp)
   27460:	15a02617 	ldw	r22,-32616(r2)
   27464:	dd400515 	stw	r21,20(sp)
   27468:	dd000415 	stw	r20,16(sp)
   2746c:	dfc00915 	stw	ra,36(sp)
   27470:	df000815 	stw	fp,32(sp)
   27474:	ddc00715 	stw	r23,28(sp)
   27478:	dcc00315 	stw	r19,12(sp)
   2747c:	dc800215 	stw	r18,8(sp)
   27480:	dc400115 	stw	r17,4(sp)
   27484:	dc000015 	stw	r16,0(sp)
   27488:	202b883a 	mov	r21,r4
   2748c:	2829883a 	mov	r20,r5
   27490:	b4400d17 	ldw	r17,52(r22)
   27494:	88000726 	beq	r17,zero,274b4 <__call_exitprocs+0x60>
   27498:	8c000117 	ldw	r16,4(r17)
   2749c:	8cc02217 	ldw	r19,136(r17)
   274a0:	84bfffc4 	addi	r18,r16,-1
   274a4:	802090ba 	slli	r16,r16,2
   274a8:	9c2f883a 	add	r23,r19,r16
   274ac:	8c21883a 	add	r16,r17,r16
   274b0:	90000c0e 	bge	r18,zero,274e4 <__call_exitprocs+0x90>
   274b4:	dfc00917 	ldw	ra,36(sp)
   274b8:	df000817 	ldw	fp,32(sp)
   274bc:	ddc00717 	ldw	r23,28(sp)
   274c0:	dd800617 	ldw	r22,24(sp)
   274c4:	dd400517 	ldw	r21,20(sp)
   274c8:	dd000417 	ldw	r20,16(sp)
   274cc:	dcc00317 	ldw	r19,12(sp)
   274d0:	dc800217 	ldw	r18,8(sp)
   274d4:	dc400117 	ldw	r17,4(sp)
   274d8:	dc000017 	ldw	r16,0(sp)
   274dc:	dec00a04 	addi	sp,sp,40
   274e0:	f800283a 	ret
   274e4:	a0000726 	beq	r20,zero,27504 <__call_exitprocs+0xb0>
   274e8:	9800041e 	bne	r19,zero,274fc <__call_exitprocs+0xa8>
   274ec:	94bfffc4 	addi	r18,r18,-1
   274f0:	bdffff04 	addi	r23,r23,-4
   274f4:	843fff04 	addi	r16,r16,-4
   274f8:	003fed06 	br	274b0 <__call_exitprocs+0x5c>
   274fc:	b8c01f17 	ldw	r3,124(r23)
   27500:	1d3ffa1e 	bne	r3,r20,274ec <__call_exitprocs+0x98>
   27504:	89000117 	ldw	r4,4(r17)
   27508:	80c00117 	ldw	r3,4(r16)
   2750c:	213fffc4 	addi	r4,r4,-1
   27510:	24800f1e 	bne	r4,r18,27550 <__call_exitprocs+0xfc>
   27514:	8c800115 	stw	r18,4(r17)
   27518:	183ff426 	beq	r3,zero,274ec <__call_exitprocs+0x98>
   2751c:	8f000117 	ldw	fp,4(r17)
   27520:	98000526 	beq	r19,zero,27538 <__call_exitprocs+0xe4>
   27524:	00800044 	movi	r2,1
   27528:	148c983a 	sll	r6,r2,r18
   2752c:	99004017 	ldw	r4,256(r19)
   27530:	3108703a 	and	r4,r6,r4
   27534:	2000081e 	bne	r4,zero,27558 <__call_exitprocs+0x104>
   27538:	183ee83a 	callr	r3
   2753c:	89000117 	ldw	r4,4(r17)
   27540:	b0c00d17 	ldw	r3,52(r22)
   27544:	273fd21e 	bne	r4,fp,27490 <__call_exitprocs+0x3c>
   27548:	88ffe826 	beq	r17,r3,274ec <__call_exitprocs+0x98>
   2754c:	003fd006 	br	27490 <__call_exitprocs+0x3c>
   27550:	80000115 	stw	zero,4(r16)
   27554:	003ff006 	br	27518 <__call_exitprocs+0xc4>
   27558:	99404117 	ldw	r5,260(r19)
   2755c:	b93fff17 	ldw	r4,-4(r23)
   27560:	314c703a 	and	r6,r6,r5
   27564:	3000041e 	bne	r6,zero,27578 <__call_exitprocs+0x124>
   27568:	200b883a 	mov	r5,r4
   2756c:	a809883a 	mov	r4,r21
   27570:	183ee83a 	callr	r3
   27574:	003ff106 	br	2753c <__call_exitprocs+0xe8>
   27578:	183ee83a 	callr	r3
   2757c:	003fef06 	br	2753c <__call_exitprocs+0xe8>

00027580 <putc>:
   27580:	defffd04 	addi	sp,sp,-12
   27584:	008000b4 	movhi	r2,2
   27588:	dc000115 	stw	r16,4(sp)
   2758c:	dfc00215 	stw	ra,8(sp)
   27590:	109d8904 	addi	r2,r2,30244
   27594:	28800115 	stw	r2,4(r5)
   27598:	008000f4 	movhi	r2,3
   2759c:	d90000c5 	stb	r4,3(sp)
   275a0:	2021883a 	mov	r16,r4
   275a4:	11202717 	ldw	r4,-32612(r2)
   275a8:	01c00044 	movi	r7,1
   275ac:	d98000c4 	addi	r6,sp,3
   275b0:	00276240 	call	27624 <__sfvwrite_small_dev>
   275b4:	10ffffe0 	cmpeqi	r3,r2,-1
   275b8:	1800011e 	bne	r3,zero,275c0 <putc+0x40>
   275bc:	8005883a 	mov	r2,r16
   275c0:	dfc00217 	ldw	ra,8(sp)
   275c4:	dc000117 	ldw	r16,4(sp)
   275c8:	dec00304 	addi	sp,sp,12
   275cc:	f800283a 	ret

000275d0 <_putc_r>:
   275d0:	defffd04 	addi	sp,sp,-12
   275d4:	008000b4 	movhi	r2,2
   275d8:	dc000115 	stw	r16,4(sp)
   275dc:	dfc00215 	stw	ra,8(sp)
   275e0:	109d8904 	addi	r2,r2,30244
   275e4:	30800115 	stw	r2,4(r6)
   275e8:	008000f4 	movhi	r2,3
   275ec:	11202717 	ldw	r4,-32612(r2)
   275f0:	2821883a 	mov	r16,r5
   275f4:	01c00044 	movi	r7,1
   275f8:	300b883a 	mov	r5,r6
   275fc:	d98000c4 	addi	r6,sp,3
   27600:	dc0000c5 	stb	r16,3(sp)
   27604:	00276240 	call	27624 <__sfvwrite_small_dev>
   27608:	10ffffe0 	cmpeqi	r3,r2,-1
   2760c:	1800011e 	bne	r3,zero,27614 <_putc_r+0x44>
   27610:	8005883a 	mov	r2,r16
   27614:	dfc00217 	ldw	ra,8(sp)
   27618:	dc000117 	ldw	r16,4(sp)
   2761c:	dec00304 	addi	sp,sp,12
   27620:	f800283a 	ret

00027624 <__sfvwrite_small_dev>:
   27624:	2880000b 	ldhu	r2,0(r5)
   27628:	1080020c 	andi	r2,r2,8
   2762c:	10002526 	beq	r2,zero,276c4 <__sfvwrite_small_dev+0xa0>
   27630:	2880008f 	ldh	r2,2(r5)
   27634:	defffb04 	addi	sp,sp,-20
   27638:	dcc00315 	stw	r19,12(sp)
   2763c:	dc800215 	stw	r18,8(sp)
   27640:	dc400115 	stw	r17,4(sp)
   27644:	dc000015 	stw	r16,0(sp)
   27648:	dfc00415 	stw	ra,16(sp)
   2764c:	2027883a 	mov	r19,r4
   27650:	2821883a 	mov	r16,r5
   27654:	3025883a 	mov	r18,r6
   27658:	3823883a 	mov	r17,r7
   2765c:	1000100e 	bge	r2,zero,276a0 <__sfvwrite_small_dev+0x7c>
   27660:	8080000b 	ldhu	r2,0(r16)
   27664:	10801014 	ori	r2,r2,64
   27668:	8080000d 	sth	r2,0(r16)
   2766c:	00bfffc4 	movi	r2,-1
   27670:	00000d06 	br	276a8 <__sfvwrite_small_dev+0x84>
   27674:	88810050 	cmplti	r2,r17,1025
   27678:	880f883a 	mov	r7,r17
   2767c:	1000011e 	bne	r2,zero,27684 <__sfvwrite_small_dev+0x60>
   27680:	01c10004 	movi	r7,1024
   27684:	8140008f 	ldh	r5,2(r16)
   27688:	900d883a 	mov	r6,r18
   2768c:	9809883a 	mov	r4,r19
   27690:	00276cc0 	call	276cc <_write_r>
   27694:	00bff20e 	bge	zero,r2,27660 <__sfvwrite_small_dev+0x3c>
   27698:	88a3c83a 	sub	r17,r17,r2
   2769c:	90a5883a 	add	r18,r18,r2
   276a0:	047ff416 	blt	zero,r17,27674 <__sfvwrite_small_dev+0x50>
   276a4:	0005883a 	mov	r2,zero
   276a8:	dfc00417 	ldw	ra,16(sp)
   276ac:	dcc00317 	ldw	r19,12(sp)
   276b0:	dc800217 	ldw	r18,8(sp)
   276b4:	dc400117 	ldw	r17,4(sp)
   276b8:	dc000017 	ldw	r16,0(sp)
   276bc:	dec00504 	addi	sp,sp,20
   276c0:	f800283a 	ret
   276c4:	00bfffc4 	movi	r2,-1
   276c8:	f800283a 	ret

000276cc <_write_r>:
   276cc:	defffe04 	addi	sp,sp,-8
   276d0:	dc000015 	stw	r16,0(sp)
   276d4:	008000f4 	movhi	r2,3
   276d8:	2021883a 	mov	r16,r4
   276dc:	2809883a 	mov	r4,r5
   276e0:	300b883a 	mov	r5,r6
   276e4:	380d883a 	mov	r6,r7
   276e8:	dfc00115 	stw	ra,4(sp)
   276ec:	10213e15 	stw	zero,-31496(r2)
   276f0:	00277900 	call	27790 <write>
   276f4:	10ffffd8 	cmpnei	r3,r2,-1
   276f8:	1800041e 	bne	r3,zero,2770c <_write_r+0x40>
   276fc:	00c000f4 	movhi	r3,3
   27700:	18e13e17 	ldw	r3,-31496(r3)
   27704:	18000126 	beq	r3,zero,2770c <_write_r+0x40>
   27708:	80c00015 	stw	r3,0(r16)
   2770c:	dfc00117 	ldw	ra,4(sp)
   27710:	dc000017 	ldw	r16,0(sp)
   27714:	dec00204 	addi	sp,sp,8
   27718:	f800283a 	ret

0002771c <_exit>:
   2771c:	defffd04 	addi	sp,sp,-12
   27720:	df000215 	stw	fp,8(sp)
   27724:	df000204 	addi	fp,sp,8
   27728:	e13ffe15 	stw	r4,-8(fp)
   2772c:	0001883a 	nop
   27730:	e0bffe17 	ldw	r2,-8(fp)
   27734:	e0bfff15 	stw	r2,-4(fp)
   27738:	e0bfff17 	ldw	r2,-4(fp)
   2773c:	10000226 	beq	r2,zero,27748 <_exit+0x2c>
   27740:	002af070 	cmpltui	zero,zero,43969
   27744:	00000106 	br	2774c <_exit+0x30>
   27748:	002af0b0 	cmpltui	zero,zero,43970
   2774c:	0001883a 	nop
   27750:	003fff06 	br	27750 <_exit+0x34>

00027754 <alt_get_errno>:
   27754:	defffe04 	addi	sp,sp,-8
   27758:	dfc00115 	stw	ra,4(sp)
   2775c:	df000015 	stw	fp,0(sp)
   27760:	d839883a 	mov	fp,sp
   27764:	d0a01017 	ldw	r2,-32704(gp)
   27768:	10000326 	beq	r2,zero,27778 <alt_get_errno+0x24>
   2776c:	d0a01017 	ldw	r2,-32704(gp)
   27770:	103ee83a 	callr	r2
   27774:	00000106 	br	2777c <alt_get_errno+0x28>
   27778:	d0a11c04 	addi	r2,gp,-31632
   2777c:	e037883a 	mov	sp,fp
   27780:	dfc00117 	ldw	ra,4(sp)
   27784:	df000017 	ldw	fp,0(sp)
   27788:	dec00204 	addi	sp,sp,8
   2778c:	f800283a 	ret

00027790 <write>:
   27790:	defff904 	addi	sp,sp,-28
   27794:	dfc00615 	stw	ra,24(sp)
   27798:	df000515 	stw	fp,20(sp)
   2779c:	df000504 	addi	fp,sp,20
   277a0:	e13ffd15 	stw	r4,-12(fp)
   277a4:	e17ffc15 	stw	r5,-16(fp)
   277a8:	e1bffb15 	stw	r6,-20(fp)
   277ac:	e0bffd17 	ldw	r2,-12(fp)
   277b0:	10000916 	blt	r2,zero,277d8 <write+0x48>
   277b4:	e0fffd17 	ldw	r3,-12(fp)
   277b8:	1805883a 	mov	r2,r3
   277bc:	1085883a 	add	r2,r2,r2
   277c0:	10c5883a 	add	r2,r2,r3
   277c4:	100490ba 	slli	r2,r2,2
   277c8:	00c000b4 	movhi	r3,2
   277cc:	18dfc204 	addi	r3,r3,32520
   277d0:	10c5883a 	add	r2,r2,r3
   277d4:	00000106 	br	277dc <write+0x4c>
   277d8:	0005883a 	mov	r2,zero
   277dc:	e0bfff15 	stw	r2,-4(fp)
   277e0:	e0bfff17 	ldw	r2,-4(fp)
   277e4:	10002126 	beq	r2,zero,2786c <write+0xdc>
   277e8:	e0bfff17 	ldw	r2,-4(fp)
   277ec:	10800217 	ldw	r2,8(r2)
   277f0:	108000cc 	andi	r2,r2,3
   277f4:	10001826 	beq	r2,zero,27858 <write+0xc8>
   277f8:	e0bfff17 	ldw	r2,-4(fp)
   277fc:	10800017 	ldw	r2,0(r2)
   27800:	10800617 	ldw	r2,24(r2)
   27804:	10001426 	beq	r2,zero,27858 <write+0xc8>
   27808:	e0bfff17 	ldw	r2,-4(fp)
   2780c:	10800017 	ldw	r2,0(r2)
   27810:	10800617 	ldw	r2,24(r2)
   27814:	e0fffb17 	ldw	r3,-20(fp)
   27818:	180d883a 	mov	r6,r3
   2781c:	e17ffc17 	ldw	r5,-16(fp)
   27820:	e13fff17 	ldw	r4,-4(fp)
   27824:	103ee83a 	callr	r2
   27828:	e0bffe15 	stw	r2,-8(fp)
   2782c:	e0bffe17 	ldw	r2,-8(fp)
   27830:	1000070e 	bge	r2,zero,27850 <write+0xc0>
   27834:	00277540 	call	27754 <alt_get_errno>
   27838:	1007883a 	mov	r3,r2
   2783c:	e0bffe17 	ldw	r2,-8(fp)
   27840:	0085c83a 	sub	r2,zero,r2
   27844:	18800015 	stw	r2,0(r3)
   27848:	00bfffc4 	movi	r2,-1
   2784c:	00000c06 	br	27880 <write+0xf0>
   27850:	e0bffe17 	ldw	r2,-8(fp)
   27854:	00000a06 	br	27880 <write+0xf0>
   27858:	00277540 	call	27754 <alt_get_errno>
   2785c:	1007883a 	mov	r3,r2
   27860:	00800344 	movi	r2,13
   27864:	18800015 	stw	r2,0(r3)
   27868:	00000406 	br	2787c <write+0xec>
   2786c:	00277540 	call	27754 <alt_get_errno>
   27870:	1007883a 	mov	r3,r2
   27874:	00801444 	movi	r2,81
   27878:	18800015 	stw	r2,0(r3)
   2787c:	00bfffc4 	movi	r2,-1
   27880:	e037883a 	mov	sp,fp
   27884:	dfc00117 	ldw	ra,4(sp)
   27888:	df000017 	ldw	fp,0(sp)
   2788c:	dec00204 	addi	sp,sp,8
   27890:	f800283a 	ret
